; ModuleID = '/home/cs23mtech12010/CCM/CCMutator/llvm-project/llvm/lib/Transforms/scopePass/test/test3.cpp'
source_filename = "/home/cs23mtech12010/CCM/CCMutator/llvm-project/llvm/lib/Transforms/scopePass/test/test3.cpp"
target datalayout = "e-m:e-p270:32:32-p271:32:32-p272:64:64-i64:64-f80:128-n8:16:32:64-S128"
target triple = "x86_64-unknown-linux-gnu"

%"class.std::ios_base::Init" = type { i8 }
%"class.std::basic_ostream" = type { ptr, %"class.std::basic_ios" }
%"class.std::basic_ios" = type { %"class.std::ios_base", ptr, i8, i8, ptr, ptr, ptr, ptr }
%"class.std::ios_base" = type { ptr, i64, i64, i32, i32, i32, ptr, %"struct.std::ios_base::_Words", [8 x %"struct.std::ios_base::_Words"], i32, ptr, %"class.std::locale" }
%"struct.std::ios_base::_Words" = type { ptr, i64 }
%"class.std::locale" = type { ptr }
%"class.std::thread" = type { %"class.std::thread::id" }
%"class.std::thread::id" = type { i64 }
%"class.std::unique_ptr" = type { %"class.std::__uniq_ptr_impl" }
%"class.std::__uniq_ptr_impl" = type { %"class.std::tuple" }
%"class.std::tuple" = type { %"struct.std::_Tuple_impl" }
%"struct.std::_Tuple_impl" = type { %"struct.std::_Head_base.1" }
%"struct.std::_Head_base.1" = type { ptr }
%"struct.std::thread::_Invoker" = type { %"class.std::tuple.2" }
%"class.std::tuple.2" = type { %"struct.std::_Tuple_impl.3" }
%"struct.std::_Tuple_impl.3" = type { %"struct.std::_Head_base.4" }
%"struct.std::_Head_base.4" = type { ptr }
%"struct.std::thread::_State_impl" = type { %"struct.std::thread::_State", %"struct.std::thread::_Invoker" }
%"struct.std::thread::_State" = type { ptr }
%"struct.std::_Index_tuple" = type { i8 }
%"struct.std::__invoke_other" = type { i8 }

$_ZNSt6threadC2IRFvvEJEvEEOT_DpOT0_ = comdat any

$_ZNSt6threadD2Ev = comdat any

$_ZNKSt6thread8joinableEv = comdat any

$_ZSteqNSt6thread2idES0_ = comdat any

$_ZNSt6thread2idC2Ev = comdat any

$_ZNSt6thread13_S_make_stateINS_8_InvokerISt5tupleIJPFvvEEEEEEESt10unique_ptrINS_6_StateESt14default_deleteIS8_EEOT_ = comdat any

$_ZNSt6thread14__make_invokerIRFvvEJEEENS_8_InvokerISt5tupleIJNSt5decayIT_E4typeEDpNS5_IT0_E4typeEEEEEOS6_DpOS9_ = comdat any

$_ZNSt10unique_ptrINSt6thread6_StateESt14default_deleteIS1_EED2Ev = comdat any

$_ZNSt6thread11_State_implINS_8_InvokerISt5tupleIJPFvvEEEEEEC2EOS6_ = comdat any

$_ZNSt10unique_ptrINSt6thread6_StateESt14default_deleteIS1_EEC2IS3_vEEPS1_ = comdat any

$_ZNSt6thread6_StateC2Ev = comdat any

$_ZNSt6thread8_InvokerISt5tupleIJPFvvEEEEC2EOS5_ = comdat any

$_ZNSt6thread11_State_implINS_8_InvokerISt5tupleIJPFvvEEEEEED2Ev = comdat any

$_ZNSt6thread11_State_implINS_8_InvokerISt5tupleIJPFvvEEEEEED0Ev = comdat any

$_ZNSt6thread11_State_implINS_8_InvokerISt5tupleIJPFvvEEEEEE6_M_runEv = comdat any

$_ZNSt5tupleIJPFvvEEEC2EOS2_ = comdat any

$_ZNSt11_Tuple_implILm0EJPFvvEEEC2EOS2_ = comdat any

$_ZNSt11_Tuple_implILm0EJPFvvEEE7_M_headERS2_ = comdat any

$_ZNSt10_Head_baseILm0EPFvvELb0EEC2IS1_EEOT_ = comdat any

$__clang_call_terminate = comdat any

$_ZNSt10_Head_baseILm0EPFvvELb0EE7_M_headERS2_ = comdat any

$_ZNSt6thread8_InvokerISt5tupleIJPFvvEEEEclEv = comdat any

$_ZNSt6thread8_InvokerISt5tupleIJPFvvEEEE9_M_invokeIJLm0EEEEvSt12_Index_tupleIJXspT_EEE = comdat any

$_ZSt8__invokeIPFvvEJEENSt15__invoke_resultIT_JDpT0_EE4typeEOS3_DpOS4_ = comdat any

$_ZSt3getILm0EJPFvvEEEONSt13tuple_elementIXT_ESt5tupleIJDpT0_EEE4typeEOS6_ = comdat any

$_ZSt13__invoke_implIvPFvvEJEET_St14__invoke_otherOT0_DpOT1_ = comdat any

$_ZSt3getILm0EJPFvvEEERNSt13tuple_elementIXT_ESt5tupleIJDpT0_EEE4typeERS6_ = comdat any

$_ZSt12__get_helperILm0EPFvvEJEERT0_RSt11_Tuple_implIXT_EJS2_DpT1_EE = comdat any

$_ZNSt15__uniq_ptr_implINSt6thread6_StateESt14default_deleteIS1_EEC2EPS1_ = comdat any

$_ZNSt5tupleIJPNSt6thread6_StateESt14default_deleteIS1_EEEC2IS2_S4_Lb1EEEv = comdat any

$_ZNSt15__uniq_ptr_implINSt6thread6_StateESt14default_deleteIS1_EE6_M_ptrEv = comdat any

$_ZNSt11_Tuple_implILm0EJPNSt6thread6_StateESt14default_deleteIS1_EEEC2Ev = comdat any

$_ZNSt11_Tuple_implILm1EJSt14default_deleteINSt6thread6_StateEEEEC2Ev = comdat any

$_ZNSt10_Head_baseILm0EPNSt6thread6_StateELb0EEC2Ev = comdat any

$_ZNSt10_Head_baseILm1ESt14default_deleteINSt6thread6_StateEELb1EEC2Ev = comdat any

$_ZSt3getILm0EJPNSt6thread6_StateESt14default_deleteIS1_EEERNSt13tuple_elementIXT_ESt5tupleIJDpT0_EEE4typeERS9_ = comdat any

$_ZSt12__get_helperILm0EPNSt6thread6_StateEJSt14default_deleteIS1_EEERT0_RSt11_Tuple_implIXT_EJS5_DpT1_EE = comdat any

$_ZNSt11_Tuple_implILm0EJPNSt6thread6_StateESt14default_deleteIS1_EEE7_M_headERS5_ = comdat any

$_ZNSt10_Head_baseILm0EPNSt6thread6_StateELb0EE7_M_headERS3_ = comdat any

$_ZNSt5tupleIJPFvvEEEC2IvLb1EEERKS1_ = comdat any

$_ZNSt11_Tuple_implILm0EJPFvvEEEC2ERKS1_ = comdat any

$_ZNSt10_Head_baseILm0EPFvvELb0EEC2ERKS1_ = comdat any

$_ZNSt10unique_ptrINSt6thread6_StateESt14default_deleteIS1_EE11get_deleterEv = comdat any

$_ZNKSt14default_deleteINSt6thread6_StateEEclEPS1_ = comdat any

$_ZNSt15__uniq_ptr_implINSt6thread6_StateESt14default_deleteIS1_EE10_M_deleterEv = comdat any

$_ZSt3getILm1EJPNSt6thread6_StateESt14default_deleteIS1_EEERNSt13tuple_elementIXT_ESt5tupleIJDpT0_EEE4typeERS9_ = comdat any

$_ZSt12__get_helperILm1ESt14default_deleteINSt6thread6_StateEEJEERT0_RSt11_Tuple_implIXT_EJS4_DpT1_EE = comdat any

$_ZNSt11_Tuple_implILm1EJSt14default_deleteINSt6thread6_StateEEEE7_M_headERS4_ = comdat any

$_ZNSt10_Head_baseILm1ESt14default_deleteINSt6thread6_StateEELb1EE7_M_headERS4_ = comdat any

$_ZTVNSt6thread11_State_implINS_8_InvokerISt5tupleIJPFvvEEEEEEE = comdat any

$_ZTSNSt6thread11_State_implINS_8_InvokerISt5tupleIJPFvvEEEEEEE = comdat any

$_ZTINSt6thread11_State_implINS_8_InvokerISt5tupleIJPFvvEEEEEEE = comdat any

@_ZStL8__ioinit = internal global %"class.std::ios_base::Init" zeroinitializer, align 1, !dbg !0
@__dso_handle = external hidden global i8
@_ZSt4cout = external global %"class.std::basic_ostream", align 8
@.str = private unnamed_addr constant [26 x i8] c"Hello from Thread 1! ID: \00", align 1, !dbg !7
@.str.1 = private unnamed_addr constant [26 x i8] c"Hello from Thread 2! ID: \00", align 1, !dbg !15
@_ZTVNSt6thread11_State_implINS_8_InvokerISt5tupleIJPFvvEEEEEEE = linkonce_odr dso_local unnamed_addr constant { [5 x ptr] } { [5 x ptr] [ptr null, ptr @_ZTINSt6thread11_State_implINS_8_InvokerISt5tupleIJPFvvEEEEEEE, ptr @_ZNSt6thread11_State_implINS_8_InvokerISt5tupleIJPFvvEEEEEED2Ev, ptr @_ZNSt6thread11_State_implINS_8_InvokerISt5tupleIJPFvvEEEEEED0Ev, ptr @_ZNSt6thread11_State_implINS_8_InvokerISt5tupleIJPFvvEEEEEE6_M_runEv] }, comdat, align 8
@_ZTVN10__cxxabiv120__si_class_type_infoE = external global ptr
@_ZTSNSt6thread11_State_implINS_8_InvokerISt5tupleIJPFvvEEEEEEE = linkonce_odr dso_local constant [59 x i8] c"NSt6thread11_State_implINS_8_InvokerISt5tupleIJPFvvEEEEEEE\00", comdat, align 1
@_ZTINSt6thread6_StateE = external constant ptr
@_ZTINSt6thread11_State_implINS_8_InvokerISt5tupleIJPFvvEEEEEEE = linkonce_odr dso_local constant { ptr, ptr, ptr } { ptr getelementptr inbounds (ptr, ptr @_ZTVN10__cxxabiv120__si_class_type_infoE, i64 2), ptr @_ZTSNSt6thread11_State_implINS_8_InvokerISt5tupleIJPFvvEEEEEEE, ptr @_ZTINSt6thread6_StateE }, comdat, align 8
@_ZTVNSt6thread6_StateE = external unnamed_addr constant { [5 x ptr] }, align 8
@llvm.global_ctors = appending global [1 x { i32, ptr, ptr }] [{ i32, ptr, ptr } { i32 65535, ptr @_GLOBAL__sub_I_test3.cpp, ptr null }]

; Function Attrs: noinline uwtable
define internal void @__cxx_global_var_init() #0 section ".text.startup" !dbg !1479 {
  call void @_ZNSt8ios_base4InitC1Ev(ptr noundef nonnull align 1 dereferenceable(1) @_ZStL8__ioinit), !dbg !1480
  %1 = call i32 @__cxa_atexit(ptr @_ZNSt8ios_base4InitD1Ev, ptr @_ZStL8__ioinit, ptr @__dso_handle) #3, !dbg !1482
  ret void, !dbg !1480
}

declare void @_ZNSt8ios_base4InitC1Ev(ptr noundef nonnull align 1 dereferenceable(1)) unnamed_addr #1

; Function Attrs: nounwind
declare void @_ZNSt8ios_base4InitD1Ev(ptr noundef nonnull align 1 dereferenceable(1)) unnamed_addr #2

; Function Attrs: nounwind
declare i32 @__cxa_atexit(ptr, ptr, ptr) #3

; Function Attrs: mustprogress noinline optnone uwtable
define dso_local void @_Z15threadFunction1v() #4 !dbg !1483 {
  %1 = call noundef nonnull align 8 dereferenceable(8) ptr @_ZStlsISt11char_traitsIcEERSt13basic_ostreamIcT_ES5_PKc(ptr noundef nonnull align 8 dereferenceable(8) @_ZSt4cout, ptr noundef @.str), !dbg !1484
  ret void, !dbg !1485
}

declare noundef nonnull align 8 dereferenceable(8) ptr @_ZStlsISt11char_traitsIcEERSt13basic_ostreamIcT_ES5_PKc(ptr noundef nonnull align 8 dereferenceable(8), ptr noundef) #1

; Function Attrs: mustprogress noinline optnone uwtable
define dso_local void @_Z15threadFunction2v() #4 !dbg !1486 {
  %1 = call noundef nonnull align 8 dereferenceable(8) ptr @_ZStlsISt11char_traitsIcEERSt13basic_ostreamIcT_ES5_PKc(ptr noundef nonnull align 8 dereferenceable(8) @_ZSt4cout, ptr noundef @.str.1), !dbg !1487
  ret void, !dbg !1488
}

; Function Attrs: mustprogress noinline norecurse optnone uwtable
define dso_local noundef i32 @main() #5 personality ptr @__gxx_personality_v0 !dbg !1489 {
  %1 = alloca i32, align 4
  %2 = alloca %"class.std::thread", align 8
  %3 = alloca %"class.std::thread", align 8
  %4 = alloca ptr, align 8
  %5 = alloca i32, align 4
  store i32 0, ptr %1, align 4
  call void @llvm.dbg.declare(metadata ptr %2, metadata !1490, metadata !DIExpression()), !dbg !1491
  call void @_ZNSt6threadC2IRFvvEJEvEEOT_DpOT0_(ptr noundef nonnull align 8 dereferenceable(8) %2, ptr noundef nonnull @_Z15threadFunction1v), !dbg !1491
  call void @llvm.dbg.declare(metadata ptr %3, metadata !1492, metadata !DIExpression()), !dbg !1493
  invoke void @_ZNSt6threadC2IRFvvEJEvEEOT_DpOT0_(ptr noundef nonnull align 8 dereferenceable(8) %3, ptr noundef nonnull @_Z15threadFunction2v)
          to label %6 unwind label %10, !dbg !1493

6:                                                ; preds = %0
  invoke void @_ZNSt6thread4joinEv(ptr noundef nonnull align 8 dereferenceable(8) %2)
          to label %7 unwind label %14, !dbg !1494

7:                                                ; preds = %6
  invoke void @_ZNSt6thread4joinEv(ptr noundef nonnull align 8 dereferenceable(8) %3)
          to label %8 unwind label %14, !dbg !1495

8:                                                ; preds = %7
  store i32 0, ptr %1, align 4, !dbg !1496
  call void @_ZNSt6threadD2Ev(ptr noundef nonnull align 8 dereferenceable(8) %3) #3, !dbg !1497
  call void @_ZNSt6threadD2Ev(ptr noundef nonnull align 8 dereferenceable(8) %2) #3, !dbg !1497
  %9 = load i32, ptr %1, align 4, !dbg !1497
  ret i32 %9, !dbg !1497

10:                                               ; preds = %0
  %11 = landingpad { ptr, i32 }
          cleanup, !dbg !1497
  %12 = extractvalue { ptr, i32 } %11, 0, !dbg !1497
  store ptr %12, ptr %4, align 8, !dbg !1497
  %13 = extractvalue { ptr, i32 } %11, 1, !dbg !1497
  store i32 %13, ptr %5, align 4, !dbg !1497
  br label %18, !dbg !1497

14:                                               ; preds = %7, %6
  %15 = landingpad { ptr, i32 }
          cleanup, !dbg !1497
  %16 = extractvalue { ptr, i32 } %15, 0, !dbg !1497
  store ptr %16, ptr %4, align 8, !dbg !1497
  %17 = extractvalue { ptr, i32 } %15, 1, !dbg !1497
  store i32 %17, ptr %5, align 4, !dbg !1497
  call void @_ZNSt6threadD2Ev(ptr noundef nonnull align 8 dereferenceable(8) %3) #3, !dbg !1497
  br label %18, !dbg !1497

18:                                               ; preds = %14, %10
  call void @_ZNSt6threadD2Ev(ptr noundef nonnull align 8 dereferenceable(8) %2) #3, !dbg !1497
  br label %19, !dbg !1497

19:                                               ; preds = %18
  %20 = load ptr, ptr %4, align 8, !dbg !1497
  %21 = load i32, ptr %5, align 4, !dbg !1497
  %22 = insertvalue { ptr, i32 } poison, ptr %20, 0, !dbg !1497
  %23 = insertvalue { ptr, i32 } %22, i32 %21, 1, !dbg !1497
  resume { ptr, i32 } %23, !dbg !1497
}

; Function Attrs: nocallback nofree nosync nounwind speculatable willreturn memory(none)
declare void @llvm.dbg.declare(metadata, metadata, metadata) #6

; Function Attrs: noinline optnone uwtable
define linkonce_odr dso_local void @_ZNSt6threadC2IRFvvEJEvEEOT_DpOT0_(ptr noundef nonnull align 8 dereferenceable(8) %0, ptr noundef nonnull %1) unnamed_addr #7 comdat align 2 personality ptr @__gxx_personality_v0 !dbg !1498 {
  %3 = alloca ptr, align 8
  %4 = alloca ptr, align 8
  %5 = alloca ptr, align 8
  %6 = alloca %"class.std::unique_ptr", align 8
  %7 = alloca %"struct.std::thread::_Invoker", align 8
  %8 = alloca ptr, align 8
  %9 = alloca i32, align 4
  store ptr %0, ptr %3, align 8
  call void @llvm.dbg.declare(metadata ptr %3, metadata !1506, metadata !DIExpression()), !dbg !1508
  store ptr %1, ptr %4, align 8
  call void @llvm.dbg.declare(metadata ptr %4, metadata !1509, metadata !DIExpression()), !dbg !1510
  %10 = load ptr, ptr %3, align 8
  %11 = getelementptr inbounds %"class.std::thread", ptr %10, i32 0, i32 0, !dbg !1511
  call void @_ZNSt6thread2idC2Ev(ptr noundef nonnull align 8 dereferenceable(8) %11) #3, !dbg !1511
  call void @llvm.dbg.declare(metadata ptr %5, metadata !1512, metadata !DIExpression()), !dbg !1514
  store ptr @pthread_create, ptr %5, align 8, !dbg !1514
  %12 = load ptr, ptr %4, align 8, !dbg !1515
  call void @_ZNSt6thread14__make_invokerIRFvvEJEEENS_8_InvokerISt5tupleIJNSt5decayIT_E4typeEDpNS5_IT0_E4typeEEEEEOS6_DpOS9_(ptr sret(%"struct.std::thread::_Invoker") align 8 %7, ptr noundef nonnull %12), !dbg !1516
  call void @_ZNSt6thread13_S_make_stateINS_8_InvokerISt5tupleIJPFvvEEEEEEESt10unique_ptrINS_6_StateESt14default_deleteIS8_EEOT_(ptr sret(%"class.std::unique_ptr") align 8 %6, ptr noundef nonnull align 8 dereferenceable(8) %7), !dbg !1517
  %13 = load ptr, ptr %5, align 8, !dbg !1518
  invoke void @_ZNSt6thread15_M_start_threadESt10unique_ptrINS_6_StateESt14default_deleteIS1_EEPFvvE(ptr noundef nonnull align 8 dereferenceable(8) %10, ptr noundef %6, ptr noundef %13)
          to label %14 unwind label %15, !dbg !1519

14:                                               ; preds = %2
  call void @_ZNSt10unique_ptrINSt6thread6_StateESt14default_deleteIS1_EED2Ev(ptr noundef nonnull align 8 dereferenceable(8) %6) #3, !dbg !1519
  ret void, !dbg !1520

15:                                               ; preds = %2
  %16 = landingpad { ptr, i32 }
          cleanup, !dbg !1521
  %17 = extractvalue { ptr, i32 } %16, 0, !dbg !1521
  store ptr %17, ptr %8, align 8, !dbg !1521
  %18 = extractvalue { ptr, i32 } %16, 1, !dbg !1521
  store i32 %18, ptr %9, align 4, !dbg !1521
  call void @_ZNSt10unique_ptrINSt6thread6_StateESt14default_deleteIS1_EED2Ev(ptr noundef nonnull align 8 dereferenceable(8) %6) #3, !dbg !1519
  br label %19, !dbg !1519

19:                                               ; preds = %15
  %20 = load ptr, ptr %8, align 8, !dbg !1519
  %21 = load i32, ptr %9, align 4, !dbg !1519
  %22 = insertvalue { ptr, i32 } poison, ptr %20, 0, !dbg !1519
  %23 = insertvalue { ptr, i32 } %22, i32 %21, 1, !dbg !1519
  resume { ptr, i32 } %23, !dbg !1519
}

declare i32 @__gxx_personality_v0(...)

declare void @_ZNSt6thread4joinEv(ptr noundef nonnull align 8 dereferenceable(8)) #1

; Function Attrs: noinline nounwind optnone uwtable
define linkonce_odr dso_local void @_ZNSt6threadD2Ev(ptr noundef nonnull align 8 dereferenceable(8) %0) unnamed_addr #8 comdat align 2 !dbg !1522 {
  %2 = alloca ptr, align 8
  store ptr %0, ptr %2, align 8
  call void @llvm.dbg.declare(metadata ptr %2, metadata !1523, metadata !DIExpression()), !dbg !1524
  %3 = load ptr, ptr %2, align 8
  %4 = call noundef zeroext i1 @_ZNKSt6thread8joinableEv(ptr noundef nonnull align 8 dereferenceable(8) %3) #3, !dbg !1525
  br i1 %4, label %5, label %6, !dbg !1528

5:                                                ; preds = %1
  call void @_ZSt9terminatev() #15, !dbg !1529
  unreachable, !dbg !1529

6:                                                ; preds = %1
  ret void, !dbg !1530
}

; Function Attrs: mustprogress noinline nounwind optnone uwtable
define linkonce_odr dso_local noundef zeroext i1 @_ZNKSt6thread8joinableEv(ptr noundef nonnull align 8 dereferenceable(8) %0) #9 comdat align 2 !dbg !1531 {
  %2 = alloca ptr, align 8
  %3 = alloca %"class.std::thread::id", align 8
  %4 = alloca %"class.std::thread::id", align 8
  store ptr %0, ptr %2, align 8
  call void @llvm.dbg.declare(metadata ptr %2, metadata !1532, metadata !DIExpression()), !dbg !1534
  %5 = load ptr, ptr %2, align 8
  %6 = getelementptr inbounds %"class.std::thread", ptr %5, i32 0, i32 0, !dbg !1535
  call void @llvm.memcpy.p0.p0.i64(ptr align 8 %3, ptr align 8 %6, i64 8, i1 false), !dbg !1535
  call void @_ZNSt6thread2idC2Ev(ptr noundef nonnull align 8 dereferenceable(8) %4) #3, !dbg !1536
  %7 = getelementptr inbounds %"class.std::thread::id", ptr %3, i32 0, i32 0, !dbg !1537
  %8 = load i64, ptr %7, align 8, !dbg !1537
  %9 = getelementptr inbounds %"class.std::thread::id", ptr %4, i32 0, i32 0, !dbg !1537
  %10 = load i64, ptr %9, align 8, !dbg !1537
  %11 = call noundef zeroext i1 @_ZSteqNSt6thread2idES0_(i64 %8, i64 %10) #3, !dbg !1537
  %12 = xor i1 %11, true, !dbg !1538
  ret i1 %12, !dbg !1539
}

; Function Attrs: noreturn nounwind
declare void @_ZSt9terminatev() #10

; Function Attrs: mustprogress noinline nounwind optnone uwtable
define linkonce_odr dso_local noundef zeroext i1 @_ZSteqNSt6thread2idES0_(i64 %0, i64 %1) #9 comdat !dbg !1540 {
  %3 = alloca %"class.std::thread::id", align 8
  %4 = alloca %"class.std::thread::id", align 8
  %5 = getelementptr inbounds %"class.std::thread::id", ptr %3, i32 0, i32 0
  store i64 %0, ptr %5, align 8
  %6 = getelementptr inbounds %"class.std::thread::id", ptr %4, i32 0, i32 0
  store i64 %1, ptr %6, align 8
  call void @llvm.dbg.declare(metadata ptr %3, metadata !1543, metadata !DIExpression()), !dbg !1544
  call void @llvm.dbg.declare(metadata ptr %4, metadata !1545, metadata !DIExpression()), !dbg !1546
  %7 = getelementptr inbounds %"class.std::thread::id", ptr %3, i32 0, i32 0, !dbg !1547
  %8 = load i64, ptr %7, align 8, !dbg !1547
  %9 = getelementptr inbounds %"class.std::thread::id", ptr %4, i32 0, i32 0, !dbg !1548
  %10 = load i64, ptr %9, align 8, !dbg !1548
  %11 = icmp eq i64 %8, %10, !dbg !1549
  ret i1 %11, !dbg !1550
}

; Function Attrs: nocallback nofree nounwind willreturn memory(argmem: readwrite)
declare void @llvm.memcpy.p0.p0.i64(ptr noalias nocapture writeonly, ptr noalias nocapture readonly, i64, i1 immarg) #11

; Function Attrs: noinline nounwind optnone uwtable
define linkonce_odr dso_local void @_ZNSt6thread2idC2Ev(ptr noundef nonnull align 8 dereferenceable(8) %0) unnamed_addr #8 comdat align 2 !dbg !1551 {
  %2 = alloca ptr, align 8
  store ptr %0, ptr %2, align 8
  call void @llvm.dbg.declare(metadata ptr %2, metadata !1552, metadata !DIExpression()), !dbg !1554
  %3 = load ptr, ptr %2, align 8
  %4 = getelementptr inbounds %"class.std::thread::id", ptr %3, i32 0, i32 0, !dbg !1555
  store i64 0, ptr %4, align 8, !dbg !1555
  ret void, !dbg !1556
}

; Function Attrs: nounwind
declare i32 @pthread_create(ptr noundef, ptr noundef, ptr noundef, ptr noundef) #2

declare void @_ZNSt6thread15_M_start_threadESt10unique_ptrINS_6_StateESt14default_deleteIS1_EEPFvvE(ptr noundef nonnull align 8 dereferenceable(8), ptr noundef, ptr noundef) #1

; Function Attrs: mustprogress noinline optnone uwtable
define linkonce_odr dso_local void @_ZNSt6thread13_S_make_stateINS_8_InvokerISt5tupleIJPFvvEEEEEEESt10unique_ptrINS_6_StateESt14default_deleteIS8_EEOT_(ptr noalias sret(%"class.std::unique_ptr") align 8 %0, ptr noundef nonnull align 8 dereferenceable(8) %1) #4 comdat align 2 personality ptr @__gxx_personality_v0 !dbg !1557 {
  %3 = alloca ptr, align 8
  %4 = alloca ptr, align 8
  %5 = alloca ptr, align 8
  %6 = alloca i32, align 4
  store ptr %0, ptr %3, align 8
  store ptr %1, ptr %4, align 8
  call void @llvm.dbg.declare(metadata ptr %4, metadata !1564, metadata !DIExpression()), !dbg !1565
  %7 = call noalias noundef nonnull ptr @_Znwm(i64 noundef 16) #16, !dbg !1566, !heapallocsite !1567
  %8 = load ptr, ptr %4, align 8, !dbg !1579
  invoke void @_ZNSt6thread11_State_implINS_8_InvokerISt5tupleIJPFvvEEEEEEC2EOS6_(ptr noundef nonnull align 8 dereferenceable(16) %7, ptr noundef nonnull align 8 dereferenceable(8) %8)
          to label %9 unwind label %10, !dbg !1580

9:                                                ; preds = %2
  call void @_ZNSt10unique_ptrINSt6thread6_StateESt14default_deleteIS1_EEC2IS3_vEEPS1_(ptr noundef nonnull align 8 dereferenceable(8) %0, ptr noundef %7) #3, !dbg !1581
  ret void, !dbg !1582

10:                                               ; preds = %2
  %11 = landingpad { ptr, i32 }
          cleanup, !dbg !1583
  %12 = extractvalue { ptr, i32 } %11, 0, !dbg !1583
  store ptr %12, ptr %5, align 8, !dbg !1583
  %13 = extractvalue { ptr, i32 } %11, 1, !dbg !1583
  store i32 %13, ptr %6, align 4, !dbg !1583
  call void @_ZdlPv(ptr noundef %7) #17, !dbg !1566
  br label %14, !dbg !1566

14:                                               ; preds = %10
  %15 = load ptr, ptr %5, align 8, !dbg !1566
  %16 = load i32, ptr %6, align 4, !dbg !1566
  %17 = insertvalue { ptr, i32 } poison, ptr %15, 0, !dbg !1566
  %18 = insertvalue { ptr, i32 } %17, i32 %16, 1, !dbg !1566
  resume { ptr, i32 } %18, !dbg !1566
}

; Function Attrs: mustprogress noinline optnone uwtable
define linkonce_odr dso_local void @_ZNSt6thread14__make_invokerIRFvvEJEEENS_8_InvokerISt5tupleIJNSt5decayIT_E4typeEDpNS5_IT0_E4typeEEEEEOS6_DpOS9_(ptr noalias sret(%"struct.std::thread::_Invoker") align 8 %0, ptr noundef nonnull %1) #4 comdat align 2 !dbg !1584 {
  %3 = alloca ptr, align 8
  %4 = alloca ptr, align 8
  %5 = alloca ptr, align 8
  store ptr %0, ptr %3, align 8
  store ptr %1, ptr %4, align 8
  call void @llvm.dbg.declare(metadata ptr %4, metadata !1589, metadata !DIExpression()), !dbg !1590
  %6 = getelementptr inbounds %"struct.std::thread::_Invoker", ptr %0, i32 0, i32 0, !dbg !1591
  %7 = load ptr, ptr %4, align 8, !dbg !1592
  store ptr %7, ptr %5, align 8, !dbg !1593
  call void @_ZNSt5tupleIJPFvvEEEC2IvLb1EEERKS1_(ptr noundef nonnull align 8 dereferenceable(8) %6, ptr noundef nonnull align 8 dereferenceable(8) %5), !dbg !1594
  ret void, !dbg !1595
}

; Function Attrs: noinline nounwind optnone uwtable
define linkonce_odr dso_local void @_ZNSt10unique_ptrINSt6thread6_StateESt14default_deleteIS1_EED2Ev(ptr noundef nonnull align 8 dereferenceable(8) %0) unnamed_addr #8 comdat align 2 personality ptr @__gxx_personality_v0 !dbg !1596 {
  %2 = alloca ptr, align 8
  %3 = alloca ptr, align 8
  store ptr %0, ptr %2, align 8
  call void @llvm.dbg.declare(metadata ptr %2, metadata !1597, metadata !DIExpression()), !dbg !1599
  %4 = load ptr, ptr %2, align 8
  call void @llvm.dbg.declare(metadata ptr %3, metadata !1600, metadata !DIExpression()), !dbg !1602
  %5 = getelementptr inbounds %"class.std::unique_ptr", ptr %4, i32 0, i32 0, !dbg !1603
  %6 = call noundef nonnull align 8 dereferenceable(8) ptr @_ZNSt15__uniq_ptr_implINSt6thread6_StateESt14default_deleteIS1_EE6_M_ptrEv(ptr noundef nonnull align 8 dereferenceable(8) %5), !dbg !1604
  store ptr %6, ptr %3, align 8, !dbg !1602
  %7 = load ptr, ptr %3, align 8, !dbg !1605
  %8 = load ptr, ptr %7, align 8, !dbg !1605
  %9 = icmp ne ptr %8, null, !dbg !1607
  br i1 %9, label %10, label %15, !dbg !1608

10:                                               ; preds = %1
  %11 = call noundef nonnull align 1 dereferenceable(1) ptr @_ZNSt10unique_ptrINSt6thread6_StateESt14default_deleteIS1_EE11get_deleterEv(ptr noundef nonnull align 8 dereferenceable(8) %4) #3, !dbg !1609
  %12 = load ptr, ptr %3, align 8, !dbg !1610
  %13 = load ptr, ptr %12, align 8, !dbg !1611
  invoke void @_ZNKSt14default_deleteINSt6thread6_StateEEclEPS1_(ptr noundef nonnull align 1 dereferenceable(1) %11, ptr noundef %13)
          to label %14 unwind label %17, !dbg !1609

14:                                               ; preds = %10
  br label %15, !dbg !1609

15:                                               ; preds = %14, %1
  %16 = load ptr, ptr %3, align 8, !dbg !1612
  store ptr null, ptr %16, align 8, !dbg !1613
  ret void, !dbg !1614

17:                                               ; preds = %10
  %18 = landingpad { ptr, i32 }
          catch ptr null, !dbg !1609
  %19 = extractvalue { ptr, i32 } %18, 0, !dbg !1609
  call void @__clang_call_terminate(ptr %19) #15, !dbg !1609
  unreachable, !dbg !1609
}

; Function Attrs: nobuiltin allocsize(0)
declare noundef nonnull ptr @_Znwm(i64 noundef) #12

; Function Attrs: noinline nounwind optnone uwtable
define linkonce_odr dso_local void @_ZNSt6thread11_State_implINS_8_InvokerISt5tupleIJPFvvEEEEEEC2EOS6_(ptr noundef nonnull align 8 dereferenceable(16) %0, ptr noundef nonnull align 8 dereferenceable(8) %1) unnamed_addr #8 comdat align 2 !dbg !1615 {
  %3 = alloca ptr, align 8
  %4 = alloca ptr, align 8
  store ptr %0, ptr %3, align 8
  call void @llvm.dbg.declare(metadata ptr %3, metadata !1616, metadata !DIExpression()), !dbg !1618
  store ptr %1, ptr %4, align 8
  call void @llvm.dbg.declare(metadata ptr %4, metadata !1619, metadata !DIExpression()), !dbg !1620
  %5 = load ptr, ptr %3, align 8
  call void @_ZNSt6thread6_StateC2Ev(ptr noundef nonnull align 8 dereferenceable(8) %5) #3, !dbg !1621
  store ptr getelementptr inbounds ({ [5 x ptr] }, ptr @_ZTVNSt6thread11_State_implINS_8_InvokerISt5tupleIJPFvvEEEEEEE, i32 0, inrange i32 0, i32 2), ptr %5, align 8, !dbg !1622
  %6 = getelementptr inbounds %"struct.std::thread::_State_impl", ptr %5, i32 0, i32 1, !dbg !1623
  %7 = load ptr, ptr %4, align 8, !dbg !1624
  call void @_ZNSt6thread8_InvokerISt5tupleIJPFvvEEEEC2EOS5_(ptr noundef nonnull align 8 dereferenceable(8) %6, ptr noundef nonnull align 8 dereferenceable(8) %7) #3, !dbg !1623
  ret void, !dbg !1625
}

; Function Attrs: nobuiltin nounwind
declare void @_ZdlPv(ptr noundef) #13

; Function Attrs: noinline nounwind optnone uwtable
define linkonce_odr dso_local void @_ZNSt10unique_ptrINSt6thread6_StateESt14default_deleteIS1_EEC2IS3_vEEPS1_(ptr noundef nonnull align 8 dereferenceable(8) %0, ptr noundef %1) unnamed_addr #8 comdat align 2 personality ptr @__gxx_personality_v0 !dbg !1626 {
  %3 = alloca ptr, align 8
  %4 = alloca ptr, align 8
  store ptr %0, ptr %3, align 8
  call void @llvm.dbg.declare(metadata ptr %3, metadata !1630, metadata !DIExpression()), !dbg !1631
  store ptr %1, ptr %4, align 8
  call void @llvm.dbg.declare(metadata ptr %4, metadata !1632, metadata !DIExpression()), !dbg !1633
  %5 = load ptr, ptr %3, align 8
  %6 = getelementptr inbounds %"class.std::unique_ptr", ptr %5, i32 0, i32 0, !dbg !1634
  %7 = load ptr, ptr %4, align 8, !dbg !1635
  invoke void @_ZNSt15__uniq_ptr_implINSt6thread6_StateESt14default_deleteIS1_EEC2EPS1_(ptr noundef nonnull align 8 dereferenceable(8) %6, ptr noundef %7)
          to label %8 unwind label %9, !dbg !1634

8:                                                ; preds = %2
  ret void, !dbg !1636

9:                                                ; preds = %2
  %10 = landingpad { ptr, i32 }
          catch ptr null, !dbg !1634
  %11 = extractvalue { ptr, i32 } %10, 0, !dbg !1634
  call void @__clang_call_terminate(ptr %11) #15, !dbg !1634
  unreachable, !dbg !1634
}

; Function Attrs: noinline nounwind optnone uwtable
define linkonce_odr dso_local void @_ZNSt6thread6_StateC2Ev(ptr noundef nonnull align 8 dereferenceable(8) %0) unnamed_addr #8 comdat align 2 !dbg !1637 {
  %2 = alloca ptr, align 8
  store ptr %0, ptr %2, align 8
  call void @llvm.dbg.declare(metadata ptr %2, metadata !1642, metadata !DIExpression()), !dbg !1643
  %3 = load ptr, ptr %2, align 8
  store ptr getelementptr inbounds ({ [5 x ptr] }, ptr @_ZTVNSt6thread6_StateE, i32 0, inrange i32 0, i32 2), ptr %3, align 8, !dbg !1644
  ret void, !dbg !1644
}

; Function Attrs: noinline nounwind optnone uwtable
define linkonce_odr dso_local void @_ZNSt6thread8_InvokerISt5tupleIJPFvvEEEEC2EOS5_(ptr noundef nonnull align 8 dereferenceable(8) %0, ptr noundef nonnull align 8 dereferenceable(8) %1) unnamed_addr #8 comdat align 2 !dbg !1645 {
  %3 = alloca ptr, align 8
  %4 = alloca ptr, align 8
  store ptr %0, ptr %3, align 8
  call void @llvm.dbg.declare(metadata ptr %3, metadata !1649, metadata !DIExpression()), !dbg !1651
  store ptr %1, ptr %4, align 8
  call void @llvm.dbg.declare(metadata ptr %4, metadata !1652, metadata !DIExpression()), !dbg !1651
  %5 = load ptr, ptr %3, align 8
  %6 = getelementptr inbounds %"struct.std::thread::_Invoker", ptr %5, i32 0, i32 0, !dbg !1653
  %7 = load ptr, ptr %4, align 8, !dbg !1653
  %8 = getelementptr inbounds %"struct.std::thread::_Invoker", ptr %7, i32 0, i32 0, !dbg !1653
  call void @_ZNSt5tupleIJPFvvEEEC2EOS2_(ptr noundef nonnull align 8 dereferenceable(8) %6, ptr noundef nonnull align 8 dereferenceable(8) %8) #3, !dbg !1653
  ret void, !dbg !1653
}

; Function Attrs: noinline nounwind optnone uwtable
define linkonce_odr dso_local void @_ZNSt6thread11_State_implINS_8_InvokerISt5tupleIJPFvvEEEEEED2Ev(ptr noundef nonnull align 8 dereferenceable(16) %0) unnamed_addr #8 comdat align 2 !dbg !1654 {
  %2 = alloca ptr, align 8
  store ptr %0, ptr %2, align 8
  call void @llvm.dbg.declare(metadata ptr %2, metadata !1656, metadata !DIExpression()), !dbg !1657
  %3 = load ptr, ptr %2, align 8
  call void @_ZNSt6thread6_StateD2Ev(ptr noundef nonnull align 8 dereferenceable(8) %3) #3, !dbg !1658
  ret void, !dbg !1660
}

; Function Attrs: noinline nounwind optnone uwtable
define linkonce_odr dso_local void @_ZNSt6thread11_State_implINS_8_InvokerISt5tupleIJPFvvEEEEEED0Ev(ptr noundef nonnull align 8 dereferenceable(16) %0) unnamed_addr #8 comdat align 2 !dbg !1661 {
  %2 = alloca ptr, align 8
  store ptr %0, ptr %2, align 8
  call void @llvm.dbg.declare(metadata ptr %2, metadata !1662, metadata !DIExpression()), !dbg !1663
  %3 = load ptr, ptr %2, align 8
  call void @_ZNSt6thread11_State_implINS_8_InvokerISt5tupleIJPFvvEEEEEED2Ev(ptr noundef nonnull align 8 dereferenceable(16) %3) #3, !dbg !1664
  call void @_ZdlPv(ptr noundef %3) #17, !dbg !1664
  ret void, !dbg !1664
}

; Function Attrs: mustprogress noinline optnone uwtable
define linkonce_odr dso_local void @_ZNSt6thread11_State_implINS_8_InvokerISt5tupleIJPFvvEEEEEE6_M_runEv(ptr noundef nonnull align 8 dereferenceable(16) %0) unnamed_addr #4 comdat align 2 !dbg !1665 {
  %2 = alloca ptr, align 8
  store ptr %0, ptr %2, align 8
  call void @llvm.dbg.declare(metadata ptr %2, metadata !1666, metadata !DIExpression()), !dbg !1667
  %3 = load ptr, ptr %2, align 8
  %4 = getelementptr inbounds %"struct.std::thread::_State_impl", ptr %3, i32 0, i32 1, !dbg !1668
  call void @_ZNSt6thread8_InvokerISt5tupleIJPFvvEEEEclEv(ptr noundef nonnull align 8 dereferenceable(8) %4), !dbg !1668
  ret void, !dbg !1669
}

; Function Attrs: noinline nounwind optnone uwtable
define linkonce_odr dso_local void @_ZNSt5tupleIJPFvvEEEC2EOS2_(ptr noundef nonnull align 8 dereferenceable(8) %0, ptr noundef nonnull align 8 dereferenceable(8) %1) unnamed_addr #8 comdat align 2 !dbg !1670 {
  %3 = alloca ptr, align 8
  %4 = alloca ptr, align 8
  store ptr %0, ptr %3, align 8
  call void @llvm.dbg.declare(metadata ptr %3, metadata !1671, metadata !DIExpression()), !dbg !1673
  store ptr %1, ptr %4, align 8
  call void @llvm.dbg.declare(metadata ptr %4, metadata !1674, metadata !DIExpression()), !dbg !1675
  %5 = load ptr, ptr %3, align 8
  %6 = load ptr, ptr %4, align 8, !dbg !1676
  call void @_ZNSt11_Tuple_implILm0EJPFvvEEEC2EOS2_(ptr noundef nonnull align 8 dereferenceable(8) %5, ptr noundef nonnull align 8 dereferenceable(8) %6) #3, !dbg !1676
  ret void, !dbg !1677
}

; Function Attrs: noinline nounwind optnone uwtable
define linkonce_odr dso_local void @_ZNSt11_Tuple_implILm0EJPFvvEEEC2EOS2_(ptr noundef nonnull align 8 dereferenceable(8) %0, ptr noundef nonnull align 8 dereferenceable(8) %1) unnamed_addr #8 comdat align 2 personality ptr @__gxx_personality_v0 !dbg !1678 {
  %3 = alloca ptr, align 8
  %4 = alloca ptr, align 8
  store ptr %0, ptr %3, align 8
  call void @llvm.dbg.declare(metadata ptr %3, metadata !1679, metadata !DIExpression()), !dbg !1681
  store ptr %1, ptr %4, align 8
  call void @llvm.dbg.declare(metadata ptr %4, metadata !1682, metadata !DIExpression()), !dbg !1683
  %5 = load ptr, ptr %3, align 8
  %6 = load ptr, ptr %4, align 8, !dbg !1684
  %7 = call noundef nonnull align 8 dereferenceable(8) ptr @_ZNSt11_Tuple_implILm0EJPFvvEEE7_M_headERS2_(ptr noundef nonnull align 8 dereferenceable(8) %6) #3, !dbg !1685
  invoke void @_ZNSt10_Head_baseILm0EPFvvELb0EEC2IS1_EEOT_(ptr noundef nonnull align 8 dereferenceable(8) %5, ptr noundef nonnull align 8 dereferenceable(8) %7)
          to label %8 unwind label %9, !dbg !1686

8:                                                ; preds = %2
  ret void, !dbg !1687

9:                                                ; preds = %2
  %10 = landingpad { ptr, i32 }
          catch ptr null, !dbg !1686
  %11 = extractvalue { ptr, i32 } %10, 0, !dbg !1686
  call void @__clang_call_terminate(ptr %11) #15, !dbg !1686
  unreachable, !dbg !1686
}

; Function Attrs: mustprogress noinline nounwind optnone uwtable
define linkonce_odr dso_local noundef nonnull align 8 dereferenceable(8) ptr @_ZNSt11_Tuple_implILm0EJPFvvEEE7_M_headERS2_(ptr noundef nonnull align 8 dereferenceable(8) %0) #9 comdat align 2 !dbg !1688 {
  %2 = alloca ptr, align 8
  store ptr %0, ptr %2, align 8
  call void @llvm.dbg.declare(metadata ptr %2, metadata !1689, metadata !DIExpression()), !dbg !1690
  %3 = load ptr, ptr %2, align 8, !dbg !1691
  %4 = call noundef nonnull align 8 dereferenceable(8) ptr @_ZNSt10_Head_baseILm0EPFvvELb0EE7_M_headERS2_(ptr noundef nonnull align 8 dereferenceable(8) %3) #3, !dbg !1692
  ret ptr %4, !dbg !1693
}

; Function Attrs: noinline nounwind optnone uwtable
define linkonce_odr dso_local void @_ZNSt10_Head_baseILm0EPFvvELb0EEC2IS1_EEOT_(ptr noundef nonnull align 8 dereferenceable(8) %0, ptr noundef nonnull align 8 dereferenceable(8) %1) unnamed_addr #8 comdat align 2 !dbg !1694 {
  %3 = alloca ptr, align 8
  %4 = alloca ptr, align 8
  store ptr %0, ptr %3, align 8
  call void @llvm.dbg.declare(metadata ptr %3, metadata !1700, metadata !DIExpression()), !dbg !1702
  store ptr %1, ptr %4, align 8
  call void @llvm.dbg.declare(metadata ptr %4, metadata !1703, metadata !DIExpression()), !dbg !1704
  %5 = load ptr, ptr %3, align 8
  %6 = getelementptr inbounds %"struct.std::_Head_base.4", ptr %5, i32 0, i32 0, !dbg !1705
  %7 = load ptr, ptr %4, align 8, !dbg !1706
  %8 = load ptr, ptr %7, align 8, !dbg !1707
  store ptr %8, ptr %6, align 8, !dbg !1705
  ret void, !dbg !1708
}

; Function Attrs: noinline noreturn nounwind uwtable
define linkonce_odr hidden void @__clang_call_terminate(ptr noundef %0) #14 comdat {
  %2 = call ptr @__cxa_begin_catch(ptr %0) #3
  call void @_ZSt9terminatev() #15
  unreachable
}

declare ptr @__cxa_begin_catch(ptr)

; Function Attrs: mustprogress noinline nounwind optnone uwtable
define linkonce_odr dso_local noundef nonnull align 8 dereferenceable(8) ptr @_ZNSt10_Head_baseILm0EPFvvELb0EE7_M_headERS2_(ptr noundef nonnull align 8 dereferenceable(8) %0) #9 comdat align 2 !dbg !1709 {
  %2 = alloca ptr, align 8
  store ptr %0, ptr %2, align 8
  call void @llvm.dbg.declare(metadata ptr %2, metadata !1710, metadata !DIExpression()), !dbg !1711
  %3 = load ptr, ptr %2, align 8, !dbg !1712
  %4 = getelementptr inbounds %"struct.std::_Head_base.4", ptr %3, i32 0, i32 0, !dbg !1713
  ret ptr %4, !dbg !1714
}

; Function Attrs: nounwind
declare void @_ZNSt6thread6_StateD2Ev(ptr noundef nonnull align 8 dereferenceable(8)) unnamed_addr #2

; Function Attrs: mustprogress noinline optnone uwtable
define linkonce_odr dso_local void @_ZNSt6thread8_InvokerISt5tupleIJPFvvEEEEclEv(ptr noundef nonnull align 8 dereferenceable(8) %0) #4 comdat align 2 !dbg !1715 {
  %2 = alloca ptr, align 8
  %3 = alloca %"struct.std::_Index_tuple", align 1
  store ptr %0, ptr %2, align 8
  call void @llvm.dbg.declare(metadata ptr %2, metadata !1716, metadata !DIExpression()), !dbg !1717
  %4 = load ptr, ptr %2, align 8
  call void @_ZNSt6thread8_InvokerISt5tupleIJPFvvEEEE9_M_invokeIJLm0EEEEvSt12_Index_tupleIJXspT_EEE(ptr noundef nonnull align 8 dereferenceable(8) %4), !dbg !1718
  ret void, !dbg !1719
}

; Function Attrs: mustprogress noinline optnone uwtable
define linkonce_odr dso_local void @_ZNSt6thread8_InvokerISt5tupleIJPFvvEEEE9_M_invokeIJLm0EEEEvSt12_Index_tupleIJXspT_EEE(ptr noundef nonnull align 8 dereferenceable(8) %0) #4 comdat align 2 !dbg !1720 {
  %2 = alloca %"struct.std::_Index_tuple", align 1
  %3 = alloca ptr, align 8
  store ptr %0, ptr %3, align 8
  call void @llvm.dbg.declare(metadata ptr %3, metadata !1732, metadata !DIExpression()), !dbg !1733
  call void @llvm.dbg.declare(metadata ptr %2, metadata !1734, metadata !DIExpression()), !dbg !1735
  %4 = load ptr, ptr %3, align 8
  %5 = getelementptr inbounds %"struct.std::thread::_Invoker", ptr %4, i32 0, i32 0, !dbg !1736
  %6 = call noundef nonnull align 8 dereferenceable(8) ptr @_ZSt3getILm0EJPFvvEEEONSt13tuple_elementIXT_ESt5tupleIJDpT0_EEE4typeEOS6_(ptr noundef nonnull align 8 dereferenceable(8) %5) #3, !dbg !1737
  call void @_ZSt8__invokeIPFvvEJEENSt15__invoke_resultIT_JDpT0_EE4typeEOS3_DpOS4_(ptr noundef nonnull align 8 dereferenceable(8) %6), !dbg !1738
  ret void, !dbg !1739
}

; Function Attrs: mustprogress noinline optnone uwtable
define linkonce_odr dso_local void @_ZSt8__invokeIPFvvEJEENSt15__invoke_resultIT_JDpT0_EE4typeEOS3_DpOS4_(ptr noundef nonnull align 8 dereferenceable(8) %0) #4 comdat !dbg !34 {
  %2 = alloca ptr, align 8
  %3 = alloca %"struct.std::__invoke_other", align 1
  store ptr %0, ptr %2, align 8
  call void @llvm.dbg.declare(metadata ptr %2, metadata !1740, metadata !DIExpression()), !dbg !1741
  %4 = load ptr, ptr %2, align 8, !dbg !1742
  call void @_ZSt13__invoke_implIvPFvvEJEET_St14__invoke_otherOT0_DpOT1_(ptr noundef nonnull align 8 dereferenceable(8) %4), !dbg !1743
  ret void, !dbg !1744
}

; Function Attrs: mustprogress noinline nounwind optnone uwtable
define linkonce_odr dso_local noundef nonnull align 8 dereferenceable(8) ptr @_ZSt3getILm0EJPFvvEEEONSt13tuple_elementIXT_ESt5tupleIJDpT0_EEE4typeEOS6_(ptr noundef nonnull align 8 dereferenceable(8) %0) #9 comdat !dbg !1745 {
  %2 = alloca ptr, align 8
  store ptr %0, ptr %2, align 8
  call void @llvm.dbg.declare(metadata ptr %2, metadata !1757, metadata !DIExpression()), !dbg !1758
  %3 = load ptr, ptr %2, align 8, !dbg !1759
  %4 = call noundef nonnull align 8 dereferenceable(8) ptr @_ZSt3getILm0EJPFvvEEERNSt13tuple_elementIXT_ESt5tupleIJDpT0_EEE4typeERS6_(ptr noundef nonnull align 8 dereferenceable(8) %3) #3, !dbg !1760
  ret ptr %4, !dbg !1761
}

; Function Attrs: mustprogress noinline optnone uwtable
define linkonce_odr dso_local void @_ZSt13__invoke_implIvPFvvEJEET_St14__invoke_otherOT0_DpOT1_(ptr noundef nonnull align 8 dereferenceable(8) %0) #4 comdat !dbg !1762 {
  %2 = alloca %"struct.std::__invoke_other", align 1
  %3 = alloca ptr, align 8
  call void @llvm.dbg.declare(metadata ptr %2, metadata !1768, metadata !DIExpression()), !dbg !1769
  store ptr %0, ptr %3, align 8
  call void @llvm.dbg.declare(metadata ptr %3, metadata !1770, metadata !DIExpression()), !dbg !1771
  %4 = load ptr, ptr %3, align 8, !dbg !1772
  %5 = load ptr, ptr %4, align 8, !dbg !1773
  call void %5(), !dbg !1773
  ret void, !dbg !1774
}

; Function Attrs: mustprogress noinline nounwind optnone uwtable
define linkonce_odr dso_local noundef nonnull align 8 dereferenceable(8) ptr @_ZSt3getILm0EJPFvvEEERNSt13tuple_elementIXT_ESt5tupleIJDpT0_EEE4typeERS6_(ptr noundef nonnull align 8 dereferenceable(8) %0) #9 comdat !dbg !1775 {
  %2 = alloca ptr, align 8
  store ptr %0, ptr %2, align 8
  call void @llvm.dbg.declare(metadata ptr %2, metadata !1779, metadata !DIExpression()), !dbg !1780
  %3 = load ptr, ptr %2, align 8, !dbg !1781
  %4 = call noundef nonnull align 8 dereferenceable(8) ptr @_ZSt12__get_helperILm0EPFvvEJEERT0_RSt11_Tuple_implIXT_EJS2_DpT1_EE(ptr noundef nonnull align 8 dereferenceable(8) %3) #3, !dbg !1782
  ret ptr %4, !dbg !1783
}

; Function Attrs: mustprogress noinline nounwind optnone uwtable
define linkonce_odr dso_local noundef nonnull align 8 dereferenceable(8) ptr @_ZSt12__get_helperILm0EPFvvEJEERT0_RSt11_Tuple_implIXT_EJS2_DpT1_EE(ptr noundef nonnull align 8 dereferenceable(8) %0) #9 comdat !dbg !1784 {
  %2 = alloca ptr, align 8
  store ptr %0, ptr %2, align 8
  call void @llvm.dbg.declare(metadata ptr %2, metadata !1787, metadata !DIExpression()), !dbg !1788
  %3 = load ptr, ptr %2, align 8, !dbg !1789
  %4 = call noundef nonnull align 8 dereferenceable(8) ptr @_ZNSt11_Tuple_implILm0EJPFvvEEE7_M_headERS2_(ptr noundef nonnull align 8 dereferenceable(8) %3) #3, !dbg !1790
  ret ptr %4, !dbg !1791
}

; Function Attrs: noinline optnone uwtable
define linkonce_odr dso_local void @_ZNSt15__uniq_ptr_implINSt6thread6_StateESt14default_deleteIS1_EEC2EPS1_(ptr noundef nonnull align 8 dereferenceable(8) %0, ptr noundef %1) unnamed_addr #7 comdat align 2 !dbg !1792 {
  %3 = alloca ptr, align 8
  %4 = alloca ptr, align 8
  store ptr %0, ptr %3, align 8
  call void @llvm.dbg.declare(metadata ptr %3, metadata !1793, metadata !DIExpression()), !dbg !1795
  store ptr %1, ptr %4, align 8
  call void @llvm.dbg.declare(metadata ptr %4, metadata !1796, metadata !DIExpression()), !dbg !1797
  %5 = load ptr, ptr %3, align 8
  %6 = getelementptr inbounds %"class.std::__uniq_ptr_impl", ptr %5, i32 0, i32 0, !dbg !1798
  call void @_ZNSt5tupleIJPNSt6thread6_StateESt14default_deleteIS1_EEEC2IS2_S4_Lb1EEEv(ptr noundef nonnull align 8 dereferenceable(8) %6), !dbg !1798
  %7 = load ptr, ptr %4, align 8, !dbg !1799
  %8 = call noundef nonnull align 8 dereferenceable(8) ptr @_ZNSt15__uniq_ptr_implINSt6thread6_StateESt14default_deleteIS1_EE6_M_ptrEv(ptr noundef nonnull align 8 dereferenceable(8) %5), !dbg !1801
  store ptr %7, ptr %8, align 8, !dbg !1802
  ret void, !dbg !1803
}

; Function Attrs: noinline optnone uwtable
define linkonce_odr dso_local void @_ZNSt5tupleIJPNSt6thread6_StateESt14default_deleteIS1_EEEC2IS2_S4_Lb1EEEv(ptr noundef nonnull align 8 dereferenceable(8) %0) unnamed_addr #7 comdat align 2 !dbg !1804 {
  %2 = alloca ptr, align 8
  store ptr %0, ptr %2, align 8
  call void @llvm.dbg.declare(metadata ptr %2, metadata !1812, metadata !DIExpression()), !dbg !1814
  %3 = load ptr, ptr %2, align 8
  call void @_ZNSt11_Tuple_implILm0EJPNSt6thread6_StateESt14default_deleteIS1_EEEC2Ev(ptr noundef nonnull align 8 dereferenceable(8) %3), !dbg !1815
  ret void, !dbg !1816
}

; Function Attrs: mustprogress noinline nounwind optnone uwtable
define linkonce_odr dso_local noundef nonnull align 8 dereferenceable(8) ptr @_ZNSt15__uniq_ptr_implINSt6thread6_StateESt14default_deleteIS1_EE6_M_ptrEv(ptr noundef nonnull align 8 dereferenceable(8) %0) #9 comdat align 2 !dbg !1817 {
  %2 = alloca ptr, align 8
  store ptr %0, ptr %2, align 8
  call void @llvm.dbg.declare(metadata ptr %2, metadata !1818, metadata !DIExpression()), !dbg !1819
  %3 = load ptr, ptr %2, align 8
  %4 = getelementptr inbounds %"class.std::__uniq_ptr_impl", ptr %3, i32 0, i32 0, !dbg !1820
  %5 = call noundef nonnull align 8 dereferenceable(8) ptr @_ZSt3getILm0EJPNSt6thread6_StateESt14default_deleteIS1_EEERNSt13tuple_elementIXT_ESt5tupleIJDpT0_EEE4typeERS9_(ptr noundef nonnull align 8 dereferenceable(8) %4) #3, !dbg !1821
  ret ptr %5, !dbg !1822
}

; Function Attrs: noinline optnone uwtable
define linkonce_odr dso_local void @_ZNSt11_Tuple_implILm0EJPNSt6thread6_StateESt14default_deleteIS1_EEEC2Ev(ptr noundef nonnull align 8 dereferenceable(8) %0) unnamed_addr #7 comdat align 2 !dbg !1823 {
  %2 = alloca ptr, align 8
  store ptr %0, ptr %2, align 8
  call void @llvm.dbg.declare(metadata ptr %2, metadata !1824, metadata !DIExpression()), !dbg !1826
  %3 = load ptr, ptr %2, align 8
  call void @_ZNSt11_Tuple_implILm1EJSt14default_deleteINSt6thread6_StateEEEEC2Ev(ptr noundef nonnull align 1 dereferenceable(1) %3), !dbg !1827
  call void @_ZNSt10_Head_baseILm0EPNSt6thread6_StateELb0EEC2Ev(ptr noundef nonnull align 8 dereferenceable(8) %3), !dbg !1828
  ret void, !dbg !1829
}

; Function Attrs: noinline optnone uwtable
define linkonce_odr dso_local void @_ZNSt11_Tuple_implILm1EJSt14default_deleteINSt6thread6_StateEEEEC2Ev(ptr noundef nonnull align 1 dereferenceable(1) %0) unnamed_addr #7 comdat align 2 !dbg !1830 {
  %2 = alloca ptr, align 8
  store ptr %0, ptr %2, align 8
  call void @llvm.dbg.declare(metadata ptr %2, metadata !1831, metadata !DIExpression()), !dbg !1833
  %3 = load ptr, ptr %2, align 8
  call void @_ZNSt10_Head_baseILm1ESt14default_deleteINSt6thread6_StateEELb1EEC2Ev(ptr noundef nonnull align 1 dereferenceable(1) %3), !dbg !1834
  ret void, !dbg !1835
}

; Function Attrs: noinline nounwind optnone uwtable
define linkonce_odr dso_local void @_ZNSt10_Head_baseILm0EPNSt6thread6_StateELb0EEC2Ev(ptr noundef nonnull align 8 dereferenceable(8) %0) unnamed_addr #8 comdat align 2 !dbg !1836 {
  %2 = alloca ptr, align 8
  store ptr %0, ptr %2, align 8
  call void @llvm.dbg.declare(metadata ptr %2, metadata !1837, metadata !DIExpression()), !dbg !1839
  %3 = load ptr, ptr %2, align 8
  %4 = getelementptr inbounds %"struct.std::_Head_base.1", ptr %3, i32 0, i32 0, !dbg !1840
  store ptr null, ptr %4, align 8, !dbg !1840
  ret void, !dbg !1841
}

; Function Attrs: noinline nounwind optnone uwtable
define linkonce_odr dso_local void @_ZNSt10_Head_baseILm1ESt14default_deleteINSt6thread6_StateEELb1EEC2Ev(ptr noundef nonnull align 1 dereferenceable(1) %0) unnamed_addr #8 comdat align 2 !dbg !1842 {
  %2 = alloca ptr, align 8
  store ptr %0, ptr %2, align 8
  call void @llvm.dbg.declare(metadata ptr %2, metadata !1843, metadata !DIExpression()), !dbg !1845
  %3 = load ptr, ptr %2, align 8
  ret void, !dbg !1846
}

; Function Attrs: mustprogress noinline nounwind optnone uwtable
define linkonce_odr dso_local noundef nonnull align 8 dereferenceable(8) ptr @_ZSt3getILm0EJPNSt6thread6_StateESt14default_deleteIS1_EEERNSt13tuple_elementIXT_ESt5tupleIJDpT0_EEE4typeERS9_(ptr noundef nonnull align 8 dereferenceable(8) %0) #9 comdat !dbg !1847 {
  %2 = alloca ptr, align 8
  store ptr %0, ptr %2, align 8
  call void @llvm.dbg.declare(metadata ptr %2, metadata !1857, metadata !DIExpression()), !dbg !1858
  %3 = load ptr, ptr %2, align 8, !dbg !1859
  %4 = call noundef nonnull align 8 dereferenceable(8) ptr @_ZSt12__get_helperILm0EPNSt6thread6_StateEJSt14default_deleteIS1_EEERT0_RSt11_Tuple_implIXT_EJS5_DpT1_EE(ptr noundef nonnull align 8 dereferenceable(8) %3) #3, !dbg !1860
  ret ptr %4, !dbg !1861
}

; Function Attrs: mustprogress noinline nounwind optnone uwtable
define linkonce_odr dso_local noundef nonnull align 8 dereferenceable(8) ptr @_ZSt12__get_helperILm0EPNSt6thread6_StateEJSt14default_deleteIS1_EEERT0_RSt11_Tuple_implIXT_EJS5_DpT1_EE(ptr noundef nonnull align 8 dereferenceable(8) %0) #9 comdat !dbg !1862 {
  %2 = alloca ptr, align 8
  store ptr %0, ptr %2, align 8
  call void @llvm.dbg.declare(metadata ptr %2, metadata !1865, metadata !DIExpression()), !dbg !1866
  %3 = load ptr, ptr %2, align 8, !dbg !1867
  %4 = call noundef nonnull align 8 dereferenceable(8) ptr @_ZNSt11_Tuple_implILm0EJPNSt6thread6_StateESt14default_deleteIS1_EEE7_M_headERS5_(ptr noundef nonnull align 8 dereferenceable(8) %3) #3, !dbg !1868
  ret ptr %4, !dbg !1869
}

; Function Attrs: mustprogress noinline nounwind optnone uwtable
define linkonce_odr dso_local noundef nonnull align 8 dereferenceable(8) ptr @_ZNSt11_Tuple_implILm0EJPNSt6thread6_StateESt14default_deleteIS1_EEE7_M_headERS5_(ptr noundef nonnull align 8 dereferenceable(8) %0) #9 comdat align 2 !dbg !1870 {
  %2 = alloca ptr, align 8
  store ptr %0, ptr %2, align 8
  call void @llvm.dbg.declare(metadata ptr %2, metadata !1871, metadata !DIExpression()), !dbg !1872
  %3 = load ptr, ptr %2, align 8, !dbg !1873
  %4 = call noundef nonnull align 8 dereferenceable(8) ptr @_ZNSt10_Head_baseILm0EPNSt6thread6_StateELb0EE7_M_headERS3_(ptr noundef nonnull align 8 dereferenceable(8) %3) #3, !dbg !1874
  ret ptr %4, !dbg !1875
}

; Function Attrs: mustprogress noinline nounwind optnone uwtable
define linkonce_odr dso_local noundef nonnull align 8 dereferenceable(8) ptr @_ZNSt10_Head_baseILm0EPNSt6thread6_StateELb0EE7_M_headERS3_(ptr noundef nonnull align 8 dereferenceable(8) %0) #9 comdat align 2 !dbg !1876 {
  %2 = alloca ptr, align 8
  store ptr %0, ptr %2, align 8
  call void @llvm.dbg.declare(metadata ptr %2, metadata !1877, metadata !DIExpression()), !dbg !1878
  %3 = load ptr, ptr %2, align 8, !dbg !1879
  %4 = getelementptr inbounds %"struct.std::_Head_base.1", ptr %3, i32 0, i32 0, !dbg !1880
  ret ptr %4, !dbg !1881
}

; Function Attrs: noinline optnone uwtable
define linkonce_odr dso_local void @_ZNSt5tupleIJPFvvEEEC2IvLb1EEERKS1_(ptr noundef nonnull align 8 dereferenceable(8) %0, ptr noundef nonnull align 8 dereferenceable(8) %1) unnamed_addr #7 comdat align 2 !dbg !1882 {
  %3 = alloca ptr, align 8
  %4 = alloca ptr, align 8
  store ptr %0, ptr %3, align 8
  call void @llvm.dbg.declare(metadata ptr %3, metadata !1888, metadata !DIExpression()), !dbg !1889
  store ptr %1, ptr %4, align 8
  call void @llvm.dbg.declare(metadata ptr %4, metadata !1890, metadata !DIExpression()), !dbg !1891
  %5 = load ptr, ptr %3, align 8
  %6 = load ptr, ptr %4, align 8, !dbg !1892
  call void @_ZNSt11_Tuple_implILm0EJPFvvEEEC2ERKS1_(ptr noundef nonnull align 8 dereferenceable(8) %5, ptr noundef nonnull align 8 dereferenceable(8) %6), !dbg !1893
  ret void, !dbg !1894
}

; Function Attrs: noinline optnone uwtable
define linkonce_odr dso_local void @_ZNSt11_Tuple_implILm0EJPFvvEEEC2ERKS1_(ptr noundef nonnull align 8 dereferenceable(8) %0, ptr noundef nonnull align 8 dereferenceable(8) %1) unnamed_addr #7 comdat align 2 !dbg !1895 {
  %3 = alloca ptr, align 8
  %4 = alloca ptr, align 8
  store ptr %0, ptr %3, align 8
  call void @llvm.dbg.declare(metadata ptr %3, metadata !1896, metadata !DIExpression()), !dbg !1897
  store ptr %1, ptr %4, align 8
  call void @llvm.dbg.declare(metadata ptr %4, metadata !1898, metadata !DIExpression()), !dbg !1899
  %5 = load ptr, ptr %3, align 8
  %6 = load ptr, ptr %4, align 8, !dbg !1900
  call void @_ZNSt10_Head_baseILm0EPFvvELb0EEC2ERKS1_(ptr noundef nonnull align 8 dereferenceable(8) %5, ptr noundef nonnull align 8 dereferenceable(8) %6), !dbg !1901
  ret void, !dbg !1902
}

; Function Attrs: noinline nounwind optnone uwtable
define linkonce_odr dso_local void @_ZNSt10_Head_baseILm0EPFvvELb0EEC2ERKS1_(ptr noundef nonnull align 8 dereferenceable(8) %0, ptr noundef nonnull align 8 dereferenceable(8) %1) unnamed_addr #8 comdat align 2 !dbg !1903 {
  %3 = alloca ptr, align 8
  %4 = alloca ptr, align 8
  store ptr %0, ptr %3, align 8
  call void @llvm.dbg.declare(metadata ptr %3, metadata !1904, metadata !DIExpression()), !dbg !1905
  store ptr %1, ptr %4, align 8
  call void @llvm.dbg.declare(metadata ptr %4, metadata !1906, metadata !DIExpression()), !dbg !1907
  %5 = load ptr, ptr %3, align 8
  %6 = getelementptr inbounds %"struct.std::_Head_base.4", ptr %5, i32 0, i32 0, !dbg !1908
  %7 = load ptr, ptr %4, align 8, !dbg !1909
  %8 = load ptr, ptr %7, align 8, !dbg !1909
  store ptr %8, ptr %6, align 8, !dbg !1908
  ret void, !dbg !1910
}

; Function Attrs: mustprogress noinline nounwind optnone uwtable
define linkonce_odr dso_local noundef nonnull align 1 dereferenceable(1) ptr @_ZNSt10unique_ptrINSt6thread6_StateESt14default_deleteIS1_EE11get_deleterEv(ptr noundef nonnull align 8 dereferenceable(8) %0) #9 comdat align 2 personality ptr @__gxx_personality_v0 !dbg !1911 {
  %2 = alloca ptr, align 8
  store ptr %0, ptr %2, align 8
  call void @llvm.dbg.declare(metadata ptr %2, metadata !1912, metadata !DIExpression()), !dbg !1913
  %3 = load ptr, ptr %2, align 8
  %4 = getelementptr inbounds %"class.std::unique_ptr", ptr %3, i32 0, i32 0, !dbg !1914
  %5 = invoke noundef nonnull align 1 dereferenceable(1) ptr @_ZNSt15__uniq_ptr_implINSt6thread6_StateESt14default_deleteIS1_EE10_M_deleterEv(ptr noundef nonnull align 8 dereferenceable(8) %4)
          to label %6 unwind label %7, !dbg !1915

6:                                                ; preds = %1
  ret ptr %5, !dbg !1916

7:                                                ; preds = %1
  %8 = landingpad { ptr, i32 }
          catch ptr null, !dbg !1915
  %9 = extractvalue { ptr, i32 } %8, 0, !dbg !1915
  call void @__clang_call_terminate(ptr %9) #15, !dbg !1915
  unreachable, !dbg !1915
}

; Function Attrs: mustprogress noinline nounwind optnone uwtable
define linkonce_odr dso_local void @_ZNKSt14default_deleteINSt6thread6_StateEEclEPS1_(ptr noundef nonnull align 1 dereferenceable(1) %0, ptr noundef %1) #9 comdat align 2 !dbg !1917 {
  %3 = alloca ptr, align 8
  %4 = alloca ptr, align 8
  store ptr %0, ptr %3, align 8
  call void @llvm.dbg.declare(metadata ptr %3, metadata !1918, metadata !DIExpression()), !dbg !1920
  store ptr %1, ptr %4, align 8
  call void @llvm.dbg.declare(metadata ptr %4, metadata !1921, metadata !DIExpression()), !dbg !1922
  %5 = load ptr, ptr %3, align 8
  %6 = load ptr, ptr %4, align 8, !dbg !1923
  %7 = icmp eq ptr %6, null, !dbg !1924
  br i1 %7, label %12, label %8, !dbg !1924

8:                                                ; preds = %2
  %9 = load ptr, ptr %6, align 8, !dbg !1924
  %10 = getelementptr inbounds ptr, ptr %9, i64 1, !dbg !1924
  %11 = load ptr, ptr %10, align 8, !dbg !1924
  call void %11(ptr noundef nonnull align 8 dereferenceable(8) %6) #3, !dbg !1924
  br label %12, !dbg !1924

12:                                               ; preds = %8, %2
  ret void, !dbg !1925
}

; Function Attrs: mustprogress noinline nounwind optnone uwtable
define linkonce_odr dso_local noundef nonnull align 1 dereferenceable(1) ptr @_ZNSt15__uniq_ptr_implINSt6thread6_StateESt14default_deleteIS1_EE10_M_deleterEv(ptr noundef nonnull align 8 dereferenceable(8) %0) #9 comdat align 2 !dbg !1926 {
  %2 = alloca ptr, align 8
  store ptr %0, ptr %2, align 8
  call void @llvm.dbg.declare(metadata ptr %2, metadata !1927, metadata !DIExpression()), !dbg !1928
  %3 = load ptr, ptr %2, align 8
  %4 = getelementptr inbounds %"class.std::__uniq_ptr_impl", ptr %3, i32 0, i32 0, !dbg !1929
  %5 = call noundef nonnull align 1 dereferenceable(1) ptr @_ZSt3getILm1EJPNSt6thread6_StateESt14default_deleteIS1_EEERNSt13tuple_elementIXT_ESt5tupleIJDpT0_EEE4typeERS9_(ptr noundef nonnull align 8 dereferenceable(8) %4) #3, !dbg !1930
  ret ptr %5, !dbg !1931
}

; Function Attrs: mustprogress noinline nounwind optnone uwtable
define linkonce_odr dso_local noundef nonnull align 1 dereferenceable(1) ptr @_ZSt3getILm1EJPNSt6thread6_StateESt14default_deleteIS1_EEERNSt13tuple_elementIXT_ESt5tupleIJDpT0_EEE4typeERS9_(ptr noundef nonnull align 8 dereferenceable(8) %0) #9 comdat !dbg !1932 {
  %2 = alloca ptr, align 8
  store ptr %0, ptr %2, align 8
  call void @llvm.dbg.declare(metadata ptr %2, metadata !1944, metadata !DIExpression()), !dbg !1945
  %3 = load ptr, ptr %2, align 8, !dbg !1946
  %4 = call noundef nonnull align 1 dereferenceable(1) ptr @_ZSt12__get_helperILm1ESt14default_deleteINSt6thread6_StateEEJEERT0_RSt11_Tuple_implIXT_EJS4_DpT1_EE(ptr noundef nonnull align 1 dereferenceable(1) %3) #3, !dbg !1947
  ret ptr %4, !dbg !1948
}

; Function Attrs: mustprogress noinline nounwind optnone uwtable
define linkonce_odr dso_local noundef nonnull align 1 dereferenceable(1) ptr @_ZSt12__get_helperILm1ESt14default_deleteINSt6thread6_StateEEJEERT0_RSt11_Tuple_implIXT_EJS4_DpT1_EE(ptr noundef nonnull align 1 dereferenceable(1) %0) #9 comdat !dbg !1949 {
  %2 = alloca ptr, align 8
  store ptr %0, ptr %2, align 8
  call void @llvm.dbg.declare(metadata ptr %2, metadata !1951, metadata !DIExpression()), !dbg !1952
  %3 = load ptr, ptr %2, align 8, !dbg !1953
  %4 = call noundef nonnull align 1 dereferenceable(1) ptr @_ZNSt11_Tuple_implILm1EJSt14default_deleteINSt6thread6_StateEEEE7_M_headERS4_(ptr noundef nonnull align 1 dereferenceable(1) %3) #3, !dbg !1954
  ret ptr %4, !dbg !1955
}

; Function Attrs: mustprogress noinline nounwind optnone uwtable
define linkonce_odr dso_local noundef nonnull align 1 dereferenceable(1) ptr @_ZNSt11_Tuple_implILm1EJSt14default_deleteINSt6thread6_StateEEEE7_M_headERS4_(ptr noundef nonnull align 1 dereferenceable(1) %0) #9 comdat align 2 !dbg !1956 {
  %2 = alloca ptr, align 8
  store ptr %0, ptr %2, align 8
  call void @llvm.dbg.declare(metadata ptr %2, metadata !1957, metadata !DIExpression()), !dbg !1958
  %3 = load ptr, ptr %2, align 8, !dbg !1959
  %4 = call noundef nonnull align 1 dereferenceable(1) ptr @_ZNSt10_Head_baseILm1ESt14default_deleteINSt6thread6_StateEELb1EE7_M_headERS4_(ptr noundef nonnull align 1 dereferenceable(1) %3) #3, !dbg !1960
  ret ptr %4, !dbg !1961
}

; Function Attrs: mustprogress noinline nounwind optnone uwtable
define linkonce_odr dso_local noundef nonnull align 1 dereferenceable(1) ptr @_ZNSt10_Head_baseILm1ESt14default_deleteINSt6thread6_StateEELb1EE7_M_headERS4_(ptr noundef nonnull align 1 dereferenceable(1) %0) #9 comdat align 2 !dbg !1962 {
  %2 = alloca ptr, align 8
  store ptr %0, ptr %2, align 8
  call void @llvm.dbg.declare(metadata ptr %2, metadata !1963, metadata !DIExpression()), !dbg !1964
  %3 = load ptr, ptr %2, align 8, !dbg !1965
  ret ptr %3, !dbg !1966
}

; Function Attrs: noinline uwtable
define internal void @_GLOBAL__sub_I_test3.cpp() #0 section ".text.startup" !dbg !1967 {
  call void @__cxx_global_var_init(), !dbg !1969
  ret void
}

attributes #0 = { noinline uwtable "frame-pointer"="all" "min-legal-vector-width"="0" "no-trapping-math"="true" "stack-protector-buffer-size"="8" "target-cpu"="x86-64" "target-features"="+cmov,+cx8,+fxsr,+mmx,+sse,+sse2,+x87" "tune-cpu"="generic" }
attributes #1 = { "frame-pointer"="all" "no-trapping-math"="true" "stack-protector-buffer-size"="8" "target-cpu"="x86-64" "target-features"="+cmov,+cx8,+fxsr,+mmx,+sse,+sse2,+x87" "tune-cpu"="generic" }
attributes #2 = { nounwind "frame-pointer"="all" "no-trapping-math"="true" "stack-protector-buffer-size"="8" "target-cpu"="x86-64" "target-features"="+cmov,+cx8,+fxsr,+mmx,+sse,+sse2,+x87" "tune-cpu"="generic" }
attributes #3 = { nounwind }
attributes #4 = { mustprogress noinline optnone uwtable "frame-pointer"="all" "min-legal-vector-width"="0" "no-trapping-math"="true" "stack-protector-buffer-size"="8" "target-cpu"="x86-64" "target-features"="+cmov,+cx8,+fxsr,+mmx,+sse,+sse2,+x87" "tune-cpu"="generic" }
attributes #5 = { mustprogress noinline norecurse optnone uwtable "frame-pointer"="all" "min-legal-vector-width"="0" "no-trapping-math"="true" "stack-protector-buffer-size"="8" "target-cpu"="x86-64" "target-features"="+cmov,+cx8,+fxsr,+mmx,+sse,+sse2,+x87" "tune-cpu"="generic" }
attributes #6 = { nocallback nofree nosync nounwind speculatable willreturn memory(none) }
attributes #7 = { noinline optnone uwtable "frame-pointer"="all" "min-legal-vector-width"="0" "no-trapping-math"="true" "stack-protector-buffer-size"="8" "target-cpu"="x86-64" "target-features"="+cmov,+cx8,+fxsr,+mmx,+sse,+sse2,+x87" "tune-cpu"="generic" }
attributes #8 = { noinline nounwind optnone uwtable "frame-pointer"="all" "min-legal-vector-width"="0" "no-trapping-math"="true" "stack-protector-buffer-size"="8" "target-cpu"="x86-64" "target-features"="+cmov,+cx8,+fxsr,+mmx,+sse,+sse2,+x87" "tune-cpu"="generic" }
attributes #9 = { mustprogress noinline nounwind optnone uwtable "frame-pointer"="all" "min-legal-vector-width"="0" "no-trapping-math"="true" "stack-protector-buffer-size"="8" "target-cpu"="x86-64" "target-features"="+cmov,+cx8,+fxsr,+mmx,+sse,+sse2,+x87" "tune-cpu"="generic" }
attributes #10 = { noreturn nounwind "frame-pointer"="all" "no-trapping-math"="true" "stack-protector-buffer-size"="8" "target-cpu"="x86-64" "target-features"="+cmov,+cx8,+fxsr,+mmx,+sse,+sse2,+x87" "tune-cpu"="generic" }
attributes #11 = { nocallback nofree nounwind willreturn memory(argmem: readwrite) }
attributes #12 = { nobuiltin allocsize(0) "frame-pointer"="all" "no-trapping-math"="true" "stack-protector-buffer-size"="8" "target-cpu"="x86-64" "target-features"="+cmov,+cx8,+fxsr,+mmx,+sse,+sse2,+x87" "tune-cpu"="generic" }
attributes #13 = { nobuiltin nounwind "frame-pointer"="all" "no-trapping-math"="true" "stack-protector-buffer-size"="8" "target-cpu"="x86-64" "target-features"="+cmov,+cx8,+fxsr,+mmx,+sse,+sse2,+x87" "tune-cpu"="generic" }
attributes #14 = { noinline noreturn nounwind uwtable "frame-pointer"="all" "no-trapping-math"="true" "stack-protector-buffer-size"="8" "target-cpu"="x86-64" "target-features"="+cmov,+cx8,+fxsr,+mmx,+sse,+sse2,+x87" "tune-cpu"="generic" }
attributes #15 = { noreturn nounwind }
attributes #16 = { builtin allocsize(0) }
attributes #17 = { builtin nounwind }

!llvm.dbg.cu = !{!17}
!llvm.module.flags = !{!1471, !1472, !1473, !1474, !1475, !1476, !1477}
!llvm.ident = !{!1478}

!0 = !DIGlobalVariableExpression(var: !1, expr: !DIExpression())
!1 = distinct !DIGlobalVariable(name: "__ioinit", linkageName: "_ZStL8__ioinit", scope: !2, file: !3, line: 74, type: !4, isLocal: true, isDefinition: true)
!2 = !DINamespace(name: "std", scope: null)
!3 = !DIFile(filename: "/usr/lib/gcc/x86_64-linux-gnu/9/../../../../include/c++/9/iostream", directory: "")
!4 = !DICompositeType(tag: DW_TAG_class_type, name: "Init", scope: !6, file: !5, line: 608, size: 8, flags: DIFlagFwdDecl | DIFlagNonTrivial, identifier: "_ZTSNSt8ios_base4InitE")
!5 = !DIFile(filename: "/usr/lib/gcc/x86_64-linux-gnu/9/../../../../include/c++/9/bits/ios_base.h", directory: "")
!6 = !DICompositeType(tag: DW_TAG_class_type, name: "ios_base", scope: !2, file: !5, line: 228, size: 1728, flags: DIFlagFwdDecl | DIFlagNonTrivial)
!7 = !DIGlobalVariableExpression(var: !8, expr: !DIExpression())
!8 = distinct !DIGlobalVariable(scope: null, file: !9, line: 6, type: !10, isLocal: true, isDefinition: true)
!9 = !DIFile(filename: "llvm/lib/Transforms/scopePass/test/test3.cpp", directory: "/home/cs23mtech12010/CCM/CCMutator/llvm-project", checksumkind: CSK_MD5, checksum: "a884fe17c22b88892ab76ab8371bf36d")
!10 = !DICompositeType(tag: DW_TAG_array_type, baseType: !11, size: 208, elements: !13)
!11 = !DIDerivedType(tag: DW_TAG_const_type, baseType: !12)
!12 = !DIBasicType(name: "char", size: 8, encoding: DW_ATE_signed_char)
!13 = !{!14}
!14 = !DISubrange(count: 26)
!15 = !DIGlobalVariableExpression(var: !16, expr: !DIExpression())
!16 = distinct !DIGlobalVariable(scope: null, file: !9, line: 11, type: !10, isLocal: true, isDefinition: true)
!17 = distinct !DICompileUnit(language: DW_LANG_C_plus_plus_14, file: !18, producer: "clang version 17.0.0 (https://github.com/llvm/llvm-project.git 88bf774c565080e30e0a073676c316ab175303af)", isOptimized: false, runtimeVersion: 0, emissionKind: FullDebug, enums: !19, retainedTypes: !28, globals: !564, imports: !565, splitDebugInlining: false, nameTableKind: None)
!18 = !DIFile(filename: "/home/cs23mtech12010/CCM/CCMutator/llvm-project/llvm/lib/Transforms/scopePass/test/test3.cpp", directory: "/home/cs23mtech12010/CCM/CCMutator/llvm-project/build", checksumkind: CSK_MD5, checksum: "a884fe17c22b88892ab76ab8371bf36d")
!19 = !{!20}
!20 = !DICompositeType(tag: DW_TAG_enumeration_type, name: "_Lock_policy", scope: !22, file: !21, line: 49, baseType: !23, size: 32, elements: !24, identifier: "_ZTSN9__gnu_cxx12_Lock_policyE")
!21 = !DIFile(filename: "/usr/lib/gcc/x86_64-linux-gnu/9/../../../../include/c++/9/ext/concurrence.h", directory: "")
!22 = !DINamespace(name: "__gnu_cxx", scope: null)
!23 = !DIBasicType(name: "unsigned int", size: 32, encoding: DW_ATE_unsigned)
!24 = !{!25, !26, !27}
!25 = !DIEnumerator(name: "_S_single", value: 0, isUnsigned: true)
!26 = !DIEnumerator(name: "_S_mutex", value: 1, isUnsigned: true)
!27 = !DIEnumerator(name: "_S_atomic", value: 2, isUnsigned: true)
!28 = !{!29, !32, !54, !56, !129, !126, !164, !123, !230, !120, !116, !113, !109, !453, !487, !523, !555}
!29 = !DIDerivedType(tag: DW_TAG_pointer_type, baseType: !30, size: 64)
!30 = !DISubroutineType(types: !31)
!31 = !{null}
!32 = !DIDerivedType(tag: DW_TAG_typedef, name: "__tag", scope: !34, file: !33, line: 94, baseType: !47)
!33 = !DIFile(filename: "/usr/lib/gcc/x86_64-linux-gnu/9/../../../../include/c++/9/bits/invoke.h", directory: "")
!34 = distinct !DISubprogram(name: "__invoke<void (*)()>", linkageName: "_ZSt8__invokeIPFvvEJEENSt15__invoke_resultIT_JDpT0_EE4typeEOS3_DpOS4_", scope: !2, file: !33, line: 89, type: !35, scopeLine: 91, flags: DIFlagPrototyped, spFlags: DISPFlagDefinition, unit: !17, templateParams: !44, retainedNodes: !40)
!35 = !DISubroutineType(types: !36)
!36 = !{!37, !43}
!37 = !DIDerivedType(tag: DW_TAG_typedef, name: "type", scope: !39, file: !38, line: 187, baseType: null)
!38 = !DIFile(filename: "/usr/lib/gcc/x86_64-linux-gnu/9/../../../../include/c++/9/type_traits", directory: "")
!39 = distinct !DICompositeType(tag: DW_TAG_structure_type, name: "__success_type<void>", scope: !2, file: !38, line: 186, size: 8, flags: DIFlagTypePassByValue, elements: !40, templateParams: !41, identifier: "_ZTSSt14__success_typeIvE")
!40 = !{}
!41 = !{!42}
!42 = !DITemplateTypeParameter(name: "_Tp", type: null)
!43 = !DIDerivedType(tag: DW_TAG_rvalue_reference_type, baseType: !29, size: 64)
!44 = !{!45, !46}
!45 = !DITemplateTypeParameter(name: "_Callable", type: !29)
!46 = !DITemplateValueParameter(tag: DW_TAG_GNU_template_parameter_pack, name: "_Args", value: !40)
!47 = !DIDerivedType(tag: DW_TAG_typedef, name: "__invoke_type", scope: !48, file: !38, line: 2183, baseType: !53)
!48 = distinct !DICompositeType(tag: DW_TAG_structure_type, name: "__result_of_success<void, std::__invoke_other>", scope: !2, file: !38, line: 2182, size: 8, flags: DIFlagTypePassByValue, elements: !49, templateParams: !51, identifier: "_ZTSSt19__result_of_successIvSt14__invoke_otherE")
!49 = !{!50}
!50 = !DIDerivedType(tag: DW_TAG_inheritance, scope: !48, baseType: !39, extraData: i32 0)
!51 = !{!42, !52}
!52 = !DITemplateTypeParameter(name: "_Tag", type: !53)
!53 = distinct !DICompositeType(tag: DW_TAG_structure_type, name: "__invoke_other", scope: !2, file: !38, line: 2178, size: 8, flags: DIFlagTypePassByValue, elements: !40, identifier: "_ZTSSt14__invoke_other")
!54 = distinct !DICompositeType(tag: DW_TAG_class_type, name: "id", scope: !56, file: !55, line: 77, size: 64, flags: DIFlagPublic | DIFlagTypePassByValue | DIFlagNonTrivial, elements: !444, identifier: "_ZTSNSt6thread2idE")
!55 = !DIFile(filename: "/usr/lib/gcc/x86_64-linux-gnu/9/../../../../include/c++/9/thread", directory: "")
!56 = distinct !DICompositeType(tag: DW_TAG_class_type, name: "thread", scope: !2, file: !55, line: 62, size: 64, flags: DIFlagTypePassByReference | DIFlagNonTrivial, elements: !57, identifier: "_ZTSSt6thread")
!57 = !{!58, !59, !63, !64, !69, !73, !77, !80, !83, !88, !89, !90, !93, !102, !105}
!58 = !DIDerivedType(tag: DW_TAG_member, name: "_M_id", scope: !56, file: !55, line: 103, baseType: !54, size: 64)
!59 = !DISubprogram(name: "thread", scope: !56, file: !55, line: 112, type: !60, scopeLine: 112, flags: DIFlagPublic | DIFlagPrototyped, spFlags: 0)
!60 = !DISubroutineType(types: !61)
!61 = !{null, !62}
!62 = !DIDerivedType(tag: DW_TAG_pointer_type, baseType: !56, size: 64, flags: DIFlagArtificial | DIFlagObjectPointer)
!63 = !DISubprogram(name: "~thread", scope: !56, file: !55, line: 136, type: !60, scopeLine: 136, flags: DIFlagPublic | DIFlagPrototyped, spFlags: 0)
!64 = !DISubprogram(name: "thread", scope: !56, file: !55, line: 142, type: !65, scopeLine: 142, flags: DIFlagPublic | DIFlagPrototyped, spFlags: DISPFlagDeleted)
!65 = !DISubroutineType(types: !66)
!66 = !{null, !62, !67}
!67 = !DIDerivedType(tag: DW_TAG_reference_type, baseType: !68, size: 64)
!68 = !DIDerivedType(tag: DW_TAG_const_type, baseType: !56)
!69 = !DISubprogram(name: "thread", scope: !56, file: !55, line: 144, type: !70, scopeLine: 144, flags: DIFlagPublic | DIFlagPrototyped, spFlags: 0)
!70 = !DISubroutineType(types: !71)
!71 = !{null, !62, !72}
!72 = !DIDerivedType(tag: DW_TAG_rvalue_reference_type, baseType: !56, size: 64)
!73 = !DISubprogram(name: "operator=", linkageName: "_ZNSt6threadaSERKS_", scope: !56, file: !55, line: 147, type: !74, scopeLine: 147, flags: DIFlagPublic | DIFlagPrototyped, spFlags: DISPFlagDeleted)
!74 = !DISubroutineType(types: !75)
!75 = !{!76, !62, !67}
!76 = !DIDerivedType(tag: DW_TAG_reference_type, baseType: !56, size: 64)
!77 = !DISubprogram(name: "operator=", linkageName: "_ZNSt6threadaSEOS_", scope: !56, file: !55, line: 149, type: !78, scopeLine: 149, flags: DIFlagPublic | DIFlagPrototyped, spFlags: 0)
!78 = !DISubroutineType(types: !79)
!79 = !{!76, !62, !72}
!80 = !DISubprogram(name: "swap", linkageName: "_ZNSt6thread4swapERS_", scope: !56, file: !55, line: 158, type: !81, scopeLine: 158, flags: DIFlagPublic | DIFlagPrototyped, spFlags: 0)
!81 = !DISubroutineType(types: !82)
!82 = !{null, !62, !76}
!83 = !DISubprogram(name: "joinable", linkageName: "_ZNKSt6thread8joinableEv", scope: !56, file: !55, line: 162, type: !84, scopeLine: 162, flags: DIFlagPublic | DIFlagPrototyped, spFlags: 0)
!84 = !DISubroutineType(types: !85)
!85 = !{!86, !87}
!86 = !DIBasicType(name: "bool", size: 8, encoding: DW_ATE_boolean)
!87 = !DIDerivedType(tag: DW_TAG_pointer_type, baseType: !68, size: 64, flags: DIFlagArtificial | DIFlagObjectPointer)
!88 = !DISubprogram(name: "join", linkageName: "_ZNSt6thread4joinEv", scope: !56, file: !55, line: 166, type: !60, scopeLine: 166, flags: DIFlagPublic | DIFlagPrototyped, spFlags: 0)
!89 = !DISubprogram(name: "detach", linkageName: "_ZNSt6thread6detachEv", scope: !56, file: !55, line: 169, type: !60, scopeLine: 169, flags: DIFlagPublic | DIFlagPrototyped, spFlags: 0)
!90 = !DISubprogram(name: "get_id", linkageName: "_ZNKSt6thread6get_idEv", scope: !56, file: !55, line: 172, type: !91, scopeLine: 172, flags: DIFlagPublic | DIFlagPrototyped, spFlags: 0)
!91 = !DISubroutineType(types: !92)
!92 = !{!54, !87}
!93 = !DISubprogram(name: "native_handle", linkageName: "_ZNSt6thread13native_handleEv", scope: !56, file: !55, line: 178, type: !94, scopeLine: 178, flags: DIFlagPublic | DIFlagPrototyped, spFlags: 0)
!94 = !DISubroutineType(types: !95)
!95 = !{!96, !62}
!96 = !DIDerivedType(tag: DW_TAG_typedef, name: "native_handle_type", scope: !56, file: !55, line: 74, baseType: !97, flags: DIFlagPublic)
!97 = !DIDerivedType(tag: DW_TAG_typedef, name: "__gthread_t", file: !98, line: 47, baseType: !99)
!98 = !DIFile(filename: "/usr/lib/gcc/x86_64-linux-gnu/9/../../../../include/x86_64-linux-gnu/c++/9/bits/gthr-default.h", directory: "", checksumkind: CSK_MD5, checksum: "253e44fcd2f3f0e77bbc192d0d6a84c4")
!99 = !DIDerivedType(tag: DW_TAG_typedef, name: "pthread_t", file: !100, line: 27, baseType: !101)
!100 = !DIFile(filename: "/usr/include/x86_64-linux-gnu/bits/pthreadtypes.h", directory: "", checksumkind: CSK_MD5, checksum: "2d764266ce95ab26d4a4767c2ec78176")
!101 = !DIBasicType(name: "unsigned long", size: 64, encoding: DW_ATE_unsigned)
!102 = !DISubprogram(name: "hardware_concurrency", linkageName: "_ZNSt6thread20hardware_concurrencyEv", scope: !56, file: !55, line: 183, type: !103, scopeLine: 183, flags: DIFlagPublic | DIFlagPrototyped | DIFlagStaticMember, spFlags: 0)
!103 = !DISubroutineType(types: !104)
!104 = !{!23}
!105 = !DISubprogram(name: "_M_start_thread", linkageName: "_ZNSt6thread15_M_start_threadESt10unique_ptrINS_6_StateESt14default_deleteIS1_EEPFvvE", scope: !56, file: !55, line: 199, type: !106, scopeLine: 199, flags: DIFlagPrototyped, spFlags: 0)
!106 = !DISubroutineType(types: !107)
!107 = !{null, !62, !108, !29}
!108 = !DIDerivedType(tag: DW_TAG_typedef, name: "_State_ptr", scope: !56, file: !55, line: 72, baseType: !109, flags: DIFlagPublic)
!109 = distinct !DICompositeType(tag: DW_TAG_class_type, name: "unique_ptr<std::thread::_State, std::default_delete<std::thread::_State> >", scope: !2, file: !110, line: 172, size: 64, flags: DIFlagTypePassByReference | DIFlagNonTrivial, elements: !111, templateParams: !442, identifier: "_ZTSSt10unique_ptrINSt6thread6_StateESt14default_deleteIS1_EE")
!110 = !DIFile(filename: "/usr/lib/gcc/x86_64-linux-gnu/9/../../../../include/c++/9/bits/unique_ptr.h", directory: "", checksumkind: CSK_MD5, checksum: "72e397db6755d8096e32ba700f5c5576")
!111 = !{!112, !381, !386, !389, !393, !399, !408, !412, !413, !418, !423, !426, !429, !432, !435, !439}
!112 = !DIDerivedType(tag: DW_TAG_member, name: "_M_t", scope: !109, file: !110, line: 178, baseType: !113, size: 64)
!113 = distinct !DICompositeType(tag: DW_TAG_class_type, name: "__uniq_ptr_impl<std::thread::_State, std::default_delete<std::thread::_State> >", scope: !2, file: !110, line: 120, size: 64, flags: DIFlagTypePassByReference | DIFlagNonTrivial, elements: !114, templateParams: !379, identifier: "_ZTSSt15__uniq_ptr_implINSt6thread6_StateESt14default_deleteIS1_EE")
!114 = !{!115, !346, !350, !360, !364, !369, !372, !375}
!115 = !DIDerivedType(tag: DW_TAG_member, name: "_M_t", scope: !113, file: !110, line: 167, baseType: !116, size: 64)
!116 = distinct !DICompositeType(tag: DW_TAG_class_type, name: "tuple<std::thread::_State *, std::default_delete<std::thread::_State> >", scope: !2, file: !117, line: 893, size: 64, flags: DIFlagTypePassByReference | DIFlagNonTrivial, elements: !118, templateParams: !345, identifier: "_ZTSSt5tupleIJPNSt6thread6_StateESt14default_deleteIS1_EEE")
!117 = !DIFile(filename: "/usr/lib/gcc/x86_64-linux-gnu/9/../../../../include/c++/9/tuple", directory: "")
!118 = !{!119, !309, !315, !319, !333, !342}
!119 = !DIDerivedType(tag: DW_TAG_inheritance, scope: !116, baseType: !120, flags: DIFlagPublic, extraData: i32 0)
!120 = distinct !DICompositeType(tag: DW_TAG_structure_type, name: "_Tuple_impl<0UL, std::thread::_State *, std::default_delete<std::thread::_State> >", scope: !2, file: !117, line: 185, size: 64, flags: DIFlagTypePassByReference | DIFlagNonTrivial, elements: !121, templateParams: !305, identifier: "_ZTSSt11_Tuple_implILm0EJPNSt6thread6_StateESt14default_deleteIS1_EEE")
!121 = !{!122, !229, !266, !270, !275, !280, !285, !289, !292, !295, !298, !302}
!122 = !DIDerivedType(tag: DW_TAG_inheritance, scope: !120, baseType: !123, extraData: i32 0)
!123 = distinct !DICompositeType(tag: DW_TAG_structure_type, name: "_Tuple_impl<1UL, std::default_delete<std::thread::_State> >", scope: !2, file: !117, line: 326, size: 8, flags: DIFlagTypePassByReference | DIFlagNonTrivial, elements: !124, templateParams: !225, identifier: "_ZTSSt11_Tuple_implILm1EJSt14default_deleteINSt6thread6_StateEEEE")
!124 = !{!125, !196, !200, !205, !209, !212, !215, !218, !222}
!125 = !DIDerivedType(tag: DW_TAG_inheritance, scope: !123, baseType: !126, flags: DIFlagPrivate, extraData: i32 0)
!126 = distinct !DICompositeType(tag: DW_TAG_structure_type, name: "_Head_base<1UL, std::default_delete<std::thread::_State>, true>", scope: !2, file: !117, line: 73, size: 8, flags: DIFlagTypePassByValue | DIFlagNonTrivial, elements: !127, templateParams: !192, identifier: "_ZTSSt10_Head_baseILm1ESt14default_deleteINSt6thread6_StateEELb1EE")
!127 = !{!128, !144, !148, !152, !157, !161, !184, !189}
!128 = !DIDerivedType(tag: DW_TAG_inheritance, scope: !126, baseType: !129, extraData: i32 0)
!129 = distinct !DICompositeType(tag: DW_TAG_structure_type, name: "default_delete<std::thread::_State>", scope: !2, file: !110, line: 59, size: 8, flags: DIFlagTypePassByValue, elements: !130, templateParams: !142, identifier: "_ZTSSt14default_deleteINSt6thread6_StateEE")
!130 = !{!131, !135}
!131 = !DISubprogram(name: "default_delete", scope: !129, file: !110, line: 62, type: !132, scopeLine: 62, flags: DIFlagPrototyped, spFlags: 0)
!132 = !DISubroutineType(types: !133)
!133 = !{null, !134}
!134 = !DIDerivedType(tag: DW_TAG_pointer_type, baseType: !129, size: 64, flags: DIFlagArtificial | DIFlagObjectPointer)
!135 = !DISubprogram(name: "operator()", linkageName: "_ZNKSt14default_deleteINSt6thread6_StateEEclEPS1_", scope: !129, file: !110, line: 75, type: !136, scopeLine: 75, flags: DIFlagPrototyped, spFlags: 0)
!136 = !DISubroutineType(types: !137)
!137 = !{null, !138, !140}
!138 = !DIDerivedType(tag: DW_TAG_pointer_type, baseType: !139, size: 64, flags: DIFlagArtificial | DIFlagObjectPointer)
!139 = !DIDerivedType(tag: DW_TAG_const_type, baseType: !129)
!140 = !DIDerivedType(tag: DW_TAG_pointer_type, baseType: !141, size: 64)
!141 = !DICompositeType(tag: DW_TAG_structure_type, name: "_State", scope: !56, file: !55, line: 67, size: 64, flags: DIFlagFwdDecl | DIFlagNonTrivial)
!142 = !{!143}
!143 = !DITemplateTypeParameter(name: "_Tp", type: !141)
!144 = !DISubprogram(name: "_Head_base", scope: !126, file: !117, line: 76, type: !145, scopeLine: 76, flags: DIFlagPrototyped, spFlags: 0)
!145 = !DISubroutineType(types: !146)
!146 = !{null, !147}
!147 = !DIDerivedType(tag: DW_TAG_pointer_type, baseType: !126, size: 64, flags: DIFlagArtificial | DIFlagObjectPointer)
!148 = !DISubprogram(name: "_Head_base", scope: !126, file: !117, line: 79, type: !149, scopeLine: 79, flags: DIFlagPrototyped, spFlags: 0)
!149 = !DISubroutineType(types: !150)
!150 = !{null, !147, !151}
!151 = !DIDerivedType(tag: DW_TAG_reference_type, baseType: !139, size: 64)
!152 = !DISubprogram(name: "_Head_base", scope: !126, file: !117, line: 82, type: !153, scopeLine: 82, flags: DIFlagPrototyped, spFlags: 0)
!153 = !DISubroutineType(types: !154)
!154 = !{null, !147, !155}
!155 = !DIDerivedType(tag: DW_TAG_reference_type, baseType: !156, size: 64)
!156 = !DIDerivedType(tag: DW_TAG_const_type, baseType: !126)
!157 = !DISubprogram(name: "_Head_base", scope: !126, file: !117, line: 83, type: !158, scopeLine: 83, flags: DIFlagPrototyped, spFlags: 0)
!158 = !DISubroutineType(types: !159)
!159 = !{null, !147, !160}
!160 = !DIDerivedType(tag: DW_TAG_rvalue_reference_type, baseType: !126, size: 64)
!161 = !DISubprogram(name: "_Head_base", scope: !126, file: !117, line: 89, type: !162, scopeLine: 89, flags: DIFlagPrototyped, spFlags: 0)
!162 = !DISubroutineType(types: !163)
!163 = !{null, !147, !164, !171}
!164 = distinct !DICompositeType(tag: DW_TAG_structure_type, name: "allocator_arg_t", scope: !2, file: !165, line: 50, size: 8, flags: DIFlagTypePassByValue, elements: !166, identifier: "_ZTSSt15allocator_arg_t")
!165 = !DIFile(filename: "/usr/lib/gcc/x86_64-linux-gnu/9/../../../../include/c++/9/bits/uses_allocator.h", directory: "", checksumkind: CSK_MD5, checksum: "1053e71b8fd4aced4cd00e8f7c0e6347")
!166 = !{!167}
!167 = !DISubprogram(name: "allocator_arg_t", scope: !164, file: !165, line: 50, type: !168, scopeLine: 50, flags: DIFlagExplicit | DIFlagPrototyped, spFlags: 0)
!168 = !DISubroutineType(types: !169)
!169 = !{null, !170}
!170 = !DIDerivedType(tag: DW_TAG_pointer_type, baseType: !164, size: 64, flags: DIFlagArtificial | DIFlagObjectPointer)
!171 = distinct !DICompositeType(tag: DW_TAG_structure_type, name: "__uses_alloc0", scope: !2, file: !165, line: 73, size: 8, flags: DIFlagTypePassByValue, elements: !172, identifier: "_ZTSSt13__uses_alloc0")
!172 = !{!173, !175}
!173 = !DIDerivedType(tag: DW_TAG_inheritance, scope: !171, baseType: !174, extraData: i32 0)
!174 = distinct !DICompositeType(tag: DW_TAG_structure_type, name: "__uses_alloc_base", scope: !2, file: !165, line: 71, size: 8, flags: DIFlagTypePassByValue, elements: !40, identifier: "_ZTSSt17__uses_alloc_base")
!175 = !DIDerivedType(tag: DW_TAG_member, name: "_M_a", scope: !171, file: !165, line: 75, baseType: !176, size: 8)
!176 = distinct !DICompositeType(tag: DW_TAG_structure_type, name: "_Sink", scope: !171, file: !165, line: 75, size: 8, flags: DIFlagTypePassByValue, elements: !177, identifier: "_ZTSNSt13__uses_alloc05_SinkE")
!177 = !{!178}
!178 = !DISubprogram(name: "operator=", linkageName: "_ZNSt13__uses_alloc05_SinkaSEPKv", scope: !176, file: !165, line: 75, type: !179, scopeLine: 75, flags: DIFlagPrototyped, spFlags: 0)
!179 = !DISubroutineType(types: !180)
!180 = !{null, !181, !182}
!181 = !DIDerivedType(tag: DW_TAG_pointer_type, baseType: !176, size: 64, flags: DIFlagArtificial | DIFlagObjectPointer)
!182 = !DIDerivedType(tag: DW_TAG_pointer_type, baseType: !183, size: 64)
!183 = !DIDerivedType(tag: DW_TAG_const_type, baseType: null)
!184 = !DISubprogram(name: "_M_head", linkageName: "_ZNSt10_Head_baseILm1ESt14default_deleteINSt6thread6_StateEELb1EE7_M_headERS4_", scope: !126, file: !117, line: 113, type: !185, scopeLine: 113, flags: DIFlagPrototyped | DIFlagStaticMember, spFlags: 0)
!185 = !DISubroutineType(types: !186)
!186 = !{!187, !188}
!187 = !DIDerivedType(tag: DW_TAG_reference_type, baseType: !129, size: 64)
!188 = !DIDerivedType(tag: DW_TAG_reference_type, baseType: !126, size: 64)
!189 = !DISubprogram(name: "_M_head", linkageName: "_ZNSt10_Head_baseILm1ESt14default_deleteINSt6thread6_StateEELb1EE7_M_headERKS4_", scope: !126, file: !117, line: 116, type: !190, scopeLine: 116, flags: DIFlagPrototyped | DIFlagStaticMember, spFlags: 0)
!190 = !DISubroutineType(types: !191)
!191 = !{!151, !155}
!192 = !{!193, !194, !195}
!193 = !DITemplateValueParameter(name: "_Idx", type: !101, value: i64 1)
!194 = !DITemplateTypeParameter(name: "_Head", type: !129)
!195 = !DITemplateValueParameter(type: !86, defaulted: true, value: i1 true)
!196 = !DISubprogram(name: "_M_head", linkageName: "_ZNSt11_Tuple_implILm1EJSt14default_deleteINSt6thread6_StateEEEE7_M_headERS4_", scope: !123, file: !117, line: 334, type: !197, scopeLine: 334, flags: DIFlagPrototyped | DIFlagStaticMember, spFlags: 0)
!197 = !DISubroutineType(types: !198)
!198 = !{!187, !199}
!199 = !DIDerivedType(tag: DW_TAG_reference_type, baseType: !123, size: 64)
!200 = !DISubprogram(name: "_M_head", linkageName: "_ZNSt11_Tuple_implILm1EJSt14default_deleteINSt6thread6_StateEEEE7_M_headERKS4_", scope: !123, file: !117, line: 337, type: !201, scopeLine: 337, flags: DIFlagPrototyped | DIFlagStaticMember, spFlags: 0)
!201 = !DISubroutineType(types: !202)
!202 = !{!151, !203}
!203 = !DIDerivedType(tag: DW_TAG_reference_type, baseType: !204, size: 64)
!204 = !DIDerivedType(tag: DW_TAG_const_type, baseType: !123)
!205 = !DISubprogram(name: "_Tuple_impl", scope: !123, file: !117, line: 339, type: !206, scopeLine: 339, flags: DIFlagPrototyped, spFlags: 0)
!206 = !DISubroutineType(types: !207)
!207 = !{null, !208}
!208 = !DIDerivedType(tag: DW_TAG_pointer_type, baseType: !123, size: 64, flags: DIFlagArtificial | DIFlagObjectPointer)
!209 = !DISubprogram(name: "_Tuple_impl", scope: !123, file: !117, line: 343, type: !210, scopeLine: 343, flags: DIFlagExplicit | DIFlagPrototyped, spFlags: 0)
!210 = !DISubroutineType(types: !211)
!211 = !{null, !208, !151}
!212 = !DISubprogram(name: "_Tuple_impl", scope: !123, file: !117, line: 351, type: !213, scopeLine: 351, flags: DIFlagPrototyped, spFlags: 0)
!213 = !DISubroutineType(types: !214)
!214 = !{null, !208, !203}
!215 = !DISubprogram(name: "operator=", linkageName: "_ZNSt11_Tuple_implILm1EJSt14default_deleteINSt6thread6_StateEEEEaSERKS4_", scope: !123, file: !117, line: 355, type: !216, scopeLine: 355, flags: DIFlagPrototyped, spFlags: DISPFlagDeleted)
!216 = !DISubroutineType(types: !217)
!217 = !{!199, !208, !203}
!218 = !DISubprogram(name: "_Tuple_impl", scope: !123, file: !117, line: 358, type: !219, scopeLine: 358, flags: DIFlagPrototyped, spFlags: 0)
!219 = !DISubroutineType(types: !220)
!220 = !{null, !208, !221}
!221 = !DIDerivedType(tag: DW_TAG_rvalue_reference_type, baseType: !123, size: 64)
!222 = !DISubprogram(name: "_M_swap", linkageName: "_ZNSt11_Tuple_implILm1EJSt14default_deleteINSt6thread6_StateEEEE7_M_swapERS4_", scope: !123, file: !117, line: 427, type: !223, scopeLine: 427, flags: DIFlagProtected | DIFlagPrototyped, spFlags: 0)
!223 = !DISubroutineType(types: !224)
!224 = !{null, !208, !199}
!225 = !{!193, !226}
!226 = !DITemplateValueParameter(tag: DW_TAG_GNU_template_parameter_pack, name: "_Elements", value: !227)
!227 = !{!228}
!228 = !DITemplateTypeParameter(type: !129)
!229 = !DIDerivedType(tag: DW_TAG_inheritance, scope: !120, baseType: !230, flags: DIFlagPrivate, extraData: i32 0)
!230 = distinct !DICompositeType(tag: DW_TAG_structure_type, name: "_Head_base<0UL, std::thread::_State *, false>", scope: !2, file: !117, line: 120, size: 64, flags: DIFlagTypePassByValue | DIFlagNonTrivial, elements: !231, templateParams: !262, identifier: "_ZTSSt10_Head_baseILm0EPNSt6thread6_StateELb0EE")
!231 = !{!232, !233, !237, !242, !247, !251, !254, !259}
!232 = !DIDerivedType(tag: DW_TAG_member, name: "_M_head_impl", scope: !230, file: !117, line: 165, baseType: !140, size: 64)
!233 = !DISubprogram(name: "_Head_base", scope: !230, file: !117, line: 122, type: !234, scopeLine: 122, flags: DIFlagPrototyped, spFlags: 0)
!234 = !DISubroutineType(types: !235)
!235 = !{null, !236}
!236 = !DIDerivedType(tag: DW_TAG_pointer_type, baseType: !230, size: 64, flags: DIFlagArtificial | DIFlagObjectPointer)
!237 = !DISubprogram(name: "_Head_base", scope: !230, file: !117, line: 125, type: !238, scopeLine: 125, flags: DIFlagPrototyped, spFlags: 0)
!238 = !DISubroutineType(types: !239)
!239 = !{null, !236, !240}
!240 = !DIDerivedType(tag: DW_TAG_reference_type, baseType: !241, size: 64)
!241 = !DIDerivedType(tag: DW_TAG_const_type, baseType: !140)
!242 = !DISubprogram(name: "_Head_base", scope: !230, file: !117, line: 128, type: !243, scopeLine: 128, flags: DIFlagPrototyped, spFlags: 0)
!243 = !DISubroutineType(types: !244)
!244 = !{null, !236, !245}
!245 = !DIDerivedType(tag: DW_TAG_reference_type, baseType: !246, size: 64)
!246 = !DIDerivedType(tag: DW_TAG_const_type, baseType: !230)
!247 = !DISubprogram(name: "_Head_base", scope: !230, file: !117, line: 129, type: !248, scopeLine: 129, flags: DIFlagPrototyped, spFlags: 0)
!248 = !DISubroutineType(types: !249)
!249 = !{null, !236, !250}
!250 = !DIDerivedType(tag: DW_TAG_rvalue_reference_type, baseType: !230, size: 64)
!251 = !DISubprogram(name: "_Head_base", scope: !230, file: !117, line: 135, type: !252, scopeLine: 135, flags: DIFlagPrototyped, spFlags: 0)
!252 = !DISubroutineType(types: !253)
!253 = !{null, !236, !164, !171}
!254 = !DISubprogram(name: "_M_head", linkageName: "_ZNSt10_Head_baseILm0EPNSt6thread6_StateELb0EE7_M_headERS3_", scope: !230, file: !117, line: 160, type: !255, scopeLine: 160, flags: DIFlagPrototyped | DIFlagStaticMember, spFlags: 0)
!255 = !DISubroutineType(types: !256)
!256 = !{!257, !258}
!257 = !DIDerivedType(tag: DW_TAG_reference_type, baseType: !140, size: 64)
!258 = !DIDerivedType(tag: DW_TAG_reference_type, baseType: !230, size: 64)
!259 = !DISubprogram(name: "_M_head", linkageName: "_ZNSt10_Head_baseILm0EPNSt6thread6_StateELb0EE7_M_headERKS3_", scope: !230, file: !117, line: 163, type: !260, scopeLine: 163, flags: DIFlagPrototyped | DIFlagStaticMember, spFlags: 0)
!260 = !DISubroutineType(types: !261)
!261 = !{!240, !245}
!262 = !{!263, !264, !265}
!263 = !DITemplateValueParameter(name: "_Idx", type: !101, value: i64 0)
!264 = !DITemplateTypeParameter(name: "_Head", type: !140)
!265 = !DITemplateValueParameter(type: !86, defaulted: true, value: i1 false)
!266 = !DISubprogram(name: "_M_head", linkageName: "_ZNSt11_Tuple_implILm0EJPNSt6thread6_StateESt14default_deleteIS1_EEE7_M_headERS5_", scope: !120, file: !117, line: 195, type: !267, scopeLine: 195, flags: DIFlagPrototyped | DIFlagStaticMember, spFlags: 0)
!267 = !DISubroutineType(types: !268)
!268 = !{!257, !269}
!269 = !DIDerivedType(tag: DW_TAG_reference_type, baseType: !120, size: 64)
!270 = !DISubprogram(name: "_M_head", linkageName: "_ZNSt11_Tuple_implILm0EJPNSt6thread6_StateESt14default_deleteIS1_EEE7_M_headERKS5_", scope: !120, file: !117, line: 198, type: !271, scopeLine: 198, flags: DIFlagPrototyped | DIFlagStaticMember, spFlags: 0)
!271 = !DISubroutineType(types: !272)
!272 = !{!240, !273}
!273 = !DIDerivedType(tag: DW_TAG_reference_type, baseType: !274, size: 64)
!274 = !DIDerivedType(tag: DW_TAG_const_type, baseType: !120)
!275 = !DISubprogram(name: "_M_tail", linkageName: "_ZNSt11_Tuple_implILm0EJPNSt6thread6_StateESt14default_deleteIS1_EEE7_M_tailERS5_", scope: !120, file: !117, line: 201, type: !276, scopeLine: 201, flags: DIFlagPrototyped | DIFlagStaticMember, spFlags: 0)
!276 = !DISubroutineType(types: !277)
!277 = !{!278, !269}
!278 = !DIDerivedType(tag: DW_TAG_reference_type, baseType: !279, size: 64)
!279 = !DIDerivedType(tag: DW_TAG_typedef, name: "_Inherited", scope: !120, file: !117, line: 191, baseType: !123)
!280 = !DISubprogram(name: "_M_tail", linkageName: "_ZNSt11_Tuple_implILm0EJPNSt6thread6_StateESt14default_deleteIS1_EEE7_M_tailERKS5_", scope: !120, file: !117, line: 204, type: !281, scopeLine: 204, flags: DIFlagPrototyped | DIFlagStaticMember, spFlags: 0)
!281 = !DISubroutineType(types: !282)
!282 = !{!283, !273}
!283 = !DIDerivedType(tag: DW_TAG_reference_type, baseType: !284, size: 64)
!284 = !DIDerivedType(tag: DW_TAG_const_type, baseType: !279)
!285 = !DISubprogram(name: "_Tuple_impl", scope: !120, file: !117, line: 206, type: !286, scopeLine: 206, flags: DIFlagPrototyped, spFlags: 0)
!286 = !DISubroutineType(types: !287)
!287 = !{null, !288}
!288 = !DIDerivedType(tag: DW_TAG_pointer_type, baseType: !120, size: 64, flags: DIFlagArtificial | DIFlagObjectPointer)
!289 = !DISubprogram(name: "_Tuple_impl", scope: !120, file: !117, line: 210, type: !290, scopeLine: 210, flags: DIFlagExplicit | DIFlagPrototyped, spFlags: 0)
!290 = !DISubroutineType(types: !291)
!291 = !{null, !288, !240, !151}
!292 = !DISubprogram(name: "_Tuple_impl", scope: !120, file: !117, line: 220, type: !293, scopeLine: 220, flags: DIFlagPrototyped, spFlags: 0)
!293 = !DISubroutineType(types: !294)
!294 = !{null, !288, !273}
!295 = !DISubprogram(name: "operator=", linkageName: "_ZNSt11_Tuple_implILm0EJPNSt6thread6_StateESt14default_deleteIS1_EEEaSERKS5_", scope: !120, file: !117, line: 224, type: !296, scopeLine: 224, flags: DIFlagPrototyped, spFlags: DISPFlagDeleted)
!296 = !DISubroutineType(types: !297)
!297 = !{!269, !288, !273}
!298 = !DISubprogram(name: "_Tuple_impl", scope: !120, file: !117, line: 227, type: !299, scopeLine: 227, flags: DIFlagPrototyped, spFlags: 0)
!299 = !DISubroutineType(types: !300)
!300 = !{null, !288, !301}
!301 = !DIDerivedType(tag: DW_TAG_rvalue_reference_type, baseType: !120, size: 64)
!302 = !DISubprogram(name: "_M_swap", linkageName: "_ZNSt11_Tuple_implILm0EJPNSt6thread6_StateESt14default_deleteIS1_EEE7_M_swapERS5_", scope: !120, file: !117, line: 316, type: !303, scopeLine: 316, flags: DIFlagProtected | DIFlagPrototyped, spFlags: 0)
!303 = !DISubroutineType(types: !304)
!304 = !{null, !288, !269}
!305 = !{!263, !306}
!306 = !DITemplateValueParameter(tag: DW_TAG_GNU_template_parameter_pack, name: "_Elements", value: !307)
!307 = !{!308, !228}
!308 = !DITemplateTypeParameter(type: !140)
!309 = !DISubprogram(name: "tuple", scope: !116, file: !117, line: 981, type: !310, scopeLine: 981, flags: DIFlagPublic | DIFlagPrototyped, spFlags: 0)
!310 = !DISubroutineType(types: !311)
!311 = !{null, !312, !313}
!312 = !DIDerivedType(tag: DW_TAG_pointer_type, baseType: !116, size: 64, flags: DIFlagArtificial | DIFlagObjectPointer)
!313 = !DIDerivedType(tag: DW_TAG_reference_type, baseType: !314, size: 64)
!314 = !DIDerivedType(tag: DW_TAG_const_type, baseType: !116)
!315 = !DISubprogram(name: "tuple", scope: !116, file: !117, line: 983, type: !316, scopeLine: 983, flags: DIFlagPublic | DIFlagPrototyped, spFlags: 0)
!316 = !DISubroutineType(types: !317)
!317 = !{null, !312, !318}
!318 = !DIDerivedType(tag: DW_TAG_rvalue_reference_type, baseType: !116, size: 64)
!319 = !DISubprogram(name: "operator=", linkageName: "_ZNSt5tupleIJPNSt6thread6_StateESt14default_deleteIS1_EEEaSERKS5_", scope: !116, file: !117, line: 1205, type: !320, scopeLine: 1205, flags: DIFlagPublic | DIFlagPrototyped, spFlags: 0)
!320 = !DISubroutineType(types: !321)
!321 = !{!322, !312, !323}
!322 = !DIDerivedType(tag: DW_TAG_reference_type, baseType: !116, size: 64)
!323 = !DIDerivedType(tag: DW_TAG_typedef, name: "type", scope: !324, file: !38, line: 2054, baseType: !313)
!324 = distinct !DICompositeType(tag: DW_TAG_structure_type, name: "conditional<true, const std::tuple<std::thread::_State *, std::default_delete<std::thread::_State> > &, const std::__nonesuch_no_braces &>", scope: !2, file: !38, line: 2053, size: 8, flags: DIFlagTypePassByValue, elements: !40, templateParams: !325, identifier: "_ZTSSt11conditionalILb1ERKSt5tupleIJPNSt6thread6_StateESt14default_deleteIS2_EEERKSt20__nonesuch_no_bracesE")
!325 = !{!326, !327, !328}
!326 = !DITemplateValueParameter(name: "_Cond", type: !86, value: i1 true)
!327 = !DITemplateTypeParameter(name: "_Iftrue", type: !313)
!328 = !DITemplateTypeParameter(name: "_Iffalse", type: !329)
!329 = !DIDerivedType(tag: DW_TAG_reference_type, baseType: !330, size: 64)
!330 = !DIDerivedType(tag: DW_TAG_const_type, baseType: !331)
!331 = !DICompositeType(tag: DW_TAG_structure_type, name: "__nonesuch_no_braces", scope: !2, file: !332, line: 185, size: 8, flags: DIFlagFwdDecl | DIFlagNonTrivial, identifier: "_ZTSSt20__nonesuch_no_braces")
!332 = !DIFile(filename: "/usr/lib/gcc/x86_64-linux-gnu/9/../../../../include/c++/9/bits/stl_pair.h", directory: "", checksumkind: CSK_MD5, checksum: "17e15386fd23a497aa1e369bdbc2175b")
!333 = !DISubprogram(name: "operator=", linkageName: "_ZNSt5tupleIJPNSt6thread6_StateESt14default_deleteIS1_EEEaSEOS5_", scope: !116, file: !117, line: 1215, type: !334, scopeLine: 1215, flags: DIFlagPublic | DIFlagPrototyped, spFlags: 0)
!334 = !DISubroutineType(types: !335)
!335 = !{!322, !312, !336}
!336 = !DIDerivedType(tag: DW_TAG_typedef, name: "type", scope: !337, file: !38, line: 2054, baseType: !318)
!337 = distinct !DICompositeType(tag: DW_TAG_structure_type, name: "conditional<true, std::tuple<std::thread::_State *, std::default_delete<std::thread::_State> > &&, std::__nonesuch_no_braces &&>", scope: !2, file: !38, line: 2053, size: 8, flags: DIFlagTypePassByValue, elements: !40, templateParams: !338, identifier: "_ZTSSt11conditionalILb1EOSt5tupleIJPNSt6thread6_StateESt14default_deleteIS2_EEEOSt20__nonesuch_no_bracesE")
!338 = !{!326, !339, !340}
!339 = !DITemplateTypeParameter(name: "_Iftrue", type: !318)
!340 = !DITemplateTypeParameter(name: "_Iffalse", type: !341)
!341 = !DIDerivedType(tag: DW_TAG_rvalue_reference_type, baseType: !331, size: 64)
!342 = !DISubprogram(name: "swap", linkageName: "_ZNSt5tupleIJPNSt6thread6_StateESt14default_deleteIS1_EEE4swapERS5_", scope: !116, file: !117, line: 1263, type: !343, scopeLine: 1263, flags: DIFlagPublic | DIFlagPrototyped, spFlags: 0)
!343 = !DISubroutineType(types: !344)
!344 = !{null, !312, !322}
!345 = !{!306}
!346 = !DISubprogram(name: "__uniq_ptr_impl", scope: !113, file: !110, line: 146, type: !347, scopeLine: 146, flags: DIFlagPublic | DIFlagPrototyped, spFlags: 0)
!347 = !DISubroutineType(types: !348)
!348 = !{null, !349}
!349 = !DIDerivedType(tag: DW_TAG_pointer_type, baseType: !113, size: 64, flags: DIFlagArtificial | DIFlagObjectPointer)
!350 = !DISubprogram(name: "__uniq_ptr_impl", scope: !113, file: !110, line: 147, type: !351, scopeLine: 147, flags: DIFlagPublic | DIFlagPrototyped, spFlags: 0)
!351 = !DISubroutineType(types: !352)
!352 = !{null, !349, !353}
!353 = !DIDerivedType(tag: DW_TAG_typedef, name: "pointer", scope: !113, file: !110, line: 140, baseType: !354, flags: DIFlagPublic)
!354 = !DIDerivedType(tag: DW_TAG_typedef, name: "type", scope: !355, file: !110, line: 125, baseType: !140)
!355 = distinct !DICompositeType(tag: DW_TAG_structure_type, name: "_Ptr<std::thread::_State, std::default_delete<std::thread::_State>, void>", scope: !113, file: !110, line: 123, size: 8, flags: DIFlagTypePassByValue, elements: !40, templateParams: !356, identifier: "_ZTSNSt15__uniq_ptr_implINSt6thread6_StateESt14default_deleteIS1_EE4_PtrIS1_S3_vEE")
!356 = !{!357, !358, !359}
!357 = !DITemplateTypeParameter(name: "_Up", type: !141)
!358 = !DITemplateTypeParameter(name: "_Ep", type: !129)
!359 = !DITemplateTypeParameter(type: null, defaulted: true)
!360 = !DISubprogram(name: "_M_ptr", linkageName: "_ZNSt15__uniq_ptr_implINSt6thread6_StateESt14default_deleteIS1_EE6_M_ptrEv", scope: !113, file: !110, line: 153, type: !361, scopeLine: 153, flags: DIFlagPublic | DIFlagPrototyped, spFlags: 0)
!361 = !DISubroutineType(types: !362)
!362 = !{!363, !349}
!363 = !DIDerivedType(tag: DW_TAG_reference_type, baseType: !353, size: 64)
!364 = !DISubprogram(name: "_M_ptr", linkageName: "_ZNKSt15__uniq_ptr_implINSt6thread6_StateESt14default_deleteIS1_EE6_M_ptrEv", scope: !113, file: !110, line: 154, type: !365, scopeLine: 154, flags: DIFlagPublic | DIFlagPrototyped, spFlags: 0)
!365 = !DISubroutineType(types: !366)
!366 = !{!353, !367}
!367 = !DIDerivedType(tag: DW_TAG_pointer_type, baseType: !368, size: 64, flags: DIFlagArtificial | DIFlagObjectPointer)
!368 = !DIDerivedType(tag: DW_TAG_const_type, baseType: !113)
!369 = !DISubprogram(name: "_M_deleter", linkageName: "_ZNSt15__uniq_ptr_implINSt6thread6_StateESt14default_deleteIS1_EE10_M_deleterEv", scope: !113, file: !110, line: 155, type: !370, scopeLine: 155, flags: DIFlagPublic | DIFlagPrototyped, spFlags: 0)
!370 = !DISubroutineType(types: !371)
!371 = !{!187, !349}
!372 = !DISubprogram(name: "_M_deleter", linkageName: "_ZNKSt15__uniq_ptr_implINSt6thread6_StateESt14default_deleteIS1_EE10_M_deleterEv", scope: !113, file: !110, line: 156, type: !373, scopeLine: 156, flags: DIFlagPublic | DIFlagPrototyped, spFlags: 0)
!373 = !DISubroutineType(types: !374)
!374 = !{!151, !367}
!375 = !DISubprogram(name: "swap", linkageName: "_ZNSt15__uniq_ptr_implINSt6thread6_StateESt14default_deleteIS1_EE4swapERS4_", scope: !113, file: !110, line: 159, type: !376, scopeLine: 159, flags: DIFlagPublic | DIFlagPrototyped, spFlags: 0)
!376 = !DISubroutineType(types: !377)
!377 = !{null, !349, !378}
!378 = !DIDerivedType(tag: DW_TAG_reference_type, baseType: !113, size: 64)
!379 = !{!143, !380}
!380 = !DITemplateTypeParameter(name: "_Dp", type: !129)
!381 = !DISubprogram(name: "unique_ptr", scope: !109, file: !110, line: 257, type: !382, scopeLine: 257, flags: DIFlagPublic | DIFlagPrototyped, spFlags: 0)
!382 = !DISubroutineType(types: !383)
!383 = !{null, !384, !385}
!384 = !DIDerivedType(tag: DW_TAG_pointer_type, baseType: !109, size: 64, flags: DIFlagArtificial | DIFlagObjectPointer)
!385 = !DIDerivedType(tag: DW_TAG_rvalue_reference_type, baseType: !109, size: 64)
!386 = !DISubprogram(name: "~unique_ptr", scope: !109, file: !110, line: 286, type: !387, scopeLine: 286, flags: DIFlagPublic | DIFlagPrototyped, spFlags: 0)
!387 = !DISubroutineType(types: !388)
!388 = !{null, !384}
!389 = !DISubprogram(name: "operator=", linkageName: "_ZNSt10unique_ptrINSt6thread6_StateESt14default_deleteIS1_EEaSEOS4_", scope: !109, file: !110, line: 305, type: !390, scopeLine: 305, flags: DIFlagPublic | DIFlagPrototyped, spFlags: 0)
!390 = !DISubroutineType(types: !391)
!391 = !{!392, !384, !385}
!392 = !DIDerivedType(tag: DW_TAG_reference_type, baseType: !109, size: 64)
!393 = !DISubprogram(name: "operator=", linkageName: "_ZNSt10unique_ptrINSt6thread6_StateESt14default_deleteIS1_EEaSEDn", scope: !109, file: !110, line: 334, type: !394, scopeLine: 334, flags: DIFlagPublic | DIFlagPrototyped, spFlags: 0)
!394 = !DISubroutineType(types: !395)
!395 = !{!392, !384, !396}
!396 = !DIDerivedType(tag: DW_TAG_typedef, name: "nullptr_t", scope: !2, file: !397, line: 262, baseType: !398)
!397 = !DIFile(filename: "/usr/lib/gcc/x86_64-linux-gnu/9/../../../../include/x86_64-linux-gnu/c++/9/bits/c++config.h", directory: "", checksumkind: CSK_MD5, checksum: "f271377c6e7185560bbbc0bac2bc77fa")
!398 = !DIBasicType(tag: DW_TAG_unspecified_type, name: "decltype(nullptr)")
!399 = !DISubprogram(name: "operator*", linkageName: "_ZNKSt10unique_ptrINSt6thread6_StateESt14default_deleteIS1_EEdeEv", scope: !109, file: !110, line: 344, type: !400, scopeLine: 344, flags: DIFlagPublic | DIFlagPrototyped, spFlags: 0)
!400 = !DISubroutineType(types: !401)
!401 = !{!402, !406}
!402 = !DIDerivedType(tag: DW_TAG_typedef, name: "type", scope: !403, file: !38, line: 1467, baseType: !405)
!403 = distinct !DICompositeType(tag: DW_TAG_structure_type, name: "__add_lvalue_reference_helper<std::thread::_State, true>", scope: !2, file: !38, line: 1466, size: 8, flags: DIFlagTypePassByValue, elements: !40, templateParams: !404, identifier: "_ZTSSt29__add_lvalue_reference_helperINSt6thread6_StateELb1EE")
!404 = !{!143, !195}
!405 = !DIDerivedType(tag: DW_TAG_reference_type, baseType: !141, size: 64)
!406 = !DIDerivedType(tag: DW_TAG_pointer_type, baseType: !407, size: 64, flags: DIFlagArtificial | DIFlagObjectPointer)
!407 = !DIDerivedType(tag: DW_TAG_const_type, baseType: !109)
!408 = !DISubprogram(name: "operator->", linkageName: "_ZNKSt10unique_ptrINSt6thread6_StateESt14default_deleteIS1_EEptEv", scope: !109, file: !110, line: 352, type: !409, scopeLine: 352, flags: DIFlagPublic | DIFlagPrototyped, spFlags: 0)
!409 = !DISubroutineType(types: !410)
!410 = !{!411, !406}
!411 = !DIDerivedType(tag: DW_TAG_typedef, name: "pointer", scope: !109, file: !110, line: 181, baseType: !353, flags: DIFlagPublic)
!412 = !DISubprogram(name: "get", linkageName: "_ZNKSt10unique_ptrINSt6thread6_StateESt14default_deleteIS1_EE3getEv", scope: !109, file: !110, line: 360, type: !409, scopeLine: 360, flags: DIFlagPublic | DIFlagPrototyped, spFlags: 0)
!413 = !DISubprogram(name: "get_deleter", linkageName: "_ZNSt10unique_ptrINSt6thread6_StateESt14default_deleteIS1_EE11get_deleterEv", scope: !109, file: !110, line: 365, type: !414, scopeLine: 365, flags: DIFlagPublic | DIFlagPrototyped, spFlags: 0)
!414 = !DISubroutineType(types: !415)
!415 = !{!416, !384}
!416 = !DIDerivedType(tag: DW_TAG_reference_type, baseType: !417, size: 64)
!417 = !DIDerivedType(tag: DW_TAG_typedef, name: "deleter_type", scope: !109, file: !110, line: 183, baseType: !129, flags: DIFlagPublic)
!418 = !DISubprogram(name: "get_deleter", linkageName: "_ZNKSt10unique_ptrINSt6thread6_StateESt14default_deleteIS1_EE11get_deleterEv", scope: !109, file: !110, line: 370, type: !419, scopeLine: 370, flags: DIFlagPublic | DIFlagPrototyped, spFlags: 0)
!419 = !DISubroutineType(types: !420)
!420 = !{!421, !406}
!421 = !DIDerivedType(tag: DW_TAG_reference_type, baseType: !422, size: 64)
!422 = !DIDerivedType(tag: DW_TAG_const_type, baseType: !417)
!423 = !DISubprogram(name: "operator bool", linkageName: "_ZNKSt10unique_ptrINSt6thread6_StateESt14default_deleteIS1_EEcvbEv", scope: !109, file: !110, line: 374, type: !424, scopeLine: 374, flags: DIFlagPublic | DIFlagExplicit | DIFlagPrototyped, spFlags: 0)
!424 = !DISubroutineType(types: !425)
!425 = !{!86, !406}
!426 = !DISubprogram(name: "release", linkageName: "_ZNSt10unique_ptrINSt6thread6_StateESt14default_deleteIS1_EE7releaseEv", scope: !109, file: !110, line: 381, type: !427, scopeLine: 381, flags: DIFlagPublic | DIFlagPrototyped, spFlags: 0)
!427 = !DISubroutineType(types: !428)
!428 = !{!411, !384}
!429 = !DISubprogram(name: "reset", linkageName: "_ZNSt10unique_ptrINSt6thread6_StateESt14default_deleteIS1_EE5resetEPS1_", scope: !109, file: !110, line: 395, type: !430, scopeLine: 395, flags: DIFlagPublic | DIFlagPrototyped, spFlags: 0)
!430 = !DISubroutineType(types: !431)
!431 = !{null, !384, !411}
!432 = !DISubprogram(name: "swap", linkageName: "_ZNSt10unique_ptrINSt6thread6_StateESt14default_deleteIS1_EE4swapERS4_", scope: !109, file: !110, line: 407, type: !433, scopeLine: 407, flags: DIFlagPublic | DIFlagPrototyped, spFlags: 0)
!433 = !DISubroutineType(types: !434)
!434 = !{null, !384, !392}
!435 = !DISubprogram(name: "unique_ptr", scope: !109, file: !110, line: 414, type: !436, scopeLine: 414, flags: DIFlagPublic | DIFlagPrototyped, spFlags: DISPFlagDeleted)
!436 = !DISubroutineType(types: !437)
!437 = !{null, !384, !438}
!438 = !DIDerivedType(tag: DW_TAG_reference_type, baseType: !407, size: 64)
!439 = !DISubprogram(name: "operator=", linkageName: "_ZNSt10unique_ptrINSt6thread6_StateESt14default_deleteIS1_EEaSERKS4_", scope: !109, file: !110, line: 415, type: !440, scopeLine: 415, flags: DIFlagPublic | DIFlagPrototyped, spFlags: DISPFlagDeleted)
!440 = !DISubroutineType(types: !441)
!441 = !{!392, !384, !438}
!442 = !{!143, !443}
!443 = !DITemplateTypeParameter(name: "_Dp", type: !129, defaulted: true)
!444 = !{!445, !446, !450}
!445 = !DIDerivedType(tag: DW_TAG_member, name: "_M_thread", scope: !54, file: !55, line: 79, baseType: !96, size: 64)
!446 = !DISubprogram(name: "id", scope: !54, file: !55, line: 82, type: !447, scopeLine: 82, flags: DIFlagPublic | DIFlagPrototyped, spFlags: 0)
!447 = !DISubroutineType(types: !448)
!448 = !{null, !449}
!449 = !DIDerivedType(tag: DW_TAG_pointer_type, baseType: !54, size: 64, flags: DIFlagArtificial | DIFlagObjectPointer)
!450 = !DISubprogram(name: "id", scope: !54, file: !55, line: 85, type: !451, scopeLine: 85, flags: DIFlagPublic | DIFlagExplicit | DIFlagPrototyped, spFlags: 0)
!451 = !DISubroutineType(types: !452)
!452 = !{null, !449, !96}
!453 = distinct !DICompositeType(tag: DW_TAG_structure_type, name: "_Head_base<0UL, void (*)(), false>", scope: !2, file: !117, line: 120, size: 64, flags: DIFlagTypePassByValue | DIFlagNonTrivial, elements: !454, templateParams: !485, identifier: "_ZTSSt10_Head_baseILm0EPFvvELb0EE")
!454 = !{!455, !456, !460, !465, !470, !474, !477, !482}
!455 = !DIDerivedType(tag: DW_TAG_member, name: "_M_head_impl", scope: !453, file: !117, line: 165, baseType: !29, size: 64)
!456 = !DISubprogram(name: "_Head_base", scope: !453, file: !117, line: 122, type: !457, scopeLine: 122, flags: DIFlagPrototyped, spFlags: 0)
!457 = !DISubroutineType(types: !458)
!458 = !{null, !459}
!459 = !DIDerivedType(tag: DW_TAG_pointer_type, baseType: !453, size: 64, flags: DIFlagArtificial | DIFlagObjectPointer)
!460 = !DISubprogram(name: "_Head_base", scope: !453, file: !117, line: 125, type: !461, scopeLine: 125, flags: DIFlagPrototyped, spFlags: 0)
!461 = !DISubroutineType(types: !462)
!462 = !{null, !459, !463}
!463 = !DIDerivedType(tag: DW_TAG_reference_type, baseType: !464, size: 64)
!464 = !DIDerivedType(tag: DW_TAG_const_type, baseType: !29)
!465 = !DISubprogram(name: "_Head_base", scope: !453, file: !117, line: 128, type: !466, scopeLine: 128, flags: DIFlagPrototyped, spFlags: 0)
!466 = !DISubroutineType(types: !467)
!467 = !{null, !459, !468}
!468 = !DIDerivedType(tag: DW_TAG_reference_type, baseType: !469, size: 64)
!469 = !DIDerivedType(tag: DW_TAG_const_type, baseType: !453)
!470 = !DISubprogram(name: "_Head_base", scope: !453, file: !117, line: 129, type: !471, scopeLine: 129, flags: DIFlagPrototyped, spFlags: 0)
!471 = !DISubroutineType(types: !472)
!472 = !{null, !459, !473}
!473 = !DIDerivedType(tag: DW_TAG_rvalue_reference_type, baseType: !453, size: 64)
!474 = !DISubprogram(name: "_Head_base", scope: !453, file: !117, line: 135, type: !475, scopeLine: 135, flags: DIFlagPrototyped, spFlags: 0)
!475 = !DISubroutineType(types: !476)
!476 = !{null, !459, !164, !171}
!477 = !DISubprogram(name: "_M_head", linkageName: "_ZNSt10_Head_baseILm0EPFvvELb0EE7_M_headERS2_", scope: !453, file: !117, line: 160, type: !478, scopeLine: 160, flags: DIFlagPrototyped | DIFlagStaticMember, spFlags: 0)
!478 = !DISubroutineType(types: !479)
!479 = !{!480, !481}
!480 = !DIDerivedType(tag: DW_TAG_reference_type, baseType: !29, size: 64)
!481 = !DIDerivedType(tag: DW_TAG_reference_type, baseType: !453, size: 64)
!482 = !DISubprogram(name: "_M_head", linkageName: "_ZNSt10_Head_baseILm0EPFvvELb0EE7_M_headERKS2_", scope: !453, file: !117, line: 163, type: !483, scopeLine: 163, flags: DIFlagPrototyped | DIFlagStaticMember, spFlags: 0)
!483 = !DISubroutineType(types: !484)
!484 = !{!463, !468}
!485 = !{!263, !486, !265}
!486 = !DITemplateTypeParameter(name: "_Head", type: !29)
!487 = distinct !DICompositeType(tag: DW_TAG_structure_type, name: "_Tuple_impl<0UL, void (*)()>", scope: !2, file: !117, line: 326, size: 64, flags: DIFlagTypePassByReference | DIFlagNonTrivial, elements: !488, templateParams: !519, identifier: "_ZTSSt11_Tuple_implILm0EJPFvvEEE")
!488 = !{!489, !490, !494, !499, !503, !506, !509, !512, !516}
!489 = !DIDerivedType(tag: DW_TAG_inheritance, scope: !487, baseType: !453, flags: DIFlagPrivate, extraData: i32 0)
!490 = !DISubprogram(name: "_M_head", linkageName: "_ZNSt11_Tuple_implILm0EJPFvvEEE7_M_headERS2_", scope: !487, file: !117, line: 334, type: !491, scopeLine: 334, flags: DIFlagPrototyped | DIFlagStaticMember, spFlags: 0)
!491 = !DISubroutineType(types: !492)
!492 = !{!480, !493}
!493 = !DIDerivedType(tag: DW_TAG_reference_type, baseType: !487, size: 64)
!494 = !DISubprogram(name: "_M_head", linkageName: "_ZNSt11_Tuple_implILm0EJPFvvEEE7_M_headERKS2_", scope: !487, file: !117, line: 337, type: !495, scopeLine: 337, flags: DIFlagPrototyped | DIFlagStaticMember, spFlags: 0)
!495 = !DISubroutineType(types: !496)
!496 = !{!463, !497}
!497 = !DIDerivedType(tag: DW_TAG_reference_type, baseType: !498, size: 64)
!498 = !DIDerivedType(tag: DW_TAG_const_type, baseType: !487)
!499 = !DISubprogram(name: "_Tuple_impl", scope: !487, file: !117, line: 339, type: !500, scopeLine: 339, flags: DIFlagPrototyped, spFlags: 0)
!500 = !DISubroutineType(types: !501)
!501 = !{null, !502}
!502 = !DIDerivedType(tag: DW_TAG_pointer_type, baseType: !487, size: 64, flags: DIFlagArtificial | DIFlagObjectPointer)
!503 = !DISubprogram(name: "_Tuple_impl", scope: !487, file: !117, line: 343, type: !504, scopeLine: 343, flags: DIFlagExplicit | DIFlagPrototyped, spFlags: 0)
!504 = !DISubroutineType(types: !505)
!505 = !{null, !502, !463}
!506 = !DISubprogram(name: "_Tuple_impl", scope: !487, file: !117, line: 351, type: !507, scopeLine: 351, flags: DIFlagPrototyped, spFlags: 0)
!507 = !DISubroutineType(types: !508)
!508 = !{null, !502, !497}
!509 = !DISubprogram(name: "operator=", linkageName: "_ZNSt11_Tuple_implILm0EJPFvvEEEaSERKS2_", scope: !487, file: !117, line: 355, type: !510, scopeLine: 355, flags: DIFlagPrototyped, spFlags: DISPFlagDeleted)
!510 = !DISubroutineType(types: !511)
!511 = !{!493, !502, !497}
!512 = !DISubprogram(name: "_Tuple_impl", scope: !487, file: !117, line: 358, type: !513, scopeLine: 358, flags: DIFlagPrototyped, spFlags: 0)
!513 = !DISubroutineType(types: !514)
!514 = !{null, !502, !515}
!515 = !DIDerivedType(tag: DW_TAG_rvalue_reference_type, baseType: !487, size: 64)
!516 = !DISubprogram(name: "_M_swap", linkageName: "_ZNSt11_Tuple_implILm0EJPFvvEEE7_M_swapERS2_", scope: !487, file: !117, line: 427, type: !517, scopeLine: 427, flags: DIFlagProtected | DIFlagPrototyped, spFlags: 0)
!517 = !DISubroutineType(types: !518)
!518 = !{null, !502, !493}
!519 = !{!263, !520}
!520 = !DITemplateValueParameter(tag: DW_TAG_GNU_template_parameter_pack, name: "_Elements", value: !521)
!521 = !{!522}
!522 = !DITemplateTypeParameter(type: !29)
!523 = distinct !DICompositeType(tag: DW_TAG_class_type, name: "tuple<void (*)()>", scope: !2, file: !117, line: 523, size: 64, flags: DIFlagTypePassByReference | DIFlagNonTrivial, elements: !524, templateParams: !554, identifier: "_ZTSSt5tupleIJPFvvEEE")
!524 = !{!525, !526, !532, !536, !544, !551}
!525 = !DIDerivedType(tag: DW_TAG_inheritance, scope: !523, baseType: !487, flags: DIFlagPublic, extraData: i32 0)
!526 = !DISubprogram(name: "tuple", scope: !523, file: !117, line: 640, type: !527, scopeLine: 640, flags: DIFlagPublic | DIFlagPrototyped, spFlags: 0)
!527 = !DISubroutineType(types: !528)
!528 = !{null, !529, !530}
!529 = !DIDerivedType(tag: DW_TAG_pointer_type, baseType: !523, size: 64, flags: DIFlagArtificial | DIFlagObjectPointer)
!530 = !DIDerivedType(tag: DW_TAG_reference_type, baseType: !531, size: 64)
!531 = !DIDerivedType(tag: DW_TAG_const_type, baseType: !523)
!532 = !DISubprogram(name: "tuple", scope: !523, file: !117, line: 642, type: !533, scopeLine: 642, flags: DIFlagPublic | DIFlagPrototyped, spFlags: 0)
!533 = !DISubroutineType(types: !534)
!534 = !{null, !529, !535}
!535 = !DIDerivedType(tag: DW_TAG_rvalue_reference_type, baseType: !523, size: 64)
!536 = !DISubprogram(name: "operator=", linkageName: "_ZNSt5tupleIJPFvvEEEaSERKS2_", scope: !523, file: !117, line: 817, type: !537, scopeLine: 817, flags: DIFlagPublic | DIFlagPrototyped, spFlags: 0)
!537 = !DISubroutineType(types: !538)
!538 = !{!539, !529, !540}
!539 = !DIDerivedType(tag: DW_TAG_reference_type, baseType: !523, size: 64)
!540 = !DIDerivedType(tag: DW_TAG_typedef, name: "type", scope: !541, file: !38, line: 2054, baseType: !530)
!541 = distinct !DICompositeType(tag: DW_TAG_structure_type, name: "conditional<true, const std::tuple<void (*)()> &, const std::__nonesuch_no_braces &>", scope: !2, file: !38, line: 2053, size: 8, flags: DIFlagTypePassByValue, elements: !40, templateParams: !542, identifier: "_ZTSSt11conditionalILb1ERKSt5tupleIJPFvvEEERKSt20__nonesuch_no_bracesE")
!542 = !{!326, !543, !328}
!543 = !DITemplateTypeParameter(name: "_Iftrue", type: !530)
!544 = !DISubprogram(name: "operator=", linkageName: "_ZNSt5tupleIJPFvvEEEaSEOS2_", scope: !523, file: !117, line: 827, type: !545, scopeLine: 827, flags: DIFlagPublic | DIFlagPrototyped, spFlags: 0)
!545 = !DISubroutineType(types: !546)
!546 = !{!539, !529, !547}
!547 = !DIDerivedType(tag: DW_TAG_typedef, name: "type", scope: !548, file: !38, line: 2054, baseType: !535)
!548 = distinct !DICompositeType(tag: DW_TAG_structure_type, name: "conditional<true, std::tuple<void (*)()> &&, std::__nonesuch_no_braces &&>", scope: !2, file: !38, line: 2053, size: 8, flags: DIFlagTypePassByValue, elements: !40, templateParams: !549, identifier: "_ZTSSt11conditionalILb1EOSt5tupleIJPFvvEEEOSt20__nonesuch_no_bracesE")
!549 = !{!326, !550, !340}
!550 = !DITemplateTypeParameter(name: "_Iftrue", type: !535)
!551 = !DISubprogram(name: "swap", linkageName: "_ZNSt5tupleIJPFvvEEE4swapERS2_", scope: !523, file: !117, line: 856, type: !552, scopeLine: 856, flags: DIFlagPublic | DIFlagPrototyped, spFlags: 0)
!552 = !DISubroutineType(types: !553)
!553 = !{null, !529, !539}
!554 = !{!520}
!555 = distinct !DICompositeType(tag: DW_TAG_structure_type, name: "_Invoker<std::tuple<void (*)()> >", scope: !56, file: !55, line: 230, size: 64, flags: DIFlagTypePassByReference | DIFlagNonTrivial, elements: !556, templateParams: !562, identifier: "_ZTSNSt6thread8_InvokerISt5tupleIJPFvvEEEEE")
!556 = !{!557, !558}
!557 = !DIDerivedType(tag: DW_TAG_member, name: "_M_t", scope: !555, file: !55, line: 232, baseType: !523, size: 64)
!558 = !DISubprogram(name: "operator()", linkageName: "_ZNSt6thread8_InvokerISt5tupleIJPFvvEEEEclEv", scope: !555, file: !55, line: 247, type: !559, scopeLine: 247, flags: DIFlagPrototyped, spFlags: 0)
!559 = !DISubroutineType(types: !560)
!560 = !{!37, !561}
!561 = !DIDerivedType(tag: DW_TAG_pointer_type, baseType: !555, size: 64, flags: DIFlagArtificial | DIFlagObjectPointer)
!562 = !{!563}
!563 = !DITemplateTypeParameter(name: "_Tuple", type: !523)
!564 = !{!0, !7, !15}
!565 = !{!566, !584, !587, !592, !600, !608, !612, !619, !623, !627, !629, !631, !635, !645, !649, !655, !661, !663, !667, !671, !675, !679, !691, !693, !697, !701, !705, !707, !713, !717, !721, !723, !725, !729, !737, !741, !745, !749, !751, !757, !759, !766, !771, !775, !780, !784, !788, !792, !794, !796, !800, !804, !808, !810, !814, !818, !820, !822, !826, !831, !836, !841, !842, !843, !844, !845, !846, !847, !848, !849, !850, !851, !855, !859, !863, !870, !874, !877, !880, !883, !885, !887, !889, !892, !895, !898, !901, !904, !906, !911, !915, !918, !921, !923, !925, !927, !929, !932, !935, !938, !941, !944, !946, !950, !954, !959, !965, !967, !969, !971, !973, !975, !977, !979, !981, !983, !985, !987, !989, !991, !994, !996, !1000, !1004, !1010, !1012, !1016, !1020, !1022, !1026, !1030, !1034, !1042, !1044, !1048, !1052, !1056, !1060, !1064, !1068, !1072, !1076, !1080, !1084, !1088, !1090, !1094, !1098, !1102, !1108, !1112, !1116, !1118, !1122, !1126, !1132, !1134, !1138, !1142, !1146, !1150, !1154, !1158, !1162, !1163, !1164, !1165, !1167, !1168, !1169, !1170, !1171, !1172, !1173, !1177, !1183, !1188, !1192, !1194, !1196, !1198, !1200, !1207, !1211, !1215, !1219, !1223, !1227, !1232, !1236, !1238, !1242, !1248, !1252, !1257, !1259, !1261, !1265, !1269, !1271, !1273, !1275, !1277, !1281, !1283, !1285, !1289, !1293, !1297, !1301, !1305, !1309, !1311, !1315, !1319, !1323, !1327, !1329, !1331, !1335, !1339, !1340, !1341, !1342, !1343, !1344, !1350, !1353, !1354, !1356, !1358, !1360, !1362, !1366, !1368, !1370, !1372, !1374, !1376, !1378, !1380, !1382, !1386, !1390, !1392, !1396, !1400, !1405, !1409, !1410, !1415, !1419, !1424, !1429, !1433, !1439, !1443, !1445, !1449, !1456, !1461, !1466, !1468}
!566 = !DIImportedEntity(tag: DW_TAG_imported_declaration, scope: !2, entity: !567, file: !583, line: 64)
!567 = !DIDerivedType(tag: DW_TAG_typedef, name: "mbstate_t", file: !568, line: 6, baseType: !569)
!568 = !DIFile(filename: "/usr/include/x86_64-linux-gnu/bits/types/mbstate_t.h", directory: "", checksumkind: CSK_MD5, checksum: "ba8742313715e20e434cf6ccb2db98e3")
!569 = !DIDerivedType(tag: DW_TAG_typedef, name: "__mbstate_t", file: !570, line: 21, baseType: !571)
!570 = !DIFile(filename: "/usr/include/x86_64-linux-gnu/bits/types/__mbstate_t.h", directory: "", checksumkind: CSK_MD5, checksum: "82911a3e689448e3691ded3e0b471a55")
!571 = distinct !DICompositeType(tag: DW_TAG_structure_type, file: !570, line: 13, size: 64, flags: DIFlagTypePassByValue, elements: !572, identifier: "_ZTS11__mbstate_t")
!572 = !{!573, !575}
!573 = !DIDerivedType(tag: DW_TAG_member, name: "__count", scope: !571, file: !570, line: 15, baseType: !574, size: 32)
!574 = !DIBasicType(name: "int", size: 32, encoding: DW_ATE_signed)
!575 = !DIDerivedType(tag: DW_TAG_member, name: "__value", scope: !571, file: !570, line: 20, baseType: !576, size: 32, offset: 32)
!576 = distinct !DICompositeType(tag: DW_TAG_union_type, scope: !571, file: !570, line: 16, size: 32, flags: DIFlagTypePassByValue, elements: !577, identifier: "_ZTSN11__mbstate_tUt_E")
!577 = !{!578, !579}
!578 = !DIDerivedType(tag: DW_TAG_member, name: "__wch", scope: !576, file: !570, line: 18, baseType: !23, size: 32)
!579 = !DIDerivedType(tag: DW_TAG_member, name: "__wchb", scope: !576, file: !570, line: 19, baseType: !580, size: 32)
!580 = !DICompositeType(tag: DW_TAG_array_type, baseType: !12, size: 32, elements: !581)
!581 = !{!582}
!582 = !DISubrange(count: 4)
!583 = !DIFile(filename: "/usr/lib/gcc/x86_64-linux-gnu/9/../../../../include/c++/9/cwchar", directory: "")
!584 = !DIImportedEntity(tag: DW_TAG_imported_declaration, scope: !2, entity: !585, file: !583, line: 141)
!585 = !DIDerivedType(tag: DW_TAG_typedef, name: "wint_t", file: !586, line: 20, baseType: !23)
!586 = !DIFile(filename: "/usr/include/x86_64-linux-gnu/bits/types/wint_t.h", directory: "", checksumkind: CSK_MD5, checksum: "aa31b53ef28dc23152ceb41e2763ded3")
!587 = !DIImportedEntity(tag: DW_TAG_imported_declaration, scope: !2, entity: !588, file: !583, line: 143)
!588 = !DISubprogram(name: "btowc", scope: !589, file: !589, line: 284, type: !590, flags: DIFlagPrototyped, spFlags: 0)
!589 = !DIFile(filename: "/usr/include/wchar.h", directory: "", checksumkind: CSK_MD5, checksum: "8900d9ecbbe40d052c41becfbc5b5531")
!590 = !DISubroutineType(types: !591)
!591 = !{!585, !574}
!592 = !DIImportedEntity(tag: DW_TAG_imported_declaration, scope: !2, entity: !593, file: !583, line: 144)
!593 = !DISubprogram(name: "fgetwc", scope: !589, file: !589, line: 726, type: !594, flags: DIFlagPrototyped, spFlags: 0)
!594 = !DISubroutineType(types: !595)
!595 = !{!585, !596}
!596 = !DIDerivedType(tag: DW_TAG_pointer_type, baseType: !597, size: 64)
!597 = !DIDerivedType(tag: DW_TAG_typedef, name: "__FILE", file: !598, line: 5, baseType: !599)
!598 = !DIFile(filename: "/usr/include/x86_64-linux-gnu/bits/types/__FILE.h", directory: "", checksumkind: CSK_MD5, checksum: "72a8fe90981f484acae7c6f3dfc5c2b7")
!599 = !DICompositeType(tag: DW_TAG_structure_type, name: "_IO_FILE", file: !598, line: 4, flags: DIFlagFwdDecl | DIFlagNonTrivial, identifier: "_ZTS8_IO_FILE")
!600 = !DIImportedEntity(tag: DW_TAG_imported_declaration, scope: !2, entity: !601, file: !583, line: 145)
!601 = !DISubprogram(name: "fgetws", scope: !589, file: !589, line: 755, type: !602, flags: DIFlagPrototyped, spFlags: 0)
!602 = !DISubroutineType(types: !603)
!603 = !{!604, !606, !574, !607}
!604 = !DIDerivedType(tag: DW_TAG_pointer_type, baseType: !605, size: 64)
!605 = !DIBasicType(name: "wchar_t", size: 32, encoding: DW_ATE_signed)
!606 = !DIDerivedType(tag: DW_TAG_restrict_type, baseType: !604)
!607 = !DIDerivedType(tag: DW_TAG_restrict_type, baseType: !596)
!608 = !DIImportedEntity(tag: DW_TAG_imported_declaration, scope: !2, entity: !609, file: !583, line: 146)
!609 = !DISubprogram(name: "fputwc", scope: !589, file: !589, line: 740, type: !610, flags: DIFlagPrototyped, spFlags: 0)
!610 = !DISubroutineType(types: !611)
!611 = !{!585, !605, !596}
!612 = !DIImportedEntity(tag: DW_TAG_imported_declaration, scope: !2, entity: !613, file: !583, line: 147)
!613 = !DISubprogram(name: "fputws", scope: !589, file: !589, line: 762, type: !614, flags: DIFlagPrototyped, spFlags: 0)
!614 = !DISubroutineType(types: !615)
!615 = !{!574, !616, !607}
!616 = !DIDerivedType(tag: DW_TAG_restrict_type, baseType: !617)
!617 = !DIDerivedType(tag: DW_TAG_pointer_type, baseType: !618, size: 64)
!618 = !DIDerivedType(tag: DW_TAG_const_type, baseType: !605)
!619 = !DIImportedEntity(tag: DW_TAG_imported_declaration, scope: !2, entity: !620, file: !583, line: 148)
!620 = !DISubprogram(name: "fwide", scope: !589, file: !589, line: 573, type: !621, flags: DIFlagPrototyped, spFlags: 0)
!621 = !DISubroutineType(types: !622)
!622 = !{!574, !596, !574}
!623 = !DIImportedEntity(tag: DW_TAG_imported_declaration, scope: !2, entity: !624, file: !583, line: 149)
!624 = !DISubprogram(name: "fwprintf", scope: !589, file: !589, line: 580, type: !625, flags: DIFlagPrototyped, spFlags: 0)
!625 = !DISubroutineType(types: !626)
!626 = !{!574, !607, !616, null}
!627 = !DIImportedEntity(tag: DW_TAG_imported_declaration, scope: !2, entity: !628, file: !583, line: 150)
!628 = !DISubprogram(name: "fwscanf", linkageName: "__isoc99_fwscanf", scope: !589, file: !589, line: 640, type: !625, flags: DIFlagPrototyped, spFlags: 0)
!629 = !DIImportedEntity(tag: DW_TAG_imported_declaration, scope: !2, entity: !630, file: !583, line: 151)
!630 = !DISubprogram(name: "getwc", scope: !589, file: !589, line: 727, type: !594, flags: DIFlagPrototyped, spFlags: 0)
!631 = !DIImportedEntity(tag: DW_TAG_imported_declaration, scope: !2, entity: !632, file: !583, line: 152)
!632 = !DISubprogram(name: "getwchar", scope: !589, file: !589, line: 733, type: !633, flags: DIFlagPrototyped, spFlags: 0)
!633 = !DISubroutineType(types: !634)
!634 = !{!585}
!635 = !DIImportedEntity(tag: DW_TAG_imported_declaration, scope: !2, entity: !636, file: !583, line: 153)
!636 = !DISubprogram(name: "mbrlen", scope: !589, file: !589, line: 307, type: !637, flags: DIFlagPrototyped, spFlags: 0)
!637 = !DISubroutineType(types: !638)
!638 = !{!639, !641, !639, !643}
!639 = !DIDerivedType(tag: DW_TAG_typedef, name: "size_t", file: !640, line: 46, baseType: !101)
!640 = !DIFile(filename: "lib/clang/17/include/stddef.h", directory: "/home/cs23mtech12010/CCM/CCMutator/llvm-project/build", checksumkind: CSK_MD5, checksum: "d1776268f398bd1ca997c840ad581432")
!641 = !DIDerivedType(tag: DW_TAG_restrict_type, baseType: !642)
!642 = !DIDerivedType(tag: DW_TAG_pointer_type, baseType: !11, size: 64)
!643 = !DIDerivedType(tag: DW_TAG_restrict_type, baseType: !644)
!644 = !DIDerivedType(tag: DW_TAG_pointer_type, baseType: !567, size: 64)
!645 = !DIImportedEntity(tag: DW_TAG_imported_declaration, scope: !2, entity: !646, file: !583, line: 154)
!646 = !DISubprogram(name: "mbrtowc", scope: !589, file: !589, line: 296, type: !647, flags: DIFlagPrototyped, spFlags: 0)
!647 = !DISubroutineType(types: !648)
!648 = !{!639, !606, !641, !639, !643}
!649 = !DIImportedEntity(tag: DW_TAG_imported_declaration, scope: !2, entity: !650, file: !583, line: 155)
!650 = !DISubprogram(name: "mbsinit", scope: !589, file: !589, line: 292, type: !651, flags: DIFlagPrototyped, spFlags: 0)
!651 = !DISubroutineType(types: !652)
!652 = !{!574, !653}
!653 = !DIDerivedType(tag: DW_TAG_pointer_type, baseType: !654, size: 64)
!654 = !DIDerivedType(tag: DW_TAG_const_type, baseType: !567)
!655 = !DIImportedEntity(tag: DW_TAG_imported_declaration, scope: !2, entity: !656, file: !583, line: 156)
!656 = !DISubprogram(name: "mbsrtowcs", scope: !589, file: !589, line: 337, type: !657, flags: DIFlagPrototyped, spFlags: 0)
!657 = !DISubroutineType(types: !658)
!658 = !{!639, !606, !659, !639, !643}
!659 = !DIDerivedType(tag: DW_TAG_restrict_type, baseType: !660)
!660 = !DIDerivedType(tag: DW_TAG_pointer_type, baseType: !642, size: 64)
!661 = !DIImportedEntity(tag: DW_TAG_imported_declaration, scope: !2, entity: !662, file: !583, line: 157)
!662 = !DISubprogram(name: "putwc", scope: !589, file: !589, line: 741, type: !610, flags: DIFlagPrototyped, spFlags: 0)
!663 = !DIImportedEntity(tag: DW_TAG_imported_declaration, scope: !2, entity: !664, file: !583, line: 158)
!664 = !DISubprogram(name: "putwchar", scope: !589, file: !589, line: 747, type: !665, flags: DIFlagPrototyped, spFlags: 0)
!665 = !DISubroutineType(types: !666)
!666 = !{!585, !605}
!667 = !DIImportedEntity(tag: DW_TAG_imported_declaration, scope: !2, entity: !668, file: !583, line: 160)
!668 = !DISubprogram(name: "swprintf", scope: !589, file: !589, line: 590, type: !669, flags: DIFlagPrototyped, spFlags: 0)
!669 = !DISubroutineType(types: !670)
!670 = !{!574, !606, !639, !616, null}
!671 = !DIImportedEntity(tag: DW_TAG_imported_declaration, scope: !2, entity: !672, file: !583, line: 162)
!672 = !DISubprogram(name: "swscanf", linkageName: "__isoc99_swscanf", scope: !589, file: !589, line: 647, type: !673, flags: DIFlagPrototyped, spFlags: 0)
!673 = !DISubroutineType(types: !674)
!674 = !{!574, !616, !616, null}
!675 = !DIImportedEntity(tag: DW_TAG_imported_declaration, scope: !2, entity: !676, file: !583, line: 163)
!676 = !DISubprogram(name: "ungetwc", scope: !589, file: !589, line: 770, type: !677, flags: DIFlagPrototyped, spFlags: 0)
!677 = !DISubroutineType(types: !678)
!678 = !{!585, !585, !596}
!679 = !DIImportedEntity(tag: DW_TAG_imported_declaration, scope: !2, entity: !680, file: !583, line: 164)
!680 = !DISubprogram(name: "vfwprintf", scope: !589, file: !589, line: 598, type: !681, flags: DIFlagPrototyped, spFlags: 0)
!681 = !DISubroutineType(types: !682)
!682 = !{!574, !607, !616, !683}
!683 = !DIDerivedType(tag: DW_TAG_pointer_type, baseType: !684, size: 64)
!684 = distinct !DICompositeType(tag: DW_TAG_structure_type, name: "__va_list_tag", size: 192, flags: DIFlagTypePassByValue, elements: !685, identifier: "_ZTS13__va_list_tag")
!685 = !{!686, !687, !688, !690}
!686 = !DIDerivedType(tag: DW_TAG_member, name: "gp_offset", scope: !684, file: !9, baseType: !23, size: 32)
!687 = !DIDerivedType(tag: DW_TAG_member, name: "fp_offset", scope: !684, file: !9, baseType: !23, size: 32, offset: 32)
!688 = !DIDerivedType(tag: DW_TAG_member, name: "overflow_arg_area", scope: !684, file: !9, baseType: !689, size: 64, offset: 64)
!689 = !DIDerivedType(tag: DW_TAG_pointer_type, baseType: null, size: 64)
!690 = !DIDerivedType(tag: DW_TAG_member, name: "reg_save_area", scope: !684, file: !9, baseType: !689, size: 64, offset: 128)
!691 = !DIImportedEntity(tag: DW_TAG_imported_declaration, scope: !2, entity: !692, file: !583, line: 166)
!692 = !DISubprogram(name: "vfwscanf", linkageName: "__isoc99_vfwscanf", scope: !589, file: !589, line: 693, type: !681, flags: DIFlagPrototyped, spFlags: 0)
!693 = !DIImportedEntity(tag: DW_TAG_imported_declaration, scope: !2, entity: !694, file: !583, line: 169)
!694 = !DISubprogram(name: "vswprintf", scope: !589, file: !589, line: 611, type: !695, flags: DIFlagPrototyped, spFlags: 0)
!695 = !DISubroutineType(types: !696)
!696 = !{!574, !606, !639, !616, !683}
!697 = !DIImportedEntity(tag: DW_TAG_imported_declaration, scope: !2, entity: !698, file: !583, line: 172)
!698 = !DISubprogram(name: "vswscanf", linkageName: "__isoc99_vswscanf", scope: !589, file: !589, line: 700, type: !699, flags: DIFlagPrototyped, spFlags: 0)
!699 = !DISubroutineType(types: !700)
!700 = !{!574, !616, !616, !683}
!701 = !DIImportedEntity(tag: DW_TAG_imported_declaration, scope: !2, entity: !702, file: !583, line: 174)
!702 = !DISubprogram(name: "vwprintf", scope: !589, file: !589, line: 606, type: !703, flags: DIFlagPrototyped, spFlags: 0)
!703 = !DISubroutineType(types: !704)
!704 = !{!574, !616, !683}
!705 = !DIImportedEntity(tag: DW_TAG_imported_declaration, scope: !2, entity: !706, file: !583, line: 176)
!706 = !DISubprogram(name: "vwscanf", linkageName: "__isoc99_vwscanf", scope: !589, file: !589, line: 697, type: !703, flags: DIFlagPrototyped, spFlags: 0)
!707 = !DIImportedEntity(tag: DW_TAG_imported_declaration, scope: !2, entity: !708, file: !583, line: 178)
!708 = !DISubprogram(name: "wcrtomb", scope: !589, file: !589, line: 301, type: !709, flags: DIFlagPrototyped, spFlags: 0)
!709 = !DISubroutineType(types: !710)
!710 = !{!639, !711, !605, !643}
!711 = !DIDerivedType(tag: DW_TAG_restrict_type, baseType: !712)
!712 = !DIDerivedType(tag: DW_TAG_pointer_type, baseType: !12, size: 64)
!713 = !DIImportedEntity(tag: DW_TAG_imported_declaration, scope: !2, entity: !714, file: !583, line: 179)
!714 = !DISubprogram(name: "wcscat", scope: !589, file: !589, line: 97, type: !715, flags: DIFlagPrototyped, spFlags: 0)
!715 = !DISubroutineType(types: !716)
!716 = !{!604, !606, !616}
!717 = !DIImportedEntity(tag: DW_TAG_imported_declaration, scope: !2, entity: !718, file: !583, line: 180)
!718 = !DISubprogram(name: "wcscmp", scope: !589, file: !589, line: 106, type: !719, flags: DIFlagPrototyped, spFlags: 0)
!719 = !DISubroutineType(types: !720)
!720 = !{!574, !617, !617}
!721 = !DIImportedEntity(tag: DW_TAG_imported_declaration, scope: !2, entity: !722, file: !583, line: 181)
!722 = !DISubprogram(name: "wcscoll", scope: !589, file: !589, line: 131, type: !719, flags: DIFlagPrototyped, spFlags: 0)
!723 = !DIImportedEntity(tag: DW_TAG_imported_declaration, scope: !2, entity: !724, file: !583, line: 182)
!724 = !DISubprogram(name: "wcscpy", scope: !589, file: !589, line: 87, type: !715, flags: DIFlagPrototyped, spFlags: 0)
!725 = !DIImportedEntity(tag: DW_TAG_imported_declaration, scope: !2, entity: !726, file: !583, line: 183)
!726 = !DISubprogram(name: "wcscspn", scope: !589, file: !589, line: 187, type: !727, flags: DIFlagPrototyped, spFlags: 0)
!727 = !DISubroutineType(types: !728)
!728 = !{!639, !617, !617}
!729 = !DIImportedEntity(tag: DW_TAG_imported_declaration, scope: !2, entity: !730, file: !583, line: 184)
!730 = !DISubprogram(name: "wcsftime", scope: !589, file: !589, line: 834, type: !731, flags: DIFlagPrototyped, spFlags: 0)
!731 = !DISubroutineType(types: !732)
!732 = !{!639, !606, !639, !616, !733}
!733 = !DIDerivedType(tag: DW_TAG_restrict_type, baseType: !734)
!734 = !DIDerivedType(tag: DW_TAG_pointer_type, baseType: !735, size: 64)
!735 = !DIDerivedType(tag: DW_TAG_const_type, baseType: !736)
!736 = !DICompositeType(tag: DW_TAG_structure_type, name: "tm", file: !589, line: 83, flags: DIFlagFwdDecl | DIFlagNonTrivial, identifier: "_ZTS2tm")
!737 = !DIImportedEntity(tag: DW_TAG_imported_declaration, scope: !2, entity: !738, file: !583, line: 185)
!738 = !DISubprogram(name: "wcslen", scope: !589, file: !589, line: 222, type: !739, flags: DIFlagPrototyped, spFlags: 0)
!739 = !DISubroutineType(types: !740)
!740 = !{!639, !617}
!741 = !DIImportedEntity(tag: DW_TAG_imported_declaration, scope: !2, entity: !742, file: !583, line: 186)
!742 = !DISubprogram(name: "wcsncat", scope: !589, file: !589, line: 101, type: !743, flags: DIFlagPrototyped, spFlags: 0)
!743 = !DISubroutineType(types: !744)
!744 = !{!604, !606, !616, !639}
!745 = !DIImportedEntity(tag: DW_TAG_imported_declaration, scope: !2, entity: !746, file: !583, line: 187)
!746 = !DISubprogram(name: "wcsncmp", scope: !589, file: !589, line: 109, type: !747, flags: DIFlagPrototyped, spFlags: 0)
!747 = !DISubroutineType(types: !748)
!748 = !{!574, !617, !617, !639}
!749 = !DIImportedEntity(tag: DW_TAG_imported_declaration, scope: !2, entity: !750, file: !583, line: 188)
!750 = !DISubprogram(name: "wcsncpy", scope: !589, file: !589, line: 92, type: !743, flags: DIFlagPrototyped, spFlags: 0)
!751 = !DIImportedEntity(tag: DW_TAG_imported_declaration, scope: !2, entity: !752, file: !583, line: 189)
!752 = !DISubprogram(name: "wcsrtombs", scope: !589, file: !589, line: 343, type: !753, flags: DIFlagPrototyped, spFlags: 0)
!753 = !DISubroutineType(types: !754)
!754 = !{!639, !711, !755, !639, !643}
!755 = !DIDerivedType(tag: DW_TAG_restrict_type, baseType: !756)
!756 = !DIDerivedType(tag: DW_TAG_pointer_type, baseType: !617, size: 64)
!757 = !DIImportedEntity(tag: DW_TAG_imported_declaration, scope: !2, entity: !758, file: !583, line: 190)
!758 = !DISubprogram(name: "wcsspn", scope: !589, file: !589, line: 191, type: !727, flags: DIFlagPrototyped, spFlags: 0)
!759 = !DIImportedEntity(tag: DW_TAG_imported_declaration, scope: !2, entity: !760, file: !583, line: 191)
!760 = !DISubprogram(name: "wcstod", scope: !589, file: !589, line: 377, type: !761, flags: DIFlagPrototyped, spFlags: 0)
!761 = !DISubroutineType(types: !762)
!762 = !{!763, !616, !764}
!763 = !DIBasicType(name: "double", size: 64, encoding: DW_ATE_float)
!764 = !DIDerivedType(tag: DW_TAG_restrict_type, baseType: !765)
!765 = !DIDerivedType(tag: DW_TAG_pointer_type, baseType: !604, size: 64)
!766 = !DIImportedEntity(tag: DW_TAG_imported_declaration, scope: !2, entity: !767, file: !583, line: 193)
!767 = !DISubprogram(name: "wcstof", scope: !589, file: !589, line: 382, type: !768, flags: DIFlagPrototyped, spFlags: 0)
!768 = !DISubroutineType(types: !769)
!769 = !{!770, !616, !764}
!770 = !DIBasicType(name: "float", size: 32, encoding: DW_ATE_float)
!771 = !DIImportedEntity(tag: DW_TAG_imported_declaration, scope: !2, entity: !772, file: !583, line: 195)
!772 = !DISubprogram(name: "wcstok", scope: !589, file: !589, line: 217, type: !773, flags: DIFlagPrototyped, spFlags: 0)
!773 = !DISubroutineType(types: !774)
!774 = !{!604, !606, !616, !764}
!775 = !DIImportedEntity(tag: DW_TAG_imported_declaration, scope: !2, entity: !776, file: !583, line: 196)
!776 = !DISubprogram(name: "wcstol", scope: !589, file: !589, line: 428, type: !777, flags: DIFlagPrototyped, spFlags: 0)
!777 = !DISubroutineType(types: !778)
!778 = !{!779, !616, !764, !574}
!779 = !DIBasicType(name: "long", size: 64, encoding: DW_ATE_signed)
!780 = !DIImportedEntity(tag: DW_TAG_imported_declaration, scope: !2, entity: !781, file: !583, line: 197)
!781 = !DISubprogram(name: "wcstoul", scope: !589, file: !589, line: 433, type: !782, flags: DIFlagPrototyped, spFlags: 0)
!782 = !DISubroutineType(types: !783)
!783 = !{!101, !616, !764, !574}
!784 = !DIImportedEntity(tag: DW_TAG_imported_declaration, scope: !2, entity: !785, file: !583, line: 198)
!785 = !DISubprogram(name: "wcsxfrm", scope: !589, file: !589, line: 135, type: !786, flags: DIFlagPrototyped, spFlags: 0)
!786 = !DISubroutineType(types: !787)
!787 = !{!639, !606, !616, !639}
!788 = !DIImportedEntity(tag: DW_TAG_imported_declaration, scope: !2, entity: !789, file: !583, line: 199)
!789 = !DISubprogram(name: "wctob", scope: !589, file: !589, line: 288, type: !790, flags: DIFlagPrototyped, spFlags: 0)
!790 = !DISubroutineType(types: !791)
!791 = !{!574, !585}
!792 = !DIImportedEntity(tag: DW_TAG_imported_declaration, scope: !2, entity: !793, file: !583, line: 200)
!793 = !DISubprogram(name: "wmemcmp", scope: !589, file: !589, line: 258, type: !747, flags: DIFlagPrototyped, spFlags: 0)
!794 = !DIImportedEntity(tag: DW_TAG_imported_declaration, scope: !2, entity: !795, file: !583, line: 201)
!795 = !DISubprogram(name: "wmemcpy", scope: !589, file: !589, line: 262, type: !743, flags: DIFlagPrototyped, spFlags: 0)
!796 = !DIImportedEntity(tag: DW_TAG_imported_declaration, scope: !2, entity: !797, file: !583, line: 202)
!797 = !DISubprogram(name: "wmemmove", scope: !589, file: !589, line: 267, type: !798, flags: DIFlagPrototyped, spFlags: 0)
!798 = !DISubroutineType(types: !799)
!799 = !{!604, !604, !617, !639}
!800 = !DIImportedEntity(tag: DW_TAG_imported_declaration, scope: !2, entity: !801, file: !583, line: 203)
!801 = !DISubprogram(name: "wmemset", scope: !589, file: !589, line: 271, type: !802, flags: DIFlagPrototyped, spFlags: 0)
!802 = !DISubroutineType(types: !803)
!803 = !{!604, !604, !605, !639}
!804 = !DIImportedEntity(tag: DW_TAG_imported_declaration, scope: !2, entity: !805, file: !583, line: 204)
!805 = !DISubprogram(name: "wprintf", scope: !589, file: !589, line: 587, type: !806, flags: DIFlagPrototyped, spFlags: 0)
!806 = !DISubroutineType(types: !807)
!807 = !{!574, !616, null}
!808 = !DIImportedEntity(tag: DW_TAG_imported_declaration, scope: !2, entity: !809, file: !583, line: 205)
!809 = !DISubprogram(name: "wscanf", linkageName: "__isoc99_wscanf", scope: !589, file: !589, line: 644, type: !806, flags: DIFlagPrototyped, spFlags: 0)
!810 = !DIImportedEntity(tag: DW_TAG_imported_declaration, scope: !2, entity: !811, file: !583, line: 206)
!811 = !DISubprogram(name: "wcschr", scope: !589, file: !589, line: 164, type: !812, flags: DIFlagPrototyped, spFlags: 0)
!812 = !DISubroutineType(types: !813)
!813 = !{!604, !617, !605}
!814 = !DIImportedEntity(tag: DW_TAG_imported_declaration, scope: !2, entity: !815, file: !583, line: 207)
!815 = !DISubprogram(name: "wcspbrk", scope: !589, file: !589, line: 201, type: !816, flags: DIFlagPrototyped, spFlags: 0)
!816 = !DISubroutineType(types: !817)
!817 = !{!604, !617, !617}
!818 = !DIImportedEntity(tag: DW_TAG_imported_declaration, scope: !2, entity: !819, file: !583, line: 208)
!819 = !DISubprogram(name: "wcsrchr", scope: !589, file: !589, line: 174, type: !812, flags: DIFlagPrototyped, spFlags: 0)
!820 = !DIImportedEntity(tag: DW_TAG_imported_declaration, scope: !2, entity: !821, file: !583, line: 209)
!821 = !DISubprogram(name: "wcsstr", scope: !589, file: !589, line: 212, type: !816, flags: DIFlagPrototyped, spFlags: 0)
!822 = !DIImportedEntity(tag: DW_TAG_imported_declaration, scope: !2, entity: !823, file: !583, line: 210)
!823 = !DISubprogram(name: "wmemchr", scope: !589, file: !589, line: 253, type: !824, flags: DIFlagPrototyped, spFlags: 0)
!824 = !DISubroutineType(types: !825)
!825 = !{!604, !617, !605, !639}
!826 = !DIImportedEntity(tag: DW_TAG_imported_declaration, scope: !22, entity: !827, file: !583, line: 251)
!827 = !DISubprogram(name: "wcstold", scope: !589, file: !589, line: 384, type: !828, flags: DIFlagPrototyped, spFlags: 0)
!828 = !DISubroutineType(types: !829)
!829 = !{!830, !616, !764}
!830 = !DIBasicType(name: "long double", size: 128, encoding: DW_ATE_float)
!831 = !DIImportedEntity(tag: DW_TAG_imported_declaration, scope: !22, entity: !832, file: !583, line: 260)
!832 = !DISubprogram(name: "wcstoll", scope: !589, file: !589, line: 441, type: !833, flags: DIFlagPrototyped, spFlags: 0)
!833 = !DISubroutineType(types: !834)
!834 = !{!835, !616, !764, !574}
!835 = !DIBasicType(name: "long long", size: 64, encoding: DW_ATE_signed)
!836 = !DIImportedEntity(tag: DW_TAG_imported_declaration, scope: !22, entity: !837, file: !583, line: 261)
!837 = !DISubprogram(name: "wcstoull", scope: !589, file: !589, line: 448, type: !838, flags: DIFlagPrototyped, spFlags: 0)
!838 = !DISubroutineType(types: !839)
!839 = !{!840, !616, !764, !574}
!840 = !DIBasicType(name: "unsigned long long", size: 64, encoding: DW_ATE_unsigned)
!841 = !DIImportedEntity(tag: DW_TAG_imported_declaration, scope: !2, entity: !827, file: !583, line: 267)
!842 = !DIImportedEntity(tag: DW_TAG_imported_declaration, scope: !2, entity: !832, file: !583, line: 268)
!843 = !DIImportedEntity(tag: DW_TAG_imported_declaration, scope: !2, entity: !837, file: !583, line: 269)
!844 = !DIImportedEntity(tag: DW_TAG_imported_declaration, scope: !2, entity: !767, file: !583, line: 283)
!845 = !DIImportedEntity(tag: DW_TAG_imported_declaration, scope: !2, entity: !692, file: !583, line: 286)
!846 = !DIImportedEntity(tag: DW_TAG_imported_declaration, scope: !2, entity: !698, file: !583, line: 289)
!847 = !DIImportedEntity(tag: DW_TAG_imported_declaration, scope: !2, entity: !706, file: !583, line: 292)
!848 = !DIImportedEntity(tag: DW_TAG_imported_declaration, scope: !2, entity: !827, file: !583, line: 296)
!849 = !DIImportedEntity(tag: DW_TAG_imported_declaration, scope: !2, entity: !832, file: !583, line: 297)
!850 = !DIImportedEntity(tag: DW_TAG_imported_declaration, scope: !2, entity: !837, file: !583, line: 298)
!851 = !DIImportedEntity(tag: DW_TAG_imported_declaration, scope: !2, entity: !852, file: !853, line: 57)
!852 = !DICompositeType(tag: DW_TAG_class_type, name: "exception_ptr", scope: !854, file: !853, line: 79, size: 64, flags: DIFlagFwdDecl | DIFlagNonTrivial, identifier: "_ZTSNSt15__exception_ptr13exception_ptrE")
!853 = !DIFile(filename: "/usr/lib/gcc/x86_64-linux-gnu/9/../../../../include/c++/9/bits/exception_ptr.h", directory: "", checksumkind: CSK_MD5, checksum: "ad32556413cf4ca6a852273de62d0a18")
!854 = !DINamespace(name: "__exception_ptr", scope: !2)
!855 = !DIImportedEntity(tag: DW_TAG_imported_declaration, scope: !854, entity: !856, file: !853, line: 73)
!856 = !DISubprogram(name: "rethrow_exception", linkageName: "_ZSt17rethrow_exceptionNSt15__exception_ptr13exception_ptrE", scope: !2, file: !853, line: 69, type: !857, flags: DIFlagPrototyped | DIFlagNoReturn, spFlags: 0)
!857 = !DISubroutineType(types: !858)
!858 = !{null, !852}
!859 = !DIImportedEntity(tag: DW_TAG_imported_module, scope: !860, entity: !861, file: !862, line: 58)
!860 = !DINamespace(name: "__gnu_debug", scope: null)
!861 = !DINamespace(name: "__debug", scope: !2)
!862 = !DIFile(filename: "/usr/lib/gcc/x86_64-linux-gnu/9/../../../../include/c++/9/debug/debug.h", directory: "", checksumkind: CSK_MD5, checksum: "1e1a444391d862db9c9b259fde858dd4")
!863 = !DIImportedEntity(tag: DW_TAG_imported_declaration, scope: !2, entity: !864, file: !869, line: 47)
!864 = !DIDerivedType(tag: DW_TAG_typedef, name: "int8_t", file: !865, line: 24, baseType: !866)
!865 = !DIFile(filename: "/usr/include/x86_64-linux-gnu/bits/stdint-intn.h", directory: "", checksumkind: CSK_MD5, checksum: "081edea97425b3437dded4a7fe223193")
!866 = !DIDerivedType(tag: DW_TAG_typedef, name: "__int8_t", file: !867, line: 37, baseType: !868)
!867 = !DIFile(filename: "/usr/include/x86_64-linux-gnu/bits/types.h", directory: "", checksumkind: CSK_MD5, checksum: "f6304b1a6dcfc6bee76e9a51043b5090")
!868 = !DIBasicType(name: "signed char", size: 8, encoding: DW_ATE_signed_char)
!869 = !DIFile(filename: "/usr/lib/gcc/x86_64-linux-gnu/9/../../../../include/c++/9/cstdint", directory: "")
!870 = !DIImportedEntity(tag: DW_TAG_imported_declaration, scope: !2, entity: !871, file: !869, line: 48)
!871 = !DIDerivedType(tag: DW_TAG_typedef, name: "int16_t", file: !865, line: 25, baseType: !872)
!872 = !DIDerivedType(tag: DW_TAG_typedef, name: "__int16_t", file: !867, line: 39, baseType: !873)
!873 = !DIBasicType(name: "short", size: 16, encoding: DW_ATE_signed)
!874 = !DIImportedEntity(tag: DW_TAG_imported_declaration, scope: !2, entity: !875, file: !869, line: 49)
!875 = !DIDerivedType(tag: DW_TAG_typedef, name: "int32_t", file: !865, line: 26, baseType: !876)
!876 = !DIDerivedType(tag: DW_TAG_typedef, name: "__int32_t", file: !867, line: 41, baseType: !574)
!877 = !DIImportedEntity(tag: DW_TAG_imported_declaration, scope: !2, entity: !878, file: !869, line: 50)
!878 = !DIDerivedType(tag: DW_TAG_typedef, name: "int64_t", file: !865, line: 27, baseType: !879)
!879 = !DIDerivedType(tag: DW_TAG_typedef, name: "__int64_t", file: !867, line: 44, baseType: !779)
!880 = !DIImportedEntity(tag: DW_TAG_imported_declaration, scope: !2, entity: !881, file: !869, line: 52)
!881 = !DIDerivedType(tag: DW_TAG_typedef, name: "int_fast8_t", file: !882, line: 58, baseType: !868)
!882 = !DIFile(filename: "/usr/include/stdint.h", directory: "", checksumkind: CSK_MD5, checksum: "24103e292ae21916e87130b926c8d2f8")
!883 = !DIImportedEntity(tag: DW_TAG_imported_declaration, scope: !2, entity: !884, file: !869, line: 53)
!884 = !DIDerivedType(tag: DW_TAG_typedef, name: "int_fast16_t", file: !882, line: 60, baseType: !779)
!885 = !DIImportedEntity(tag: DW_TAG_imported_declaration, scope: !2, entity: !886, file: !869, line: 54)
!886 = !DIDerivedType(tag: DW_TAG_typedef, name: "int_fast32_t", file: !882, line: 61, baseType: !779)
!887 = !DIImportedEntity(tag: DW_TAG_imported_declaration, scope: !2, entity: !888, file: !869, line: 55)
!888 = !DIDerivedType(tag: DW_TAG_typedef, name: "int_fast64_t", file: !882, line: 62, baseType: !779)
!889 = !DIImportedEntity(tag: DW_TAG_imported_declaration, scope: !2, entity: !890, file: !869, line: 57)
!890 = !DIDerivedType(tag: DW_TAG_typedef, name: "int_least8_t", file: !882, line: 43, baseType: !891)
!891 = !DIDerivedType(tag: DW_TAG_typedef, name: "__int_least8_t", file: !867, line: 52, baseType: !866)
!892 = !DIImportedEntity(tag: DW_TAG_imported_declaration, scope: !2, entity: !893, file: !869, line: 58)
!893 = !DIDerivedType(tag: DW_TAG_typedef, name: "int_least16_t", file: !882, line: 44, baseType: !894)
!894 = !DIDerivedType(tag: DW_TAG_typedef, name: "__int_least16_t", file: !867, line: 54, baseType: !872)
!895 = !DIImportedEntity(tag: DW_TAG_imported_declaration, scope: !2, entity: !896, file: !869, line: 59)
!896 = !DIDerivedType(tag: DW_TAG_typedef, name: "int_least32_t", file: !882, line: 45, baseType: !897)
!897 = !DIDerivedType(tag: DW_TAG_typedef, name: "__int_least32_t", file: !867, line: 56, baseType: !876)
!898 = !DIImportedEntity(tag: DW_TAG_imported_declaration, scope: !2, entity: !899, file: !869, line: 60)
!899 = !DIDerivedType(tag: DW_TAG_typedef, name: "int_least64_t", file: !882, line: 46, baseType: !900)
!900 = !DIDerivedType(tag: DW_TAG_typedef, name: "__int_least64_t", file: !867, line: 58, baseType: !879)
!901 = !DIImportedEntity(tag: DW_TAG_imported_declaration, scope: !2, entity: !902, file: !869, line: 62)
!902 = !DIDerivedType(tag: DW_TAG_typedef, name: "intmax_t", file: !882, line: 101, baseType: !903)
!903 = !DIDerivedType(tag: DW_TAG_typedef, name: "__intmax_t", file: !867, line: 72, baseType: !779)
!904 = !DIImportedEntity(tag: DW_TAG_imported_declaration, scope: !2, entity: !905, file: !869, line: 63)
!905 = !DIDerivedType(tag: DW_TAG_typedef, name: "intptr_t", file: !882, line: 87, baseType: !779)
!906 = !DIImportedEntity(tag: DW_TAG_imported_declaration, scope: !2, entity: !907, file: !869, line: 65)
!907 = !DIDerivedType(tag: DW_TAG_typedef, name: "uint8_t", file: !908, line: 24, baseType: !909)
!908 = !DIFile(filename: "/usr/include/x86_64-linux-gnu/bits/stdint-uintn.h", directory: "", checksumkind: CSK_MD5, checksum: "d3ea318a915682aaf6645ec16ac9f991")
!909 = !DIDerivedType(tag: DW_TAG_typedef, name: "__uint8_t", file: !867, line: 38, baseType: !910)
!910 = !DIBasicType(name: "unsigned char", size: 8, encoding: DW_ATE_unsigned_char)
!911 = !DIImportedEntity(tag: DW_TAG_imported_declaration, scope: !2, entity: !912, file: !869, line: 66)
!912 = !DIDerivedType(tag: DW_TAG_typedef, name: "uint16_t", file: !908, line: 25, baseType: !913)
!913 = !DIDerivedType(tag: DW_TAG_typedef, name: "__uint16_t", file: !867, line: 40, baseType: !914)
!914 = !DIBasicType(name: "unsigned short", size: 16, encoding: DW_ATE_unsigned)
!915 = !DIImportedEntity(tag: DW_TAG_imported_declaration, scope: !2, entity: !916, file: !869, line: 67)
!916 = !DIDerivedType(tag: DW_TAG_typedef, name: "uint32_t", file: !908, line: 26, baseType: !917)
!917 = !DIDerivedType(tag: DW_TAG_typedef, name: "__uint32_t", file: !867, line: 42, baseType: !23)
!918 = !DIImportedEntity(tag: DW_TAG_imported_declaration, scope: !2, entity: !919, file: !869, line: 68)
!919 = !DIDerivedType(tag: DW_TAG_typedef, name: "uint64_t", file: !908, line: 27, baseType: !920)
!920 = !DIDerivedType(tag: DW_TAG_typedef, name: "__uint64_t", file: !867, line: 45, baseType: !101)
!921 = !DIImportedEntity(tag: DW_TAG_imported_declaration, scope: !2, entity: !922, file: !869, line: 70)
!922 = !DIDerivedType(tag: DW_TAG_typedef, name: "uint_fast8_t", file: !882, line: 71, baseType: !910)
!923 = !DIImportedEntity(tag: DW_TAG_imported_declaration, scope: !2, entity: !924, file: !869, line: 71)
!924 = !DIDerivedType(tag: DW_TAG_typedef, name: "uint_fast16_t", file: !882, line: 73, baseType: !101)
!925 = !DIImportedEntity(tag: DW_TAG_imported_declaration, scope: !2, entity: !926, file: !869, line: 72)
!926 = !DIDerivedType(tag: DW_TAG_typedef, name: "uint_fast32_t", file: !882, line: 74, baseType: !101)
!927 = !DIImportedEntity(tag: DW_TAG_imported_declaration, scope: !2, entity: !928, file: !869, line: 73)
!928 = !DIDerivedType(tag: DW_TAG_typedef, name: "uint_fast64_t", file: !882, line: 75, baseType: !101)
!929 = !DIImportedEntity(tag: DW_TAG_imported_declaration, scope: !2, entity: !930, file: !869, line: 75)
!930 = !DIDerivedType(tag: DW_TAG_typedef, name: "uint_least8_t", file: !882, line: 49, baseType: !931)
!931 = !DIDerivedType(tag: DW_TAG_typedef, name: "__uint_least8_t", file: !867, line: 53, baseType: !909)
!932 = !DIImportedEntity(tag: DW_TAG_imported_declaration, scope: !2, entity: !933, file: !869, line: 76)
!933 = !DIDerivedType(tag: DW_TAG_typedef, name: "uint_least16_t", file: !882, line: 50, baseType: !934)
!934 = !DIDerivedType(tag: DW_TAG_typedef, name: "__uint_least16_t", file: !867, line: 55, baseType: !913)
!935 = !DIImportedEntity(tag: DW_TAG_imported_declaration, scope: !2, entity: !936, file: !869, line: 77)
!936 = !DIDerivedType(tag: DW_TAG_typedef, name: "uint_least32_t", file: !882, line: 51, baseType: !937)
!937 = !DIDerivedType(tag: DW_TAG_typedef, name: "__uint_least32_t", file: !867, line: 57, baseType: !917)
!938 = !DIImportedEntity(tag: DW_TAG_imported_declaration, scope: !2, entity: !939, file: !869, line: 78)
!939 = !DIDerivedType(tag: DW_TAG_typedef, name: "uint_least64_t", file: !882, line: 52, baseType: !940)
!940 = !DIDerivedType(tag: DW_TAG_typedef, name: "__uint_least64_t", file: !867, line: 59, baseType: !920)
!941 = !DIImportedEntity(tag: DW_TAG_imported_declaration, scope: !2, entity: !942, file: !869, line: 80)
!942 = !DIDerivedType(tag: DW_TAG_typedef, name: "uintmax_t", file: !882, line: 102, baseType: !943)
!943 = !DIDerivedType(tag: DW_TAG_typedef, name: "__uintmax_t", file: !867, line: 73, baseType: !101)
!944 = !DIImportedEntity(tag: DW_TAG_imported_declaration, scope: !2, entity: !945, file: !869, line: 81)
!945 = !DIDerivedType(tag: DW_TAG_typedef, name: "uintptr_t", file: !882, line: 90, baseType: !101)
!946 = !DIImportedEntity(tag: DW_TAG_imported_declaration, scope: !2, entity: !947, file: !949, line: 53)
!947 = !DICompositeType(tag: DW_TAG_structure_type, name: "lconv", file: !948, line: 51, size: 768, flags: DIFlagFwdDecl, identifier: "_ZTS5lconv")
!948 = !DIFile(filename: "/usr/include/locale.h", directory: "", checksumkind: CSK_MD5, checksum: "0cf373fc44eed8073800bdb9da87b72f")
!949 = !DIFile(filename: "/usr/lib/gcc/x86_64-linux-gnu/9/../../../../include/c++/9/clocale", directory: "")
!950 = !DIImportedEntity(tag: DW_TAG_imported_declaration, scope: !2, entity: !951, file: !949, line: 54)
!951 = !DISubprogram(name: "setlocale", scope: !948, file: !948, line: 122, type: !952, flags: DIFlagPrototyped, spFlags: 0)
!952 = !DISubroutineType(types: !953)
!953 = !{!712, !574, !642}
!954 = !DIImportedEntity(tag: DW_TAG_imported_declaration, scope: !2, entity: !955, file: !949, line: 55)
!955 = !DISubprogram(name: "localeconv", scope: !948, file: !948, line: 125, type: !956, flags: DIFlagPrototyped, spFlags: 0)
!956 = !DISubroutineType(types: !957)
!957 = !{!958}
!958 = !DIDerivedType(tag: DW_TAG_pointer_type, baseType: !947, size: 64)
!959 = !DIImportedEntity(tag: DW_TAG_imported_declaration, scope: !2, entity: !960, file: !964, line: 64)
!960 = !DISubprogram(name: "isalnum", scope: !961, file: !961, line: 108, type: !962, flags: DIFlagPrototyped, spFlags: 0)
!961 = !DIFile(filename: "/usr/include/ctype.h", directory: "", checksumkind: CSK_MD5, checksum: "36575f934ef4fe7e9d50a3cb17bd5c66")
!962 = !DISubroutineType(types: !963)
!963 = !{!574, !574}
!964 = !DIFile(filename: "/usr/lib/gcc/x86_64-linux-gnu/9/../../../../include/c++/9/cctype", directory: "")
!965 = !DIImportedEntity(tag: DW_TAG_imported_declaration, scope: !2, entity: !966, file: !964, line: 65)
!966 = !DISubprogram(name: "isalpha", scope: !961, file: !961, line: 109, type: !962, flags: DIFlagPrototyped, spFlags: 0)
!967 = !DIImportedEntity(tag: DW_TAG_imported_declaration, scope: !2, entity: !968, file: !964, line: 66)
!968 = !DISubprogram(name: "iscntrl", scope: !961, file: !961, line: 110, type: !962, flags: DIFlagPrototyped, spFlags: 0)
!969 = !DIImportedEntity(tag: DW_TAG_imported_declaration, scope: !2, entity: !970, file: !964, line: 67)
!970 = !DISubprogram(name: "isdigit", scope: !961, file: !961, line: 111, type: !962, flags: DIFlagPrototyped, spFlags: 0)
!971 = !DIImportedEntity(tag: DW_TAG_imported_declaration, scope: !2, entity: !972, file: !964, line: 68)
!972 = !DISubprogram(name: "isgraph", scope: !961, file: !961, line: 113, type: !962, flags: DIFlagPrototyped, spFlags: 0)
!973 = !DIImportedEntity(tag: DW_TAG_imported_declaration, scope: !2, entity: !974, file: !964, line: 69)
!974 = !DISubprogram(name: "islower", scope: !961, file: !961, line: 112, type: !962, flags: DIFlagPrototyped, spFlags: 0)
!975 = !DIImportedEntity(tag: DW_TAG_imported_declaration, scope: !2, entity: !976, file: !964, line: 70)
!976 = !DISubprogram(name: "isprint", scope: !961, file: !961, line: 114, type: !962, flags: DIFlagPrototyped, spFlags: 0)
!977 = !DIImportedEntity(tag: DW_TAG_imported_declaration, scope: !2, entity: !978, file: !964, line: 71)
!978 = !DISubprogram(name: "ispunct", scope: !961, file: !961, line: 115, type: !962, flags: DIFlagPrototyped, spFlags: 0)
!979 = !DIImportedEntity(tag: DW_TAG_imported_declaration, scope: !2, entity: !980, file: !964, line: 72)
!980 = !DISubprogram(name: "isspace", scope: !961, file: !961, line: 116, type: !962, flags: DIFlagPrototyped, spFlags: 0)
!981 = !DIImportedEntity(tag: DW_TAG_imported_declaration, scope: !2, entity: !982, file: !964, line: 73)
!982 = !DISubprogram(name: "isupper", scope: !961, file: !961, line: 117, type: !962, flags: DIFlagPrototyped, spFlags: 0)
!983 = !DIImportedEntity(tag: DW_TAG_imported_declaration, scope: !2, entity: !984, file: !964, line: 74)
!984 = !DISubprogram(name: "isxdigit", scope: !961, file: !961, line: 118, type: !962, flags: DIFlagPrototyped, spFlags: 0)
!985 = !DIImportedEntity(tag: DW_TAG_imported_declaration, scope: !2, entity: !986, file: !964, line: 75)
!986 = !DISubprogram(name: "tolower", scope: !961, file: !961, line: 122, type: !962, flags: DIFlagPrototyped, spFlags: 0)
!987 = !DIImportedEntity(tag: DW_TAG_imported_declaration, scope: !2, entity: !988, file: !964, line: 76)
!988 = !DISubprogram(name: "toupper", scope: !961, file: !961, line: 125, type: !962, flags: DIFlagPrototyped, spFlags: 0)
!989 = !DIImportedEntity(tag: DW_TAG_imported_declaration, scope: !2, entity: !990, file: !964, line: 87)
!990 = !DISubprogram(name: "isblank", scope: !961, file: !961, line: 130, type: !962, flags: DIFlagPrototyped, spFlags: 0)
!991 = !DIImportedEntity(tag: DW_TAG_imported_declaration, scope: !22, entity: !992, file: !993, line: 44)
!992 = !DIDerivedType(tag: DW_TAG_typedef, name: "size_t", scope: !2, file: !397, line: 258, baseType: !101)
!993 = !DIFile(filename: "/usr/lib/gcc/x86_64-linux-gnu/9/../../../../include/c++/9/ext/new_allocator.h", directory: "", checksumkind: CSK_MD5, checksum: "d815d3ddb625b8849e2bd401d0f6b354")
!994 = !DIImportedEntity(tag: DW_TAG_imported_declaration, scope: !22, entity: !995, file: !993, line: 45)
!995 = !DIDerivedType(tag: DW_TAG_typedef, name: "ptrdiff_t", scope: !2, file: !397, line: 259, baseType: !779)
!996 = !DIImportedEntity(tag: DW_TAG_imported_declaration, scope: !2, entity: !997, file: !999, line: 52)
!997 = !DISubprogram(name: "abs", scope: !998, file: !998, line: 840, type: !962, flags: DIFlagPrototyped, spFlags: 0)
!998 = !DIFile(filename: "/usr/include/stdlib.h", directory: "", checksumkind: CSK_MD5, checksum: "f0db66726d35051e5af2525f5b33bd81")
!999 = !DIFile(filename: "/usr/lib/gcc/x86_64-linux-gnu/9/../../../../include/c++/9/bits/std_abs.h", directory: "")
!1000 = !DIImportedEntity(tag: DW_TAG_imported_declaration, scope: !2, entity: !1001, file: !1003, line: 127)
!1001 = !DIDerivedType(tag: DW_TAG_typedef, name: "div_t", file: !998, line: 62, baseType: !1002)
!1002 = !DICompositeType(tag: DW_TAG_structure_type, file: !998, line: 58, size: 64, flags: DIFlagFwdDecl, identifier: "_ZTS5div_t")
!1003 = !DIFile(filename: "/usr/lib/gcc/x86_64-linux-gnu/9/../../../../include/c++/9/cstdlib", directory: "")
!1004 = !DIImportedEntity(tag: DW_TAG_imported_declaration, scope: !2, entity: !1005, file: !1003, line: 128)
!1005 = !DIDerivedType(tag: DW_TAG_typedef, name: "ldiv_t", file: !998, line: 70, baseType: !1006)
!1006 = distinct !DICompositeType(tag: DW_TAG_structure_type, file: !998, line: 66, size: 128, flags: DIFlagTypePassByValue, elements: !1007, identifier: "_ZTS6ldiv_t")
!1007 = !{!1008, !1009}
!1008 = !DIDerivedType(tag: DW_TAG_member, name: "quot", scope: !1006, file: !998, line: 68, baseType: !779, size: 64)
!1009 = !DIDerivedType(tag: DW_TAG_member, name: "rem", scope: !1006, file: !998, line: 69, baseType: !779, size: 64, offset: 64)
!1010 = !DIImportedEntity(tag: DW_TAG_imported_declaration, scope: !2, entity: !1011, file: !1003, line: 130)
!1011 = !DISubprogram(name: "abort", scope: !998, file: !998, line: 591, type: !30, flags: DIFlagPrototyped | DIFlagNoReturn, spFlags: 0)
!1012 = !DIImportedEntity(tag: DW_TAG_imported_declaration, scope: !2, entity: !1013, file: !1003, line: 132)
!1013 = !DISubprogram(name: "aligned_alloc", scope: !998, file: !998, line: 586, type: !1014, flags: DIFlagPrototyped, spFlags: 0)
!1014 = !DISubroutineType(types: !1015)
!1015 = !{!689, !639, !639}
!1016 = !DIImportedEntity(tag: DW_TAG_imported_declaration, scope: !2, entity: !1017, file: !1003, line: 134)
!1017 = !DISubprogram(name: "atexit", scope: !998, file: !998, line: 595, type: !1018, flags: DIFlagPrototyped, spFlags: 0)
!1018 = !DISubroutineType(types: !1019)
!1019 = !{!574, !29}
!1020 = !DIImportedEntity(tag: DW_TAG_imported_declaration, scope: !2, entity: !1021, file: !1003, line: 137)
!1021 = !DISubprogram(name: "at_quick_exit", scope: !998, file: !998, line: 600, type: !1018, flags: DIFlagPrototyped, spFlags: 0)
!1022 = !DIImportedEntity(tag: DW_TAG_imported_declaration, scope: !2, entity: !1023, file: !1003, line: 140)
!1023 = !DISubprogram(name: "atof", scope: !998, file: !998, line: 101, type: !1024, flags: DIFlagPrototyped, spFlags: 0)
!1024 = !DISubroutineType(types: !1025)
!1025 = !{!763, !642}
!1026 = !DIImportedEntity(tag: DW_TAG_imported_declaration, scope: !2, entity: !1027, file: !1003, line: 141)
!1027 = !DISubprogram(name: "atoi", scope: !998, file: !998, line: 104, type: !1028, flags: DIFlagPrototyped, spFlags: 0)
!1028 = !DISubroutineType(types: !1029)
!1029 = !{!574, !642}
!1030 = !DIImportedEntity(tag: DW_TAG_imported_declaration, scope: !2, entity: !1031, file: !1003, line: 142)
!1031 = !DISubprogram(name: "atol", scope: !998, file: !998, line: 107, type: !1032, flags: DIFlagPrototyped, spFlags: 0)
!1032 = !DISubroutineType(types: !1033)
!1033 = !{!779, !642}
!1034 = !DIImportedEntity(tag: DW_TAG_imported_declaration, scope: !2, entity: !1035, file: !1003, line: 143)
!1035 = !DISubprogram(name: "bsearch", scope: !998, file: !998, line: 820, type: !1036, flags: DIFlagPrototyped, spFlags: 0)
!1036 = !DISubroutineType(types: !1037)
!1037 = !{!689, !182, !182, !639, !639, !1038}
!1038 = !DIDerivedType(tag: DW_TAG_typedef, name: "__compar_fn_t", file: !998, line: 808, baseType: !1039)
!1039 = !DIDerivedType(tag: DW_TAG_pointer_type, baseType: !1040, size: 64)
!1040 = !DISubroutineType(types: !1041)
!1041 = !{!574, !182, !182}
!1042 = !DIImportedEntity(tag: DW_TAG_imported_declaration, scope: !2, entity: !1043, file: !1003, line: 144)
!1043 = !DISubprogram(name: "calloc", scope: !998, file: !998, line: 542, type: !1014, flags: DIFlagPrototyped, spFlags: 0)
!1044 = !DIImportedEntity(tag: DW_TAG_imported_declaration, scope: !2, entity: !1045, file: !1003, line: 145)
!1045 = !DISubprogram(name: "div", scope: !998, file: !998, line: 852, type: !1046, flags: DIFlagPrototyped, spFlags: 0)
!1046 = !DISubroutineType(types: !1047)
!1047 = !{!1001, !574, !574}
!1048 = !DIImportedEntity(tag: DW_TAG_imported_declaration, scope: !2, entity: !1049, file: !1003, line: 146)
!1049 = !DISubprogram(name: "exit", scope: !998, file: !998, line: 617, type: !1050, flags: DIFlagPrototyped | DIFlagNoReturn, spFlags: 0)
!1050 = !DISubroutineType(types: !1051)
!1051 = !{null, !574}
!1052 = !DIImportedEntity(tag: DW_TAG_imported_declaration, scope: !2, entity: !1053, file: !1003, line: 147)
!1053 = !DISubprogram(name: "free", scope: !998, file: !998, line: 565, type: !1054, flags: DIFlagPrototyped, spFlags: 0)
!1054 = !DISubroutineType(types: !1055)
!1055 = !{null, !689}
!1056 = !DIImportedEntity(tag: DW_TAG_imported_declaration, scope: !2, entity: !1057, file: !1003, line: 148)
!1057 = !DISubprogram(name: "getenv", scope: !998, file: !998, line: 634, type: !1058, flags: DIFlagPrototyped, spFlags: 0)
!1058 = !DISubroutineType(types: !1059)
!1059 = !{!712, !642}
!1060 = !DIImportedEntity(tag: DW_TAG_imported_declaration, scope: !2, entity: !1061, file: !1003, line: 149)
!1061 = !DISubprogram(name: "labs", scope: !998, file: !998, line: 841, type: !1062, flags: DIFlagPrototyped, spFlags: 0)
!1062 = !DISubroutineType(types: !1063)
!1063 = !{!779, !779}
!1064 = !DIImportedEntity(tag: DW_TAG_imported_declaration, scope: !2, entity: !1065, file: !1003, line: 150)
!1065 = !DISubprogram(name: "ldiv", scope: !998, file: !998, line: 854, type: !1066, flags: DIFlagPrototyped, spFlags: 0)
!1066 = !DISubroutineType(types: !1067)
!1067 = !{!1005, !779, !779}
!1068 = !DIImportedEntity(tag: DW_TAG_imported_declaration, scope: !2, entity: !1069, file: !1003, line: 151)
!1069 = !DISubprogram(name: "malloc", scope: !998, file: !998, line: 539, type: !1070, flags: DIFlagPrototyped, spFlags: 0)
!1070 = !DISubroutineType(types: !1071)
!1071 = !{!689, !639}
!1072 = !DIImportedEntity(tag: DW_TAG_imported_declaration, scope: !2, entity: !1073, file: !1003, line: 153)
!1073 = !DISubprogram(name: "mblen", scope: !998, file: !998, line: 922, type: !1074, flags: DIFlagPrototyped, spFlags: 0)
!1074 = !DISubroutineType(types: !1075)
!1075 = !{!574, !642, !639}
!1076 = !DIImportedEntity(tag: DW_TAG_imported_declaration, scope: !2, entity: !1077, file: !1003, line: 154)
!1077 = !DISubprogram(name: "mbstowcs", scope: !998, file: !998, line: 933, type: !1078, flags: DIFlagPrototyped, spFlags: 0)
!1078 = !DISubroutineType(types: !1079)
!1079 = !{!639, !606, !641, !639}
!1080 = !DIImportedEntity(tag: DW_TAG_imported_declaration, scope: !2, entity: !1081, file: !1003, line: 155)
!1081 = !DISubprogram(name: "mbtowc", scope: !998, file: !998, line: 925, type: !1082, flags: DIFlagPrototyped, spFlags: 0)
!1082 = !DISubroutineType(types: !1083)
!1083 = !{!574, !606, !641, !639}
!1084 = !DIImportedEntity(tag: DW_TAG_imported_declaration, scope: !2, entity: !1085, file: !1003, line: 157)
!1085 = !DISubprogram(name: "qsort", scope: !998, file: !998, line: 830, type: !1086, flags: DIFlagPrototyped, spFlags: 0)
!1086 = !DISubroutineType(types: !1087)
!1087 = !{null, !689, !639, !639, !1038}
!1088 = !DIImportedEntity(tag: DW_TAG_imported_declaration, scope: !2, entity: !1089, file: !1003, line: 160)
!1089 = !DISubprogram(name: "quick_exit", scope: !998, file: !998, line: 623, type: !1050, flags: DIFlagPrototyped | DIFlagNoReturn, spFlags: 0)
!1090 = !DIImportedEntity(tag: DW_TAG_imported_declaration, scope: !2, entity: !1091, file: !1003, line: 163)
!1091 = !DISubprogram(name: "rand", scope: !998, file: !998, line: 453, type: !1092, flags: DIFlagPrototyped, spFlags: 0)
!1092 = !DISubroutineType(types: !1093)
!1093 = !{!574}
!1094 = !DIImportedEntity(tag: DW_TAG_imported_declaration, scope: !2, entity: !1095, file: !1003, line: 164)
!1095 = !DISubprogram(name: "realloc", scope: !998, file: !998, line: 550, type: !1096, flags: DIFlagPrototyped, spFlags: 0)
!1096 = !DISubroutineType(types: !1097)
!1097 = !{!689, !689, !639}
!1098 = !DIImportedEntity(tag: DW_TAG_imported_declaration, scope: !2, entity: !1099, file: !1003, line: 165)
!1099 = !DISubprogram(name: "srand", scope: !998, file: !998, line: 455, type: !1100, flags: DIFlagPrototyped, spFlags: 0)
!1100 = !DISubroutineType(types: !1101)
!1101 = !{null, !23}
!1102 = !DIImportedEntity(tag: DW_TAG_imported_declaration, scope: !2, entity: !1103, file: !1003, line: 166)
!1103 = !DISubprogram(name: "strtod", scope: !998, file: !998, line: 117, type: !1104, flags: DIFlagPrototyped, spFlags: 0)
!1104 = !DISubroutineType(types: !1105)
!1105 = !{!763, !641, !1106}
!1106 = !DIDerivedType(tag: DW_TAG_restrict_type, baseType: !1107)
!1107 = !DIDerivedType(tag: DW_TAG_pointer_type, baseType: !712, size: 64)
!1108 = !DIImportedEntity(tag: DW_TAG_imported_declaration, scope: !2, entity: !1109, file: !1003, line: 167)
!1109 = !DISubprogram(name: "strtol", scope: !998, file: !998, line: 176, type: !1110, flags: DIFlagPrototyped, spFlags: 0)
!1110 = !DISubroutineType(types: !1111)
!1111 = !{!779, !641, !1106, !574}
!1112 = !DIImportedEntity(tag: DW_TAG_imported_declaration, scope: !2, entity: !1113, file: !1003, line: 168)
!1113 = !DISubprogram(name: "strtoul", scope: !998, file: !998, line: 180, type: !1114, flags: DIFlagPrototyped, spFlags: 0)
!1114 = !DISubroutineType(types: !1115)
!1115 = !{!101, !641, !1106, !574}
!1116 = !DIImportedEntity(tag: DW_TAG_imported_declaration, scope: !2, entity: !1117, file: !1003, line: 169)
!1117 = !DISubprogram(name: "system", scope: !998, file: !998, line: 784, type: !1028, flags: DIFlagPrototyped, spFlags: 0)
!1118 = !DIImportedEntity(tag: DW_TAG_imported_declaration, scope: !2, entity: !1119, file: !1003, line: 171)
!1119 = !DISubprogram(name: "wcstombs", scope: !998, file: !998, line: 936, type: !1120, flags: DIFlagPrototyped, spFlags: 0)
!1120 = !DISubroutineType(types: !1121)
!1121 = !{!639, !711, !616, !639}
!1122 = !DIImportedEntity(tag: DW_TAG_imported_declaration, scope: !2, entity: !1123, file: !1003, line: 172)
!1123 = !DISubprogram(name: "wctomb", scope: !998, file: !998, line: 929, type: !1124, flags: DIFlagPrototyped, spFlags: 0)
!1124 = !DISubroutineType(types: !1125)
!1125 = !{!574, !712, !605}
!1126 = !DIImportedEntity(tag: DW_TAG_imported_declaration, scope: !22, entity: !1127, file: !1003, line: 200)
!1127 = !DIDerivedType(tag: DW_TAG_typedef, name: "lldiv_t", file: !998, line: 80, baseType: !1128)
!1128 = distinct !DICompositeType(tag: DW_TAG_structure_type, file: !998, line: 76, size: 128, flags: DIFlagTypePassByValue, elements: !1129, identifier: "_ZTS7lldiv_t")
!1129 = !{!1130, !1131}
!1130 = !DIDerivedType(tag: DW_TAG_member, name: "quot", scope: !1128, file: !998, line: 78, baseType: !835, size: 64)
!1131 = !DIDerivedType(tag: DW_TAG_member, name: "rem", scope: !1128, file: !998, line: 79, baseType: !835, size: 64, offset: 64)
!1132 = !DIImportedEntity(tag: DW_TAG_imported_declaration, scope: !22, entity: !1133, file: !1003, line: 206)
!1133 = !DISubprogram(name: "_Exit", scope: !998, file: !998, line: 629, type: !1050, flags: DIFlagPrototyped | DIFlagNoReturn, spFlags: 0)
!1134 = !DIImportedEntity(tag: DW_TAG_imported_declaration, scope: !22, entity: !1135, file: !1003, line: 210)
!1135 = !DISubprogram(name: "llabs", scope: !998, file: !998, line: 844, type: !1136, flags: DIFlagPrototyped, spFlags: 0)
!1136 = !DISubroutineType(types: !1137)
!1137 = !{!835, !835}
!1138 = !DIImportedEntity(tag: DW_TAG_imported_declaration, scope: !22, entity: !1139, file: !1003, line: 216)
!1139 = !DISubprogram(name: "lldiv", scope: !998, file: !998, line: 858, type: !1140, flags: DIFlagPrototyped, spFlags: 0)
!1140 = !DISubroutineType(types: !1141)
!1141 = !{!1127, !835, !835}
!1142 = !DIImportedEntity(tag: DW_TAG_imported_declaration, scope: !22, entity: !1143, file: !1003, line: 227)
!1143 = !DISubprogram(name: "atoll", scope: !998, file: !998, line: 112, type: !1144, flags: DIFlagPrototyped, spFlags: 0)
!1144 = !DISubroutineType(types: !1145)
!1145 = !{!835, !642}
!1146 = !DIImportedEntity(tag: DW_TAG_imported_declaration, scope: !22, entity: !1147, file: !1003, line: 228)
!1147 = !DISubprogram(name: "strtoll", scope: !998, file: !998, line: 200, type: !1148, flags: DIFlagPrototyped, spFlags: 0)
!1148 = !DISubroutineType(types: !1149)
!1149 = !{!835, !641, !1106, !574}
!1150 = !DIImportedEntity(tag: DW_TAG_imported_declaration, scope: !22, entity: !1151, file: !1003, line: 229)
!1151 = !DISubprogram(name: "strtoull", scope: !998, file: !998, line: 205, type: !1152, flags: DIFlagPrototyped, spFlags: 0)
!1152 = !DISubroutineType(types: !1153)
!1153 = !{!840, !641, !1106, !574}
!1154 = !DIImportedEntity(tag: DW_TAG_imported_declaration, scope: !22, entity: !1155, file: !1003, line: 231)
!1155 = !DISubprogram(name: "strtof", scope: !998, file: !998, line: 123, type: !1156, flags: DIFlagPrototyped, spFlags: 0)
!1156 = !DISubroutineType(types: !1157)
!1157 = !{!770, !641, !1106}
!1158 = !DIImportedEntity(tag: DW_TAG_imported_declaration, scope: !22, entity: !1159, file: !1003, line: 232)
!1159 = !DISubprogram(name: "strtold", scope: !998, file: !998, line: 126, type: !1160, flags: DIFlagPrototyped, spFlags: 0)
!1160 = !DISubroutineType(types: !1161)
!1161 = !{!830, !641, !1106}
!1162 = !DIImportedEntity(tag: DW_TAG_imported_declaration, scope: !2, entity: !1127, file: !1003, line: 240)
!1163 = !DIImportedEntity(tag: DW_TAG_imported_declaration, scope: !2, entity: !1133, file: !1003, line: 242)
!1164 = !DIImportedEntity(tag: DW_TAG_imported_declaration, scope: !2, entity: !1135, file: !1003, line: 244)
!1165 = !DIImportedEntity(tag: DW_TAG_imported_declaration, scope: !2, entity: !1166, file: !1003, line: 245)
!1166 = !DISubprogram(name: "div", linkageName: "_ZN9__gnu_cxx3divExx", scope: !22, file: !1003, line: 213, type: !1140, flags: DIFlagPrototyped, spFlags: 0)
!1167 = !DIImportedEntity(tag: DW_TAG_imported_declaration, scope: !2, entity: !1139, file: !1003, line: 246)
!1168 = !DIImportedEntity(tag: DW_TAG_imported_declaration, scope: !2, entity: !1143, file: !1003, line: 248)
!1169 = !DIImportedEntity(tag: DW_TAG_imported_declaration, scope: !2, entity: !1155, file: !1003, line: 249)
!1170 = !DIImportedEntity(tag: DW_TAG_imported_declaration, scope: !2, entity: !1147, file: !1003, line: 250)
!1171 = !DIImportedEntity(tag: DW_TAG_imported_declaration, scope: !2, entity: !1151, file: !1003, line: 251)
!1172 = !DIImportedEntity(tag: DW_TAG_imported_declaration, scope: !2, entity: !1159, file: !1003, line: 252)
!1173 = !DIImportedEntity(tag: DW_TAG_imported_declaration, scope: !2, entity: !1174, file: !1176, line: 98)
!1174 = !DIDerivedType(tag: DW_TAG_typedef, name: "FILE", file: !1175, line: 7, baseType: !599)
!1175 = !DIFile(filename: "/usr/include/x86_64-linux-gnu/bits/types/FILE.h", directory: "", checksumkind: CSK_MD5, checksum: "571f9fb6223c42439075fdde11a0de5d")
!1176 = !DIFile(filename: "/usr/lib/gcc/x86_64-linux-gnu/9/../../../../include/c++/9/cstdio", directory: "")
!1177 = !DIImportedEntity(tag: DW_TAG_imported_declaration, scope: !2, entity: !1178, file: !1176, line: 99)
!1178 = !DIDerivedType(tag: DW_TAG_typedef, name: "fpos_t", file: !1179, line: 84, baseType: !1180)
!1179 = !DIFile(filename: "/usr/include/stdio.h", directory: "", checksumkind: CSK_MD5, checksum: "5b917eded35ce2507d1e294bf8cb74d7")
!1180 = !DIDerivedType(tag: DW_TAG_typedef, name: "__fpos_t", file: !1181, line: 14, baseType: !1182)
!1181 = !DIFile(filename: "/usr/include/x86_64-linux-gnu/bits/types/__fpos_t.h", directory: "", checksumkind: CSK_MD5, checksum: "32de8bdaf3551a6c0a9394f9af4389ce")
!1182 = !DICompositeType(tag: DW_TAG_structure_type, name: "_G_fpos_t", file: !1181, line: 10, size: 128, flags: DIFlagFwdDecl, identifier: "_ZTS9_G_fpos_t")
!1183 = !DIImportedEntity(tag: DW_TAG_imported_declaration, scope: !2, entity: !1184, file: !1176, line: 101)
!1184 = !DISubprogram(name: "clearerr", scope: !1179, file: !1179, line: 757, type: !1185, flags: DIFlagPrototyped, spFlags: 0)
!1185 = !DISubroutineType(types: !1186)
!1186 = !{null, !1187}
!1187 = !DIDerivedType(tag: DW_TAG_pointer_type, baseType: !1174, size: 64)
!1188 = !DIImportedEntity(tag: DW_TAG_imported_declaration, scope: !2, entity: !1189, file: !1176, line: 102)
!1189 = !DISubprogram(name: "fclose", scope: !1179, file: !1179, line: 213, type: !1190, flags: DIFlagPrototyped, spFlags: 0)
!1190 = !DISubroutineType(types: !1191)
!1191 = !{!574, !1187}
!1192 = !DIImportedEntity(tag: DW_TAG_imported_declaration, scope: !2, entity: !1193, file: !1176, line: 103)
!1193 = !DISubprogram(name: "feof", scope: !1179, file: !1179, line: 759, type: !1190, flags: DIFlagPrototyped, spFlags: 0)
!1194 = !DIImportedEntity(tag: DW_TAG_imported_declaration, scope: !2, entity: !1195, file: !1176, line: 104)
!1195 = !DISubprogram(name: "ferror", scope: !1179, file: !1179, line: 761, type: !1190, flags: DIFlagPrototyped, spFlags: 0)
!1196 = !DIImportedEntity(tag: DW_TAG_imported_declaration, scope: !2, entity: !1197, file: !1176, line: 105)
!1197 = !DISubprogram(name: "fflush", scope: !1179, file: !1179, line: 218, type: !1190, flags: DIFlagPrototyped, spFlags: 0)
!1198 = !DIImportedEntity(tag: DW_TAG_imported_declaration, scope: !2, entity: !1199, file: !1176, line: 106)
!1199 = !DISubprogram(name: "fgetc", scope: !1179, file: !1179, line: 485, type: !1190, flags: DIFlagPrototyped, spFlags: 0)
!1200 = !DIImportedEntity(tag: DW_TAG_imported_declaration, scope: !2, entity: !1201, file: !1176, line: 107)
!1201 = !DISubprogram(name: "fgetpos", scope: !1179, file: !1179, line: 731, type: !1202, flags: DIFlagPrototyped, spFlags: 0)
!1202 = !DISubroutineType(types: !1203)
!1203 = !{!574, !1204, !1205}
!1204 = !DIDerivedType(tag: DW_TAG_restrict_type, baseType: !1187)
!1205 = !DIDerivedType(tag: DW_TAG_restrict_type, baseType: !1206)
!1206 = !DIDerivedType(tag: DW_TAG_pointer_type, baseType: !1178, size: 64)
!1207 = !DIImportedEntity(tag: DW_TAG_imported_declaration, scope: !2, entity: !1208, file: !1176, line: 108)
!1208 = !DISubprogram(name: "fgets", scope: !1179, file: !1179, line: 564, type: !1209, flags: DIFlagPrototyped, spFlags: 0)
!1209 = !DISubroutineType(types: !1210)
!1210 = !{!712, !711, !574, !1204}
!1211 = !DIImportedEntity(tag: DW_TAG_imported_declaration, scope: !2, entity: !1212, file: !1176, line: 109)
!1212 = !DISubprogram(name: "fopen", scope: !1179, file: !1179, line: 246, type: !1213, flags: DIFlagPrototyped, spFlags: 0)
!1213 = !DISubroutineType(types: !1214)
!1214 = !{!1187, !641, !641}
!1215 = !DIImportedEntity(tag: DW_TAG_imported_declaration, scope: !2, entity: !1216, file: !1176, line: 110)
!1216 = !DISubprogram(name: "fprintf", scope: !1179, file: !1179, line: 326, type: !1217, flags: DIFlagPrototyped, spFlags: 0)
!1217 = !DISubroutineType(types: !1218)
!1218 = !{!574, !1204, !641, null}
!1219 = !DIImportedEntity(tag: DW_TAG_imported_declaration, scope: !2, entity: !1220, file: !1176, line: 111)
!1220 = !DISubprogram(name: "fputc", scope: !1179, file: !1179, line: 521, type: !1221, flags: DIFlagPrototyped, spFlags: 0)
!1221 = !DISubroutineType(types: !1222)
!1222 = !{!574, !574, !1187}
!1223 = !DIImportedEntity(tag: DW_TAG_imported_declaration, scope: !2, entity: !1224, file: !1176, line: 112)
!1224 = !DISubprogram(name: "fputs", scope: !1179, file: !1179, line: 626, type: !1225, flags: DIFlagPrototyped, spFlags: 0)
!1225 = !DISubroutineType(types: !1226)
!1226 = !{!574, !641, !1204}
!1227 = !DIImportedEntity(tag: DW_TAG_imported_declaration, scope: !2, entity: !1228, file: !1176, line: 113)
!1228 = !DISubprogram(name: "fread", scope: !1179, file: !1179, line: 646, type: !1229, flags: DIFlagPrototyped, spFlags: 0)
!1229 = !DISubroutineType(types: !1230)
!1230 = !{!639, !1231, !639, !639, !1204}
!1231 = !DIDerivedType(tag: DW_TAG_restrict_type, baseType: !689)
!1232 = !DIImportedEntity(tag: DW_TAG_imported_declaration, scope: !2, entity: !1233, file: !1176, line: 114)
!1233 = !DISubprogram(name: "freopen", scope: !1179, file: !1179, line: 252, type: !1234, flags: DIFlagPrototyped, spFlags: 0)
!1234 = !DISubroutineType(types: !1235)
!1235 = !{!1187, !641, !641, !1204}
!1236 = !DIImportedEntity(tag: DW_TAG_imported_declaration, scope: !2, entity: !1237, file: !1176, line: 115)
!1237 = !DISubprogram(name: "fscanf", linkageName: "__isoc99_fscanf", scope: !1179, file: !1179, line: 407, type: !1217, flags: DIFlagPrototyped, spFlags: 0)
!1238 = !DIImportedEntity(tag: DW_TAG_imported_declaration, scope: !2, entity: !1239, file: !1176, line: 116)
!1239 = !DISubprogram(name: "fseek", scope: !1179, file: !1179, line: 684, type: !1240, flags: DIFlagPrototyped, spFlags: 0)
!1240 = !DISubroutineType(types: !1241)
!1241 = !{!574, !1187, !779, !574}
!1242 = !DIImportedEntity(tag: DW_TAG_imported_declaration, scope: !2, entity: !1243, file: !1176, line: 117)
!1243 = !DISubprogram(name: "fsetpos", scope: !1179, file: !1179, line: 736, type: !1244, flags: DIFlagPrototyped, spFlags: 0)
!1244 = !DISubroutineType(types: !1245)
!1245 = !{!574, !1187, !1246}
!1246 = !DIDerivedType(tag: DW_TAG_pointer_type, baseType: !1247, size: 64)
!1247 = !DIDerivedType(tag: DW_TAG_const_type, baseType: !1178)
!1248 = !DIImportedEntity(tag: DW_TAG_imported_declaration, scope: !2, entity: !1249, file: !1176, line: 118)
!1249 = !DISubprogram(name: "ftell", scope: !1179, file: !1179, line: 689, type: !1250, flags: DIFlagPrototyped, spFlags: 0)
!1250 = !DISubroutineType(types: !1251)
!1251 = !{!779, !1187}
!1252 = !DIImportedEntity(tag: DW_TAG_imported_declaration, scope: !2, entity: !1253, file: !1176, line: 119)
!1253 = !DISubprogram(name: "fwrite", scope: !1179, file: !1179, line: 652, type: !1254, flags: DIFlagPrototyped, spFlags: 0)
!1254 = !DISubroutineType(types: !1255)
!1255 = !{!639, !1256, !639, !639, !1204}
!1256 = !DIDerivedType(tag: DW_TAG_restrict_type, baseType: !182)
!1257 = !DIImportedEntity(tag: DW_TAG_imported_declaration, scope: !2, entity: !1258, file: !1176, line: 120)
!1258 = !DISubprogram(name: "getc", scope: !1179, file: !1179, line: 486, type: !1190, flags: DIFlagPrototyped, spFlags: 0)
!1259 = !DIImportedEntity(tag: DW_TAG_imported_declaration, scope: !2, entity: !1260, file: !1176, line: 121)
!1260 = !DISubprogram(name: "getchar", scope: !1179, file: !1179, line: 492, type: !1092, flags: DIFlagPrototyped, spFlags: 0)
!1261 = !DIImportedEntity(tag: DW_TAG_imported_declaration, scope: !2, entity: !1262, file: !1176, line: 126)
!1262 = !DISubprogram(name: "perror", scope: !1179, file: !1179, line: 775, type: !1263, flags: DIFlagPrototyped, spFlags: 0)
!1263 = !DISubroutineType(types: !1264)
!1264 = !{null, !642}
!1265 = !DIImportedEntity(tag: DW_TAG_imported_declaration, scope: !2, entity: !1266, file: !1176, line: 127)
!1266 = !DISubprogram(name: "printf", scope: !1179, file: !1179, line: 332, type: !1267, flags: DIFlagPrototyped, spFlags: 0)
!1267 = !DISubroutineType(types: !1268)
!1268 = !{!574, !641, null}
!1269 = !DIImportedEntity(tag: DW_TAG_imported_declaration, scope: !2, entity: !1270, file: !1176, line: 128)
!1270 = !DISubprogram(name: "putc", scope: !1179, file: !1179, line: 522, type: !1221, flags: DIFlagPrototyped, spFlags: 0)
!1271 = !DIImportedEntity(tag: DW_TAG_imported_declaration, scope: !2, entity: !1272, file: !1176, line: 129)
!1272 = !DISubprogram(name: "putchar", scope: !1179, file: !1179, line: 528, type: !962, flags: DIFlagPrototyped, spFlags: 0)
!1273 = !DIImportedEntity(tag: DW_TAG_imported_declaration, scope: !2, entity: !1274, file: !1176, line: 130)
!1274 = !DISubprogram(name: "puts", scope: !1179, file: !1179, line: 632, type: !1028, flags: DIFlagPrototyped, spFlags: 0)
!1275 = !DIImportedEntity(tag: DW_TAG_imported_declaration, scope: !2, entity: !1276, file: !1176, line: 131)
!1276 = !DISubprogram(name: "remove", scope: !1179, file: !1179, line: 146, type: !1028, flags: DIFlagPrototyped, spFlags: 0)
!1277 = !DIImportedEntity(tag: DW_TAG_imported_declaration, scope: !2, entity: !1278, file: !1176, line: 132)
!1278 = !DISubprogram(name: "rename", scope: !1179, file: !1179, line: 148, type: !1279, flags: DIFlagPrototyped, spFlags: 0)
!1279 = !DISubroutineType(types: !1280)
!1280 = !{!574, !642, !642}
!1281 = !DIImportedEntity(tag: DW_TAG_imported_declaration, scope: !2, entity: !1282, file: !1176, line: 133)
!1282 = !DISubprogram(name: "rewind", scope: !1179, file: !1179, line: 694, type: !1185, flags: DIFlagPrototyped, spFlags: 0)
!1283 = !DIImportedEntity(tag: DW_TAG_imported_declaration, scope: !2, entity: !1284, file: !1176, line: 134)
!1284 = !DISubprogram(name: "scanf", linkageName: "__isoc99_scanf", scope: !1179, file: !1179, line: 410, type: !1267, flags: DIFlagPrototyped, spFlags: 0)
!1285 = !DIImportedEntity(tag: DW_TAG_imported_declaration, scope: !2, entity: !1286, file: !1176, line: 135)
!1286 = !DISubprogram(name: "setbuf", scope: !1179, file: !1179, line: 304, type: !1287, flags: DIFlagPrototyped, spFlags: 0)
!1287 = !DISubroutineType(types: !1288)
!1288 = !{null, !1204, !711}
!1289 = !DIImportedEntity(tag: DW_TAG_imported_declaration, scope: !2, entity: !1290, file: !1176, line: 136)
!1290 = !DISubprogram(name: "setvbuf", scope: !1179, file: !1179, line: 308, type: !1291, flags: DIFlagPrototyped, spFlags: 0)
!1291 = !DISubroutineType(types: !1292)
!1292 = !{!574, !1204, !711, !574, !639}
!1293 = !DIImportedEntity(tag: DW_TAG_imported_declaration, scope: !2, entity: !1294, file: !1176, line: 137)
!1294 = !DISubprogram(name: "sprintf", scope: !1179, file: !1179, line: 334, type: !1295, flags: DIFlagPrototyped, spFlags: 0)
!1295 = !DISubroutineType(types: !1296)
!1296 = !{!574, !711, !641, null}
!1297 = !DIImportedEntity(tag: DW_TAG_imported_declaration, scope: !2, entity: !1298, file: !1176, line: 138)
!1298 = !DISubprogram(name: "sscanf", linkageName: "__isoc99_sscanf", scope: !1179, file: !1179, line: 412, type: !1299, flags: DIFlagPrototyped, spFlags: 0)
!1299 = !DISubroutineType(types: !1300)
!1300 = !{!574, !641, !641, null}
!1301 = !DIImportedEntity(tag: DW_TAG_imported_declaration, scope: !2, entity: !1302, file: !1176, line: 139)
!1302 = !DISubprogram(name: "tmpfile", scope: !1179, file: !1179, line: 173, type: !1303, flags: DIFlagPrototyped, spFlags: 0)
!1303 = !DISubroutineType(types: !1304)
!1304 = !{!1187}
!1305 = !DIImportedEntity(tag: DW_TAG_imported_declaration, scope: !2, entity: !1306, file: !1176, line: 141)
!1306 = !DISubprogram(name: "tmpnam", scope: !1179, file: !1179, line: 187, type: !1307, flags: DIFlagPrototyped, spFlags: 0)
!1307 = !DISubroutineType(types: !1308)
!1308 = !{!712, !712}
!1309 = !DIImportedEntity(tag: DW_TAG_imported_declaration, scope: !2, entity: !1310, file: !1176, line: 143)
!1310 = !DISubprogram(name: "ungetc", scope: !1179, file: !1179, line: 639, type: !1221, flags: DIFlagPrototyped, spFlags: 0)
!1311 = !DIImportedEntity(tag: DW_TAG_imported_declaration, scope: !2, entity: !1312, file: !1176, line: 144)
!1312 = !DISubprogram(name: "vfprintf", scope: !1179, file: !1179, line: 341, type: !1313, flags: DIFlagPrototyped, spFlags: 0)
!1313 = !DISubroutineType(types: !1314)
!1314 = !{!574, !1204, !641, !683}
!1315 = !DIImportedEntity(tag: DW_TAG_imported_declaration, scope: !2, entity: !1316, file: !1176, line: 145)
!1316 = !DISubprogram(name: "vprintf", scope: !1179, file: !1179, line: 347, type: !1317, flags: DIFlagPrototyped, spFlags: 0)
!1317 = !DISubroutineType(types: !1318)
!1318 = !{!574, !641, !683}
!1319 = !DIImportedEntity(tag: DW_TAG_imported_declaration, scope: !2, entity: !1320, file: !1176, line: 146)
!1320 = !DISubprogram(name: "vsprintf", scope: !1179, file: !1179, line: 349, type: !1321, flags: DIFlagPrototyped, spFlags: 0)
!1321 = !DISubroutineType(types: !1322)
!1322 = !{!574, !711, !641, !683}
!1323 = !DIImportedEntity(tag: DW_TAG_imported_declaration, scope: !22, entity: !1324, file: !1176, line: 175)
!1324 = !DISubprogram(name: "snprintf", scope: !1179, file: !1179, line: 354, type: !1325, flags: DIFlagPrototyped, spFlags: 0)
!1325 = !DISubroutineType(types: !1326)
!1326 = !{!574, !711, !639, !641, null}
!1327 = !DIImportedEntity(tag: DW_TAG_imported_declaration, scope: !22, entity: !1328, file: !1176, line: 176)
!1328 = !DISubprogram(name: "vfscanf", linkageName: "__isoc99_vfscanf", scope: !1179, file: !1179, line: 451, type: !1313, flags: DIFlagPrototyped, spFlags: 0)
!1329 = !DIImportedEntity(tag: DW_TAG_imported_declaration, scope: !22, entity: !1330, file: !1176, line: 177)
!1330 = !DISubprogram(name: "vscanf", linkageName: "__isoc99_vscanf", scope: !1179, file: !1179, line: 456, type: !1317, flags: DIFlagPrototyped, spFlags: 0)
!1331 = !DIImportedEntity(tag: DW_TAG_imported_declaration, scope: !22, entity: !1332, file: !1176, line: 178)
!1332 = !DISubprogram(name: "vsnprintf", scope: !1179, file: !1179, line: 358, type: !1333, flags: DIFlagPrototyped, spFlags: 0)
!1333 = !DISubroutineType(types: !1334)
!1334 = !{!574, !711, !639, !641, !683}
!1335 = !DIImportedEntity(tag: DW_TAG_imported_declaration, scope: !22, entity: !1336, file: !1176, line: 179)
!1336 = !DISubprogram(name: "vsscanf", linkageName: "__isoc99_vsscanf", scope: !1179, file: !1179, line: 459, type: !1337, flags: DIFlagPrototyped, spFlags: 0)
!1337 = !DISubroutineType(types: !1338)
!1338 = !{!574, !641, !641, !683}
!1339 = !DIImportedEntity(tag: DW_TAG_imported_declaration, scope: !2, entity: !1324, file: !1176, line: 185)
!1340 = !DIImportedEntity(tag: DW_TAG_imported_declaration, scope: !2, entity: !1328, file: !1176, line: 186)
!1341 = !DIImportedEntity(tag: DW_TAG_imported_declaration, scope: !2, entity: !1330, file: !1176, line: 187)
!1342 = !DIImportedEntity(tag: DW_TAG_imported_declaration, scope: !2, entity: !1332, file: !1176, line: 188)
!1343 = !DIImportedEntity(tag: DW_TAG_imported_declaration, scope: !2, entity: !1336, file: !1176, line: 189)
!1344 = !DIImportedEntity(tag: DW_TAG_imported_declaration, scope: !2, entity: !1345, file: !1349, line: 82)
!1345 = !DIDerivedType(tag: DW_TAG_typedef, name: "wctrans_t", file: !1346, line: 48, baseType: !1347)
!1346 = !DIFile(filename: "/usr/include/wctype.h", directory: "", checksumkind: CSK_MD5, checksum: "e83097fbf57cc71ea472db59df3ba75d")
!1347 = !DIDerivedType(tag: DW_TAG_pointer_type, baseType: !1348, size: 64)
!1348 = !DIDerivedType(tag: DW_TAG_const_type, baseType: !876)
!1349 = !DIFile(filename: "/usr/lib/gcc/x86_64-linux-gnu/9/../../../../include/c++/9/cwctype", directory: "")
!1350 = !DIImportedEntity(tag: DW_TAG_imported_declaration, scope: !2, entity: !1351, file: !1349, line: 83)
!1351 = !DIDerivedType(tag: DW_TAG_typedef, name: "wctype_t", file: !1352, line: 38, baseType: !101)
!1352 = !DIFile(filename: "/usr/include/x86_64-linux-gnu/bits/wctype-wchar.h", directory: "", checksumkind: CSK_MD5, checksum: "3598b9d23ef5d76319026b46e316b55f")
!1353 = !DIImportedEntity(tag: DW_TAG_imported_declaration, scope: !2, entity: !585, file: !1349, line: 84)
!1354 = !DIImportedEntity(tag: DW_TAG_imported_declaration, scope: !2, entity: !1355, file: !1349, line: 86)
!1355 = !DISubprogram(name: "iswalnum", scope: !1352, file: !1352, line: 95, type: !790, flags: DIFlagPrototyped, spFlags: 0)
!1356 = !DIImportedEntity(tag: DW_TAG_imported_declaration, scope: !2, entity: !1357, file: !1349, line: 87)
!1357 = !DISubprogram(name: "iswalpha", scope: !1352, file: !1352, line: 101, type: !790, flags: DIFlagPrototyped, spFlags: 0)
!1358 = !DIImportedEntity(tag: DW_TAG_imported_declaration, scope: !2, entity: !1359, file: !1349, line: 89)
!1359 = !DISubprogram(name: "iswblank", scope: !1352, file: !1352, line: 146, type: !790, flags: DIFlagPrototyped, spFlags: 0)
!1360 = !DIImportedEntity(tag: DW_TAG_imported_declaration, scope: !2, entity: !1361, file: !1349, line: 91)
!1361 = !DISubprogram(name: "iswcntrl", scope: !1352, file: !1352, line: 104, type: !790, flags: DIFlagPrototyped, spFlags: 0)
!1362 = !DIImportedEntity(tag: DW_TAG_imported_declaration, scope: !2, entity: !1363, file: !1349, line: 92)
!1363 = !DISubprogram(name: "iswctype", scope: !1352, file: !1352, line: 159, type: !1364, flags: DIFlagPrototyped, spFlags: 0)
!1364 = !DISubroutineType(types: !1365)
!1365 = !{!574, !585, !1351}
!1366 = !DIImportedEntity(tag: DW_TAG_imported_declaration, scope: !2, entity: !1367, file: !1349, line: 93)
!1367 = !DISubprogram(name: "iswdigit", scope: !1352, file: !1352, line: 108, type: !790, flags: DIFlagPrototyped, spFlags: 0)
!1368 = !DIImportedEntity(tag: DW_TAG_imported_declaration, scope: !2, entity: !1369, file: !1349, line: 94)
!1369 = !DISubprogram(name: "iswgraph", scope: !1352, file: !1352, line: 112, type: !790, flags: DIFlagPrototyped, spFlags: 0)
!1370 = !DIImportedEntity(tag: DW_TAG_imported_declaration, scope: !2, entity: !1371, file: !1349, line: 95)
!1371 = !DISubprogram(name: "iswlower", scope: !1352, file: !1352, line: 117, type: !790, flags: DIFlagPrototyped, spFlags: 0)
!1372 = !DIImportedEntity(tag: DW_TAG_imported_declaration, scope: !2, entity: !1373, file: !1349, line: 96)
!1373 = !DISubprogram(name: "iswprint", scope: !1352, file: !1352, line: 120, type: !790, flags: DIFlagPrototyped, spFlags: 0)
!1374 = !DIImportedEntity(tag: DW_TAG_imported_declaration, scope: !2, entity: !1375, file: !1349, line: 97)
!1375 = !DISubprogram(name: "iswpunct", scope: !1352, file: !1352, line: 125, type: !790, flags: DIFlagPrototyped, spFlags: 0)
!1376 = !DIImportedEntity(tag: DW_TAG_imported_declaration, scope: !2, entity: !1377, file: !1349, line: 98)
!1377 = !DISubprogram(name: "iswspace", scope: !1352, file: !1352, line: 130, type: !790, flags: DIFlagPrototyped, spFlags: 0)
!1378 = !DIImportedEntity(tag: DW_TAG_imported_declaration, scope: !2, entity: !1379, file: !1349, line: 99)
!1379 = !DISubprogram(name: "iswupper", scope: !1352, file: !1352, line: 135, type: !790, flags: DIFlagPrototyped, spFlags: 0)
!1380 = !DIImportedEntity(tag: DW_TAG_imported_declaration, scope: !2, entity: !1381, file: !1349, line: 100)
!1381 = !DISubprogram(name: "iswxdigit", scope: !1352, file: !1352, line: 140, type: !790, flags: DIFlagPrototyped, spFlags: 0)
!1382 = !DIImportedEntity(tag: DW_TAG_imported_declaration, scope: !2, entity: !1383, file: !1349, line: 101)
!1383 = !DISubprogram(name: "towctrans", scope: !1346, file: !1346, line: 55, type: !1384, flags: DIFlagPrototyped, spFlags: 0)
!1384 = !DISubroutineType(types: !1385)
!1385 = !{!585, !585, !1345}
!1386 = !DIImportedEntity(tag: DW_TAG_imported_declaration, scope: !2, entity: !1387, file: !1349, line: 102)
!1387 = !DISubprogram(name: "towlower", scope: !1352, file: !1352, line: 166, type: !1388, flags: DIFlagPrototyped, spFlags: 0)
!1388 = !DISubroutineType(types: !1389)
!1389 = !{!585, !585}
!1390 = !DIImportedEntity(tag: DW_TAG_imported_declaration, scope: !2, entity: !1391, file: !1349, line: 103)
!1391 = !DISubprogram(name: "towupper", scope: !1352, file: !1352, line: 169, type: !1388, flags: DIFlagPrototyped, spFlags: 0)
!1392 = !DIImportedEntity(tag: DW_TAG_imported_declaration, scope: !2, entity: !1393, file: !1349, line: 104)
!1393 = !DISubprogram(name: "wctrans", scope: !1346, file: !1346, line: 52, type: !1394, flags: DIFlagPrototyped, spFlags: 0)
!1394 = !DISubroutineType(types: !1395)
!1395 = !{!1345, !642}
!1396 = !DIImportedEntity(tag: DW_TAG_imported_declaration, scope: !2, entity: !1397, file: !1349, line: 105)
!1397 = !DISubprogram(name: "wctype", scope: !1352, file: !1352, line: 155, type: !1398, flags: DIFlagPrototyped, spFlags: 0)
!1398 = !DISubroutineType(types: !1399)
!1399 = !{!1351, !642}
!1400 = !DIImportedEntity(tag: DW_TAG_imported_declaration, scope: !2, entity: !1401, file: !1404, line: 60)
!1401 = !DIDerivedType(tag: DW_TAG_typedef, name: "clock_t", file: !1402, line: 7, baseType: !1403)
!1402 = !DIFile(filename: "/usr/include/x86_64-linux-gnu/bits/types/clock_t.h", directory: "", checksumkind: CSK_MD5, checksum: "1aade99fd778d1551600c7ca1410b9f1")
!1403 = !DIDerivedType(tag: DW_TAG_typedef, name: "__clock_t", file: !867, line: 156, baseType: !779)
!1404 = !DIFile(filename: "/usr/lib/gcc/x86_64-linux-gnu/9/../../../../include/c++/9/ctime", directory: "")
!1405 = !DIImportedEntity(tag: DW_TAG_imported_declaration, scope: !2, entity: !1406, file: !1404, line: 61)
!1406 = !DIDerivedType(tag: DW_TAG_typedef, name: "time_t", file: !1407, line: 7, baseType: !1408)
!1407 = !DIFile(filename: "/usr/include/x86_64-linux-gnu/bits/types/time_t.h", directory: "", checksumkind: CSK_MD5, checksum: "49b4e16ef1215de5afdbb283400ab90c")
!1408 = !DIDerivedType(tag: DW_TAG_typedef, name: "__time_t", file: !867, line: 160, baseType: !779)
!1409 = !DIImportedEntity(tag: DW_TAG_imported_declaration, scope: !2, entity: !736, file: !1404, line: 62)
!1410 = !DIImportedEntity(tag: DW_TAG_imported_declaration, scope: !2, entity: !1411, file: !1404, line: 64)
!1411 = !DISubprogram(name: "clock", scope: !1412, file: !1412, line: 72, type: !1413, flags: DIFlagPrototyped, spFlags: 0)
!1412 = !DIFile(filename: "/usr/include/time.h", directory: "", checksumkind: CSK_MD5, checksum: "2dc9fb937b28c900f98919b5c35320c2")
!1413 = !DISubroutineType(types: !1414)
!1414 = !{!1401}
!1415 = !DIImportedEntity(tag: DW_TAG_imported_declaration, scope: !2, entity: !1416, file: !1404, line: 65)
!1416 = !DISubprogram(name: "difftime", scope: !1412, file: !1412, line: 78, type: !1417, flags: DIFlagPrototyped, spFlags: 0)
!1417 = !DISubroutineType(types: !1418)
!1418 = !{!763, !1406, !1406}
!1419 = !DIImportedEntity(tag: DW_TAG_imported_declaration, scope: !2, entity: !1420, file: !1404, line: 66)
!1420 = !DISubprogram(name: "mktime", scope: !1412, file: !1412, line: 82, type: !1421, flags: DIFlagPrototyped, spFlags: 0)
!1421 = !DISubroutineType(types: !1422)
!1422 = !{!1406, !1423}
!1423 = !DIDerivedType(tag: DW_TAG_pointer_type, baseType: !736, size: 64)
!1424 = !DIImportedEntity(tag: DW_TAG_imported_declaration, scope: !2, entity: !1425, file: !1404, line: 67)
!1425 = !DISubprogram(name: "time", scope: !1412, file: !1412, line: 75, type: !1426, flags: DIFlagPrototyped, spFlags: 0)
!1426 = !DISubroutineType(types: !1427)
!1427 = !{!1406, !1428}
!1428 = !DIDerivedType(tag: DW_TAG_pointer_type, baseType: !1406, size: 64)
!1429 = !DIImportedEntity(tag: DW_TAG_imported_declaration, scope: !2, entity: !1430, file: !1404, line: 68)
!1430 = !DISubprogram(name: "asctime", scope: !1412, file: !1412, line: 139, type: !1431, flags: DIFlagPrototyped, spFlags: 0)
!1431 = !DISubroutineType(types: !1432)
!1432 = !{!712, !734}
!1433 = !DIImportedEntity(tag: DW_TAG_imported_declaration, scope: !2, entity: !1434, file: !1404, line: 69)
!1434 = !DISubprogram(name: "ctime", scope: !1412, file: !1412, line: 142, type: !1435, flags: DIFlagPrototyped, spFlags: 0)
!1435 = !DISubroutineType(types: !1436)
!1436 = !{!712, !1437}
!1437 = !DIDerivedType(tag: DW_TAG_pointer_type, baseType: !1438, size: 64)
!1438 = !DIDerivedType(tag: DW_TAG_const_type, baseType: !1406)
!1439 = !DIImportedEntity(tag: DW_TAG_imported_declaration, scope: !2, entity: !1440, file: !1404, line: 70)
!1440 = !DISubprogram(name: "gmtime", scope: !1412, file: !1412, line: 119, type: !1441, flags: DIFlagPrototyped, spFlags: 0)
!1441 = !DISubroutineType(types: !1442)
!1442 = !{!1423, !1437}
!1443 = !DIImportedEntity(tag: DW_TAG_imported_declaration, scope: !2, entity: !1444, file: !1404, line: 71)
!1444 = !DISubprogram(name: "localtime", scope: !1412, file: !1412, line: 123, type: !1441, flags: DIFlagPrototyped, spFlags: 0)
!1445 = !DIImportedEntity(tag: DW_TAG_imported_declaration, scope: !2, entity: !1446, file: !1404, line: 72)
!1446 = !DISubprogram(name: "strftime", scope: !1412, file: !1412, line: 88, type: !1447, flags: DIFlagPrototyped, spFlags: 0)
!1447 = !DISubroutineType(types: !1448)
!1448 = !{!639, !711, !639, !641, !733}
!1449 = !DIImportedEntity(tag: DW_TAG_imported_declaration, scope: !2, entity: !1450, file: !1404, line: 79)
!1450 = distinct !DICompositeType(tag: DW_TAG_structure_type, name: "timespec", file: !1451, line: 10, size: 128, flags: DIFlagTypePassByValue, elements: !1452, identifier: "_ZTS8timespec")
!1451 = !DIFile(filename: "/usr/include/x86_64-linux-gnu/bits/types/struct_timespec.h", directory: "", checksumkind: CSK_MD5, checksum: "33f28095c70788baa6982a79b13f774b")
!1452 = !{!1453, !1454}
!1453 = !DIDerivedType(tag: DW_TAG_member, name: "tv_sec", scope: !1450, file: !1451, line: 12, baseType: !1408, size: 64)
!1454 = !DIDerivedType(tag: DW_TAG_member, name: "tv_nsec", scope: !1450, file: !1451, line: 16, baseType: !1455, size: 64, offset: 64)
!1455 = !DIDerivedType(tag: DW_TAG_typedef, name: "__syscall_slong_t", file: !867, line: 196, baseType: !779)
!1456 = !DIImportedEntity(tag: DW_TAG_imported_declaration, scope: !2, entity: !1457, file: !1404, line: 80)
!1457 = !DISubprogram(name: "timespec_get", scope: !1412, file: !1412, line: 257, type: !1458, flags: DIFlagPrototyped, spFlags: 0)
!1458 = !DISubroutineType(types: !1459)
!1459 = !{!574, !1460, !574}
!1460 = !DIDerivedType(tag: DW_TAG_pointer_type, baseType: !1450, size: 64)
!1461 = !DIImportedEntity(tag: DW_TAG_imported_module, scope: !1462, entity: !1463, file: !1465, line: 973)
!1462 = !DINamespace(name: "chrono", scope: !2)
!1463 = !DINamespace(name: "chrono_literals", scope: !1464, exportSymbols: true)
!1464 = !DINamespace(name: "literals", scope: !2, exportSymbols: true)
!1465 = !DIFile(filename: "/usr/lib/gcc/x86_64-linux-gnu/9/../../../../include/c++/9/chrono", directory: "")
!1466 = !DIImportedEntity(tag: DW_TAG_imported_declaration, scope: !2, entity: !20, file: !1467, line: 86)
!1467 = !DIFile(filename: "/usr/lib/gcc/x86_64-linux-gnu/9/../../../../include/c++/9/bits/shared_ptr_base.h", directory: "", checksumkind: CSK_MD5, checksum: "1733263deedfa36d980cec211a9e526a")
!1468 = !DIImportedEntity(tag: DW_TAG_imported_declaration, scope: !2, entity: !1469, file: !1467, line: 87)
!1469 = !DIGlobalVariable(name: "__default_lock_policy", linkageName: "_ZN9__gnu_cxxL21__default_lock_policyE", scope: !22, file: !21, line: 53, type: !1470, isLocal: true, isDefinition: false)
!1470 = !DIDerivedType(tag: DW_TAG_const_type, baseType: !20)
!1471 = !{i32 7, !"Dwarf Version", i32 5}
!1472 = !{i32 2, !"Debug Info Version", i32 3}
!1473 = !{i32 1, !"wchar_size", i32 4}
!1474 = !{i32 8, !"PIC Level", i32 2}
!1475 = !{i32 7, !"PIE Level", i32 2}
!1476 = !{i32 7, !"uwtable", i32 2}
!1477 = !{i32 7, !"frame-pointer", i32 2}
!1478 = !{!"clang version 17.0.0 (https://github.com/llvm/llvm-project.git 88bf774c565080e30e0a073676c316ab175303af)"}
!1479 = distinct !DISubprogram(name: "__cxx_global_var_init", scope: !9, file: !9, type: !30, flags: DIFlagArtificial, spFlags: DISPFlagLocalToUnit | DISPFlagDefinition, unit: !17)
!1480 = !DILocation(line: 74, column: 25, scope: !1481)
!1481 = !DILexicalBlockFile(scope: !1479, file: !3, discriminator: 0)
!1482 = !DILocation(line: 0, scope: !1479)
!1483 = distinct !DISubprogram(name: "threadFunction1", linkageName: "_Z15threadFunction1v", scope: !9, file: !9, line: 5, type: !30, scopeLine: 5, flags: DIFlagPrototyped, spFlags: DISPFlagDefinition, unit: !17)
!1484 = !DILocation(line: 6, column: 15, scope: !1483)
!1485 = !DILocation(line: 7, column: 1, scope: !1483)
!1486 = distinct !DISubprogram(name: "threadFunction2", linkageName: "_Z15threadFunction2v", scope: !9, file: !9, line: 10, type: !30, scopeLine: 10, flags: DIFlagPrototyped, spFlags: DISPFlagDefinition, unit: !17)
!1487 = !DILocation(line: 11, column: 15, scope: !1486)
!1488 = !DILocation(line: 12, column: 1, scope: !1486)
!1489 = distinct !DISubprogram(name: "main", scope: !9, file: !9, line: 14, type: !1092, scopeLine: 14, flags: DIFlagPrototyped, spFlags: DISPFlagDefinition, unit: !17, retainedNodes: !40)
!1490 = !DILocalVariable(name: "thread1", scope: !1489, file: !9, line: 16, type: !56)
!1491 = !DILocation(line: 16, column: 17, scope: !1489)
!1492 = !DILocalVariable(name: "thread2", scope: !1489, file: !9, line: 19, type: !56)
!1493 = !DILocation(line: 19, column: 17, scope: !1489)
!1494 = !DILocation(line: 22, column: 13, scope: !1489)
!1495 = !DILocation(line: 25, column: 13, scope: !1489)
!1496 = !DILocation(line: 27, column: 5, scope: !1489)
!1497 = !DILocation(line: 28, column: 1, scope: !1489)
!1498 = distinct !DISubprogram(name: "thread<void (&)(), void>", linkageName: "_ZNSt6threadC2IRFvvEJEvEEOT_DpOT0_", scope: !56, file: !55, line: 117, type: !1499, scopeLine: 118, flags: DIFlagPrototyped, spFlags: DISPFlagDefinition, unit: !17, templateParams: !1503, declaration: !1502, retainedNodes: !40)
!1499 = !DISubroutineType(types: !1500)
!1500 = !{null, !62, !1501}
!1501 = !DIDerivedType(tag: DW_TAG_reference_type, baseType: !30, size: 64)
!1502 = !DISubprogram(name: "thread<void (&)(), void>", scope: !56, file: !55, line: 117, type: !1499, scopeLine: 117, flags: DIFlagPublic | DIFlagExplicit | DIFlagPrototyped, spFlags: 0, templateParams: !1503)
!1503 = !{!1504, !46, !1505}
!1504 = !DITemplateTypeParameter(name: "_Callable", type: !1501)
!1505 = !DITemplateTypeParameter(type: null)
!1506 = !DILocalVariable(name: "this", arg: 1, scope: !1498, type: !1507, flags: DIFlagArtificial | DIFlagObjectPointer)
!1507 = !DIDerivedType(tag: DW_TAG_pointer_type, baseType: !56, size: 64)
!1508 = !DILocation(line: 0, scope: !1498)
!1509 = !DILocalVariable(name: "__f", arg: 2, scope: !1498, file: !55, line: 117, type: !1501)
!1510 = !DILocation(line: 117, column: 26, scope: !1498)
!1511 = !DILocation(line: 117, column: 7, scope: !1498)
!1512 = !DILocalVariable(name: "__depend", scope: !1513, file: !55, line: 126, type: !29)
!1513 = distinct !DILexicalBlock(scope: !1498, file: !55, line: 118, column: 7)
!1514 = !DILocation(line: 126, column: 7, scope: !1513)
!1515 = !DILocation(line: 131, column: 47, scope: !1513)
!1516 = !DILocation(line: 131, column: 8, scope: !1513)
!1517 = !DILocation(line: 130, column: 25, scope: !1513)
!1518 = !DILocation(line: 133, column: 6, scope: !1513)
!1519 = !DILocation(line: 130, column: 9, scope: !1513)
!1520 = !DILocation(line: 134, column: 7, scope: !1498)
!1521 = !DILocation(line: 134, column: 7, scope: !1513)
!1522 = distinct !DISubprogram(name: "~thread", linkageName: "_ZNSt6threadD2Ev", scope: !56, file: !55, line: 136, type: !60, scopeLine: 137, flags: DIFlagPrototyped, spFlags: DISPFlagDefinition, unit: !17, declaration: !63, retainedNodes: !40)
!1523 = !DILocalVariable(name: "this", arg: 1, scope: !1522, type: !1507, flags: DIFlagArtificial | DIFlagObjectPointer)
!1524 = !DILocation(line: 0, scope: !1522)
!1525 = !DILocation(line: 138, column: 11, scope: !1526)
!1526 = distinct !DILexicalBlock(scope: !1527, file: !55, line: 138, column: 11)
!1527 = distinct !DILexicalBlock(scope: !1522, file: !55, line: 137, column: 5)
!1528 = !DILocation(line: 138, column: 11, scope: !1527)
!1529 = !DILocation(line: 139, column: 2, scope: !1526)
!1530 = !DILocation(line: 140, column: 5, scope: !1522)
!1531 = distinct !DISubprogram(name: "joinable", linkageName: "_ZNKSt6thread8joinableEv", scope: !56, file: !55, line: 162, type: !84, scopeLine: 163, flags: DIFlagPrototyped, spFlags: DISPFlagDefinition, unit: !17, declaration: !83, retainedNodes: !40)
!1532 = !DILocalVariable(name: "this", arg: 1, scope: !1531, type: !1533, flags: DIFlagArtificial | DIFlagObjectPointer)
!1533 = !DIDerivedType(tag: DW_TAG_pointer_type, baseType: !68, size: 64)
!1534 = !DILocation(line: 0, scope: !1531)
!1535 = !DILocation(line: 163, column: 16, scope: !1531)
!1536 = !DILocation(line: 163, column: 25, scope: !1531)
!1537 = !DILocation(line: 163, column: 22, scope: !1531)
!1538 = !DILocation(line: 163, column: 14, scope: !1531)
!1539 = !DILocation(line: 163, column: 7, scope: !1531)
!1540 = distinct !DISubprogram(name: "operator==", linkageName: "_ZSteqNSt6thread2idES0_", scope: !2, file: !55, line: 276, type: !1541, scopeLine: 277, flags: DIFlagPrototyped, spFlags: DISPFlagDefinition, unit: !17, retainedNodes: !40)
!1541 = !DISubroutineType(types: !1542)
!1542 = !{!86, !54, !54}
!1543 = !DILocalVariable(name: "__x", arg: 1, scope: !1540, file: !55, line: 276, type: !54)
!1544 = !DILocation(line: 276, column: 25, scope: !1540)
!1545 = !DILocalVariable(name: "__y", arg: 2, scope: !1540, file: !55, line: 276, type: !54)
!1546 = !DILocation(line: 276, column: 41, scope: !1540)
!1547 = !DILocation(line: 282, column: 16, scope: !1540)
!1548 = !DILocation(line: 282, column: 33, scope: !1540)
!1549 = !DILocation(line: 282, column: 26, scope: !1540)
!1550 = !DILocation(line: 282, column: 5, scope: !1540)
!1551 = distinct !DISubprogram(name: "id", linkageName: "_ZNSt6thread2idC2Ev", scope: !54, file: !55, line: 82, type: !447, scopeLine: 82, flags: DIFlagPrototyped, spFlags: DISPFlagDefinition, unit: !17, declaration: !446, retainedNodes: !40)
!1552 = !DILocalVariable(name: "this", arg: 1, scope: !1551, type: !1553, flags: DIFlagArtificial | DIFlagObjectPointer)
!1553 = !DIDerivedType(tag: DW_TAG_pointer_type, baseType: !54, size: 64)
!1554 = !DILocation(line: 0, scope: !1551)
!1555 = !DILocation(line: 82, column: 23, scope: !1551)
!1556 = !DILocation(line: 82, column: 37, scope: !1551)
!1557 = distinct !DISubprogram(name: "_S_make_state<std::thread::_Invoker<std::tuple<void (*)()> > >", linkageName: "_ZNSt6thread13_S_make_stateINS_8_InvokerISt5tupleIJPFvvEEEEEEESt10unique_ptrINS_6_StateESt14default_deleteIS8_EEOT_", scope: !56, file: !55, line: 203, type: !1558, scopeLine: 204, flags: DIFlagPrototyped, spFlags: DISPFlagDefinition, unit: !17, templateParams: !1562, declaration: !1561, retainedNodes: !40)
!1558 = !DISubroutineType(types: !1559)
!1559 = !{!108, !1560}
!1560 = !DIDerivedType(tag: DW_TAG_rvalue_reference_type, baseType: !555, size: 64)
!1561 = !DISubprogram(name: "_S_make_state<std::thread::_Invoker<std::tuple<void (*)()> > >", linkageName: "_ZNSt6thread13_S_make_stateINS_8_InvokerISt5tupleIJPFvvEEEEEEESt10unique_ptrINS_6_StateESt14default_deleteIS8_EEOT_", scope: !56, file: !55, line: 203, type: !1558, scopeLine: 203, flags: DIFlagPrototyped | DIFlagStaticMember, spFlags: 0, templateParams: !1562)
!1562 = !{!1563}
!1563 = !DITemplateTypeParameter(name: "_Callable", type: !555)
!1564 = !DILocalVariable(name: "__f", arg: 1, scope: !1557, file: !55, line: 203, type: !1560)
!1565 = !DILocation(line: 203, column: 33, scope: !1557)
!1566 = !DILocation(line: 206, column: 20, scope: !1557)
!1567 = !DIDerivedType(tag: DW_TAG_typedef, name: "_Impl", scope: !1557, file: !55, line: 205, baseType: !1568)
!1568 = distinct !DICompositeType(tag: DW_TAG_structure_type, name: "_State_impl<std::thread::_Invoker<std::tuple<void (*)()> > >", scope: !56, file: !55, line: 187, size: 128, flags: DIFlagTypePassByReference | DIFlagNonTrivial, elements: !1569, vtableHolder: !141, templateParams: !1562, identifier: "_ZTSNSt6thread11_State_implINS_8_InvokerISt5tupleIJPFvvEEEEEEE")
!1569 = !{!1570, !1571, !1572, !1576}
!1570 = !DIDerivedType(tag: DW_TAG_inheritance, scope: !1568, baseType: !141, extraData: i32 0)
!1571 = !DIDerivedType(tag: DW_TAG_member, name: "_M_func", scope: !1568, file: !55, line: 189, baseType: !555, size: 64, offset: 64)
!1572 = !DISubprogram(name: "_State_impl", scope: !1568, file: !55, line: 191, type: !1573, scopeLine: 191, flags: DIFlagPrototyped, spFlags: 0)
!1573 = !DISubroutineType(types: !1574)
!1574 = !{null, !1575, !1560}
!1575 = !DIDerivedType(tag: DW_TAG_pointer_type, baseType: !1568, size: 64, flags: DIFlagArtificial | DIFlagObjectPointer)
!1576 = !DISubprogram(name: "_M_run", linkageName: "_ZNSt6thread11_State_implINS_8_InvokerISt5tupleIJPFvvEEEEEE6_M_runEv", scope: !1568, file: !55, line: 195, type: !1577, scopeLine: 195, containingType: !1568, virtualIndex: 2, flags: DIFlagPrototyped, spFlags: DISPFlagVirtual)
!1577 = !DISubroutineType(types: !1578)
!1578 = !{null, !1575}
!1579 = !DILocation(line: 206, column: 54, scope: !1557)
!1580 = !DILocation(line: 206, column: 24, scope: !1557)
!1581 = !DILocation(line: 206, column: 9, scope: !1557)
!1582 = !DILocation(line: 206, column: 2, scope: !1557)
!1583 = !DILocation(line: 207, column: 7, scope: !1557)
!1584 = distinct !DISubprogram(name: "__make_invoker<void (&)()>", linkageName: "_ZNSt6thread14__make_invokerIRFvvEJEEENS_8_InvokerISt5tupleIJNSt5decayIT_E4typeEDpNS5_IT0_E4typeEEEEEOS6_DpOS9_", scope: !56, file: !55, line: 263, type: !1585, scopeLine: 264, flags: DIFlagPrototyped, spFlags: DISPFlagDefinition, unit: !17, templateParams: !1588, declaration: !1587, retainedNodes: !40)
!1585 = !DISubroutineType(types: !1586)
!1586 = !{!555, !1501}
!1587 = !DISubprogram(name: "__make_invoker<void (&)()>", linkageName: "_ZNSt6thread14__make_invokerIRFvvEJEEENS_8_InvokerISt5tupleIJNSt5decayIT_E4typeEDpNS5_IT0_E4typeEEEEEOS6_DpOS9_", scope: !56, file: !55, line: 263, type: !1585, scopeLine: 263, flags: DIFlagPublic | DIFlagPrototyped | DIFlagStaticMember, spFlags: 0, templateParams: !1588)
!1588 = !{!1504, !46}
!1589 = !DILocalVariable(name: "__callable", arg: 1, scope: !1584, file: !55, line: 263, type: !1501)
!1590 = !DILocation(line: 263, column: 34, scope: !1584)
!1591 = !DILocation(line: 265, column: 9, scope: !1584)
!1592 = !DILocation(line: 266, column: 30, scope: !1584)
!1593 = !DILocation(line: 266, column: 6, scope: !1584)
!1594 = !DILocation(line: 265, column: 11, scope: !1584)
!1595 = !DILocation(line: 265, column: 2, scope: !1584)
!1596 = distinct !DISubprogram(name: "~unique_ptr", linkageName: "_ZNSt10unique_ptrINSt6thread6_StateESt14default_deleteIS1_EED2Ev", scope: !109, file: !110, line: 286, type: !387, scopeLine: 287, flags: DIFlagPrototyped, spFlags: DISPFlagDefinition, unit: !17, declaration: !386, retainedNodes: !40)
!1597 = !DILocalVariable(name: "this", arg: 1, scope: !1596, type: !1598, flags: DIFlagArtificial | DIFlagObjectPointer)
!1598 = !DIDerivedType(tag: DW_TAG_pointer_type, baseType: !109, size: 64)
!1599 = !DILocation(line: 0, scope: !1596)
!1600 = !DILocalVariable(name: "__ptr", scope: !1601, file: !110, line: 290, type: !363)
!1601 = distinct !DILexicalBlock(scope: !1596, file: !110, line: 287, column: 7)
!1602 = !DILocation(line: 290, column: 8, scope: !1601)
!1603 = !DILocation(line: 290, column: 16, scope: !1601)
!1604 = !DILocation(line: 290, column: 21, scope: !1601)
!1605 = !DILocation(line: 291, column: 6, scope: !1606)
!1606 = distinct !DILexicalBlock(scope: !1601, file: !110, line: 291, column: 6)
!1607 = !DILocation(line: 291, column: 12, scope: !1606)
!1608 = !DILocation(line: 291, column: 6, scope: !1601)
!1609 = !DILocation(line: 292, column: 4, scope: !1606)
!1610 = !DILocation(line: 292, column: 28, scope: !1606)
!1611 = !DILocation(line: 292, column: 18, scope: !1606)
!1612 = !DILocation(line: 293, column: 2, scope: !1601)
!1613 = !DILocation(line: 293, column: 8, scope: !1601)
!1614 = !DILocation(line: 294, column: 7, scope: !1596)
!1615 = distinct !DISubprogram(name: "_State_impl", linkageName: "_ZNSt6thread11_State_implINS_8_InvokerISt5tupleIJPFvvEEEEEEC2EOS6_", scope: !1568, file: !55, line: 191, type: !1573, scopeLine: 192, flags: DIFlagPrototyped, spFlags: DISPFlagDefinition, unit: !17, declaration: !1572, retainedNodes: !40)
!1616 = !DILocalVariable(name: "this", arg: 1, scope: !1615, type: !1617, flags: DIFlagArtificial | DIFlagObjectPointer)
!1617 = !DIDerivedType(tag: DW_TAG_pointer_type, baseType: !1568, size: 64)
!1618 = !DILocation(line: 0, scope: !1615)
!1619 = !DILocalVariable(name: "__f", arg: 2, scope: !1615, file: !55, line: 191, type: !1560)
!1620 = !DILocation(line: 191, column: 26, scope: !1615)
!1621 = !DILocation(line: 191, column: 2, scope: !1615)
!1622 = !DILocation(line: 192, column: 2, scope: !1615)
!1623 = !DILocation(line: 191, column: 33, scope: !1615)
!1624 = !DILocation(line: 191, column: 65, scope: !1615)
!1625 = !DILocation(line: 192, column: 4, scope: !1615)
!1626 = distinct !DISubprogram(name: "unique_ptr<std::default_delete<std::thread::_State>, void>", linkageName: "_ZNSt10unique_ptrINSt6thread6_StateESt14default_deleteIS1_EEC2IS3_vEEPS1_", scope: !109, file: !110, line: 211, type: !430, scopeLine: 213, flags: DIFlagPrototyped, spFlags: DISPFlagDefinition, unit: !17, templateParams: !1628, declaration: !1627, retainedNodes: !40)
!1627 = !DISubprogram(name: "unique_ptr<std::default_delete<std::thread::_State>, void>", scope: !109, file: !110, line: 211, type: !430, scopeLine: 211, flags: DIFlagPublic | DIFlagExplicit | DIFlagPrototyped, spFlags: 0, templateParams: !1628)
!1628 = !{!1629, !1505}
!1629 = !DITemplateTypeParameter(name: "_Del", type: !129)
!1630 = !DILocalVariable(name: "this", arg: 1, scope: !1626, type: !1598, flags: DIFlagArtificial | DIFlagObjectPointer)
!1631 = !DILocation(line: 0, scope: !1626)
!1632 = !DILocalVariable(name: "__p", arg: 2, scope: !1626, file: !110, line: 211, type: !411)
!1633 = !DILocation(line: 211, column: 21, scope: !1626)
!1634 = !DILocation(line: 212, column: 4, scope: !1626)
!1635 = !DILocation(line: 212, column: 9, scope: !1626)
!1636 = !DILocation(line: 213, column: 11, scope: !1626)
!1637 = distinct !DISubprogram(name: "_State", linkageName: "_ZNSt6thread6_StateC2Ev", scope: !141, file: !55, line: 67, type: !1638, scopeLine: 67, flags: DIFlagArtificial | DIFlagPrototyped, spFlags: DISPFlagDefinition, unit: !17, declaration: !1641, retainedNodes: !40)
!1638 = !DISubroutineType(types: !1639)
!1639 = !{null, !1640}
!1640 = !DIDerivedType(tag: DW_TAG_pointer_type, baseType: !141, size: 64, flags: DIFlagArtificial | DIFlagObjectPointer)
!1641 = !DISubprogram(name: "_State", scope: !141, type: !1638, flags: DIFlagArtificial | DIFlagPrototyped, spFlags: 0)
!1642 = !DILocalVariable(name: "this", arg: 1, scope: !1637, type: !140, flags: DIFlagArtificial | DIFlagObjectPointer)
!1643 = !DILocation(line: 0, scope: !1637)
!1644 = !DILocation(line: 67, column: 12, scope: !1637)
!1645 = distinct !DISubprogram(name: "_Invoker", linkageName: "_ZNSt6thread8_InvokerISt5tupleIJPFvvEEEEC2EOS5_", scope: !555, file: !55, line: 230, type: !1646, scopeLine: 230, flags: DIFlagArtificial | DIFlagPrototyped, spFlags: DISPFlagDefinition, unit: !17, declaration: !1648, retainedNodes: !40)
!1646 = !DISubroutineType(types: !1647)
!1647 = !{null, !561, !1560}
!1648 = !DISubprogram(name: "_Invoker", scope: !555, type: !1646, flags: DIFlagArtificial | DIFlagPrototyped, spFlags: 0)
!1649 = !DILocalVariable(name: "this", arg: 1, scope: !1645, type: !1650, flags: DIFlagArtificial | DIFlagObjectPointer)
!1650 = !DIDerivedType(tag: DW_TAG_pointer_type, baseType: !555, size: 64)
!1651 = !DILocation(line: 0, scope: !1645)
!1652 = !DILocalVariable(arg: 2, scope: !1645, type: !1560)
!1653 = !DILocation(line: 230, column: 14, scope: !1645)
!1654 = distinct !DISubprogram(name: "~_State_impl", linkageName: "_ZNSt6thread11_State_implINS_8_InvokerISt5tupleIJPFvvEEEEEED2Ev", scope: !1568, file: !55, line: 187, type: !1577, scopeLine: 187, flags: DIFlagArtificial | DIFlagPrototyped, spFlags: DISPFlagDefinition, unit: !17, declaration: !1655, retainedNodes: !40)
!1655 = !DISubprogram(name: "~_State_impl", scope: !1568, type: !1577, containingType: !1568, virtualIndex: 0, flags: DIFlagArtificial | DIFlagPrototyped, spFlags: DISPFlagVirtual)
!1656 = !DILocalVariable(name: "this", arg: 1, scope: !1654, type: !1617, flags: DIFlagArtificial | DIFlagObjectPointer)
!1657 = !DILocation(line: 0, scope: !1654)
!1658 = !DILocation(line: 187, column: 14, scope: !1659)
!1659 = distinct !DILexicalBlock(scope: !1654, file: !55, line: 187, column: 14)
!1660 = !DILocation(line: 187, column: 14, scope: !1654)
!1661 = distinct !DISubprogram(name: "~_State_impl", linkageName: "_ZNSt6thread11_State_implINS_8_InvokerISt5tupleIJPFvvEEEEEED0Ev", scope: !1568, file: !55, line: 187, type: !1577, scopeLine: 187, flags: DIFlagArtificial | DIFlagPrototyped, spFlags: DISPFlagDefinition, unit: !17, declaration: !1655, retainedNodes: !40)
!1662 = !DILocalVariable(name: "this", arg: 1, scope: !1661, type: !1617, flags: DIFlagArtificial | DIFlagObjectPointer)
!1663 = !DILocation(line: 0, scope: !1661)
!1664 = !DILocation(line: 187, column: 14, scope: !1661)
!1665 = distinct !DISubprogram(name: "_M_run", linkageName: "_ZNSt6thread11_State_implINS_8_InvokerISt5tupleIJPFvvEEEEEE6_M_runEv", scope: !1568, file: !55, line: 195, type: !1577, scopeLine: 195, flags: DIFlagPrototyped, spFlags: DISPFlagDefinition, unit: !17, declaration: !1576, retainedNodes: !40)
!1666 = !DILocalVariable(name: "this", arg: 1, scope: !1665, type: !1617, flags: DIFlagArtificial | DIFlagObjectPointer)
!1667 = !DILocation(line: 0, scope: !1665)
!1668 = !DILocation(line: 195, column: 13, scope: !1665)
!1669 = !DILocation(line: 195, column: 24, scope: !1665)
!1670 = distinct !DISubprogram(name: "tuple", linkageName: "_ZNSt5tupleIJPFvvEEEC2EOS2_", scope: !523, file: !117, line: 642, type: !533, scopeLine: 642, flags: DIFlagPrototyped, spFlags: DISPFlagDefinition, unit: !17, declaration: !532, retainedNodes: !40)
!1671 = !DILocalVariable(name: "this", arg: 1, scope: !1670, type: !1672, flags: DIFlagArtificial | DIFlagObjectPointer)
!1672 = !DIDerivedType(tag: DW_TAG_pointer_type, baseType: !523, size: 64)
!1673 = !DILocation(line: 0, scope: !1670)
!1674 = !DILocalVariable(arg: 2, scope: !1670, file: !117, line: 642, type: !535)
!1675 = !DILocation(line: 642, column: 30, scope: !1670)
!1676 = !DILocation(line: 642, column: 17, scope: !1670)
!1677 = !DILocation(line: 642, column: 40, scope: !1670)
!1678 = distinct !DISubprogram(name: "_Tuple_impl", linkageName: "_ZNSt11_Tuple_implILm0EJPFvvEEEC2EOS2_", scope: !487, file: !117, line: 358, type: !513, scopeLine: 360, flags: DIFlagPrototyped, spFlags: DISPFlagDefinition, unit: !17, declaration: !512, retainedNodes: !40)
!1679 = !DILocalVariable(name: "this", arg: 1, scope: !1678, type: !1680, flags: DIFlagArtificial | DIFlagObjectPointer)
!1680 = !DIDerivedType(tag: DW_TAG_pointer_type, baseType: !487, size: 64)
!1681 = !DILocation(line: 0, scope: !1678)
!1682 = !DILocalVariable(name: "__in", arg: 2, scope: !1678, file: !117, line: 358, type: !515)
!1683 = !DILocation(line: 358, column: 33, scope: !1678)
!1684 = !DILocation(line: 360, column: 43, scope: !1678)
!1685 = !DILocation(line: 360, column: 35, scope: !1678)
!1686 = !DILocation(line: 360, column: 9, scope: !1678)
!1687 = !DILocation(line: 360, column: 53, scope: !1678)
!1688 = distinct !DISubprogram(name: "_M_head", linkageName: "_ZNSt11_Tuple_implILm0EJPFvvEEE7_M_headERS2_", scope: !487, file: !117, line: 334, type: !491, scopeLine: 334, flags: DIFlagPrototyped, spFlags: DISPFlagDefinition, unit: !17, declaration: !490, retainedNodes: !40)
!1689 = !DILocalVariable(name: "__t", arg: 1, scope: !1688, file: !117, line: 334, type: !493)
!1690 = !DILocation(line: 334, column: 28, scope: !1688)
!1691 = !DILocation(line: 334, column: 66, scope: !1688)
!1692 = !DILocation(line: 334, column: 51, scope: !1688)
!1693 = !DILocation(line: 334, column: 44, scope: !1688)
!1694 = distinct !DISubprogram(name: "_Head_base<void (*)()>", linkageName: "_ZNSt10_Head_baseILm0EPFvvELb0EEC2IS1_EEOT_", scope: !453, file: !117, line: 132, type: !1695, scopeLine: 133, flags: DIFlagPrototyped, spFlags: DISPFlagDefinition, unit: !17, templateParams: !1698, declaration: !1697, retainedNodes: !40)
!1695 = !DISubroutineType(types: !1696)
!1696 = !{null, !459, !43}
!1697 = !DISubprogram(name: "_Head_base<void (*)()>", scope: !453, file: !117, line: 132, type: !1695, scopeLine: 132, flags: DIFlagPrototyped, spFlags: 0, templateParams: !1698)
!1698 = !{!1699}
!1699 = !DITemplateTypeParameter(name: "_UHead", type: !29)
!1700 = !DILocalVariable(name: "this", arg: 1, scope: !1694, type: !1701, flags: DIFlagArtificial | DIFlagObjectPointer)
!1701 = !DIDerivedType(tag: DW_TAG_pointer_type, baseType: !453, size: 64)
!1702 = !DILocation(line: 0, scope: !1694)
!1703 = !DILocalVariable(name: "__h", arg: 2, scope: !1694, file: !117, line: 132, type: !43)
!1704 = !DILocation(line: 132, column: 39, scope: !1694)
!1705 = !DILocation(line: 133, column: 4, scope: !1694)
!1706 = !DILocation(line: 133, column: 38, scope: !1694)
!1707 = !DILocation(line: 133, column: 17, scope: !1694)
!1708 = !DILocation(line: 133, column: 46, scope: !1694)
!1709 = distinct !DISubprogram(name: "_M_head", linkageName: "_ZNSt10_Head_baseILm0EPFvvELb0EE7_M_headERS2_", scope: !453, file: !117, line: 160, type: !478, scopeLine: 160, flags: DIFlagPrototyped, spFlags: DISPFlagDefinition, unit: !17, declaration: !477, retainedNodes: !40)
!1710 = !DILocalVariable(name: "__b", arg: 1, scope: !1709, file: !117, line: 160, type: !481)
!1711 = !DILocation(line: 160, column: 27, scope: !1709)
!1712 = !DILocation(line: 160, column: 50, scope: !1709)
!1713 = !DILocation(line: 160, column: 54, scope: !1709)
!1714 = !DILocation(line: 160, column: 43, scope: !1709)
!1715 = distinct !DISubprogram(name: "operator()", linkageName: "_ZNSt6thread8_InvokerISt5tupleIJPFvvEEEEclEv", scope: !555, file: !55, line: 247, type: !559, scopeLine: 248, flags: DIFlagPrototyped, spFlags: DISPFlagDefinition, unit: !17, declaration: !558, retainedNodes: !40)
!1716 = !DILocalVariable(name: "this", arg: 1, scope: !1715, type: !1650, flags: DIFlagArtificial | DIFlagObjectPointer)
!1717 = !DILocation(line: 0, scope: !1715)
!1718 = !DILocation(line: 251, column: 11, scope: !1715)
!1719 = !DILocation(line: 251, column: 4, scope: !1715)
!1720 = distinct !DISubprogram(name: "_M_invoke<0UL>", linkageName: "_ZNSt6thread8_InvokerISt5tupleIJPFvvEEEE9_M_invokeIJLm0EEEEvSt12_Index_tupleIJXspT_EEE", scope: !555, file: !55, line: 243, type: !1721, scopeLine: 244, flags: DIFlagPrototyped, spFlags: DISPFlagDefinition, unit: !17, templateParams: !1730, declaration: !1729, retainedNodes: !40)
!1721 = !DISubroutineType(types: !1722)
!1722 = !{!37, !561, !1723}
!1723 = distinct !DICompositeType(tag: DW_TAG_structure_type, name: "_Index_tuple<0UL>", scope: !2, file: !1724, line: 292, size: 8, flags: DIFlagTypePassByValue, elements: !40, templateParams: !1725, identifier: "_ZTSSt12_Index_tupleIJLm0EEE")
!1724 = !DIFile(filename: "/usr/lib/gcc/x86_64-linux-gnu/9/../../../../include/c++/9/utility", directory: "")
!1725 = !{!1726}
!1726 = !DITemplateValueParameter(tag: DW_TAG_GNU_template_parameter_pack, name: "_Indexes", value: !1727)
!1727 = !{!1728}
!1728 = !DITemplateValueParameter(type: !101, value: i64 0)
!1729 = !DISubprogram(name: "_M_invoke<0UL>", linkageName: "_ZNSt6thread8_InvokerISt5tupleIJPFvvEEEE9_M_invokeIJLm0EEEEvSt12_Index_tupleIJXspT_EEE", scope: !555, file: !55, line: 243, type: !1721, scopeLine: 243, flags: DIFlagPrototyped, spFlags: 0, templateParams: !1730)
!1730 = !{!1731}
!1731 = !DITemplateValueParameter(tag: DW_TAG_GNU_template_parameter_pack, name: "_Ind", value: !1727)
!1732 = !DILocalVariable(name: "this", arg: 1, scope: !1720, type: !1650, flags: DIFlagArtificial | DIFlagObjectPointer)
!1733 = !DILocation(line: 0, scope: !1720)
!1734 = !DILocalVariable(arg: 2, scope: !1720, file: !55, line: 243, type: !1723)
!1735 = !DILocation(line: 243, column: 35, scope: !1720)
!1736 = !DILocation(line: 244, column: 52, scope: !1720)
!1737 = !DILocation(line: 244, column: 27, scope: !1720)
!1738 = !DILocation(line: 244, column: 13, scope: !1720)
!1739 = !DILocation(line: 244, column: 6, scope: !1720)
!1740 = !DILocalVariable(name: "__fn", arg: 1, scope: !34, file: !33, line: 89, type: !43)
!1741 = !DILocation(line: 89, column: 26, scope: !34)
!1742 = !DILocation(line: 95, column: 74, scope: !34)
!1743 = !DILocation(line: 95, column: 14, scope: !34)
!1744 = !DILocation(line: 95, column: 7, scope: !34)
!1745 = distinct !DISubprogram(name: "get<0UL, void (*)()>", linkageName: "_ZSt3getILm0EJPFvvEEEONSt13tuple_elementIXT_ESt5tupleIJDpT0_EEE4typeEOS6_", scope: !2, file: !117, line: 1332, type: !1746, scopeLine: 1333, flags: DIFlagPrototyped, spFlags: DISPFlagDefinition, unit: !17, templateParams: !1755, retainedNodes: !40)
!1746 = !DISubroutineType(types: !1747)
!1747 = !{!1748, !535}
!1748 = !DIDerivedType(tag: DW_TAG_rvalue_reference_type, baseType: !1749, size: 64)
!1749 = !DIDerivedType(tag: DW_TAG_typedef, name: "__tuple_element_t<0UL, tuple<void (*)()> >", scope: !2, file: !1724, line: 114, baseType: !1750)
!1750 = !DIDerivedType(tag: DW_TAG_typedef, name: "type", scope: !1751, file: !117, line: 1294, baseType: !29)
!1751 = distinct !DICompositeType(tag: DW_TAG_structure_type, name: "tuple_element<0UL, std::tuple<void (*)()> >", scope: !2, file: !117, line: 1292, size: 8, flags: DIFlagTypePassByValue, elements: !40, templateParams: !1752, identifier: "_ZTSSt13tuple_elementILm0ESt5tupleIJPFvvEEEE")
!1752 = !{!1753, !1754}
!1753 = !DITemplateValueParameter(name: "_Int", type: !101, value: i64 0)
!1754 = !DITemplateTypeParameter(name: "_Tp", type: !523)
!1755 = !{!1756, !520}
!1756 = !DITemplateValueParameter(name: "__i", type: !101, value: i64 0)
!1757 = !DILocalVariable(name: "__t", arg: 1, scope: !1745, file: !117, line: 1332, type: !535)
!1758 = !DILocation(line: 1332, column: 31, scope: !1745)
!1759 = !DILocation(line: 1335, column: 59, scope: !1745)
!1760 = !DILocation(line: 1335, column: 45, scope: !1745)
!1761 = !DILocation(line: 1335, column: 7, scope: !1745)
!1762 = distinct !DISubprogram(name: "__invoke_impl<void, void (*)()>", linkageName: "_ZSt13__invoke_implIvPFvvEJEET_St14__invoke_otherOT0_DpOT1_", scope: !2, file: !33, line: 59, type: !1763, scopeLine: 60, flags: DIFlagPrototyped, spFlags: DISPFlagDefinition, unit: !17, templateParams: !1765, retainedNodes: !40)
!1763 = !DISubroutineType(types: !1764)
!1764 = !{null, !53, !43}
!1765 = !{!1766, !1767, !46}
!1766 = !DITemplateTypeParameter(name: "_Res", type: null)
!1767 = !DITemplateTypeParameter(name: "_Fn", type: !29)
!1768 = !DILocalVariable(arg: 1, scope: !1762, file: !33, line: 59, type: !53)
!1769 = !DILocation(line: 59, column: 33, scope: !1762)
!1770 = !DILocalVariable(name: "__f", arg: 2, scope: !1762, file: !33, line: 59, type: !43)
!1771 = !DILocation(line: 59, column: 41, scope: !1762)
!1772 = !DILocation(line: 60, column: 32, scope: !1762)
!1773 = !DILocation(line: 60, column: 14, scope: !1762)
!1774 = !DILocation(line: 60, column: 7, scope: !1762)
!1775 = distinct !DISubprogram(name: "get<0UL, void (*)()>", linkageName: "_ZSt3getILm0EJPFvvEEERNSt13tuple_elementIXT_ESt5tupleIJDpT0_EEE4typeERS6_", scope: !2, file: !117, line: 1320, type: !1776, scopeLine: 1321, flags: DIFlagPrototyped, spFlags: DISPFlagDefinition, unit: !17, templateParams: !1755, retainedNodes: !40)
!1776 = !DISubroutineType(types: !1777)
!1777 = !{!1778, !539}
!1778 = !DIDerivedType(tag: DW_TAG_reference_type, baseType: !1749, size: 64)
!1779 = !DILocalVariable(name: "__t", arg: 1, scope: !1775, file: !117, line: 1320, type: !539)
!1780 = !DILocation(line: 1320, column: 30, scope: !1775)
!1781 = !DILocation(line: 1321, column: 37, scope: !1775)
!1782 = !DILocation(line: 1321, column: 14, scope: !1775)
!1783 = !DILocation(line: 1321, column: 7, scope: !1775)
!1784 = distinct !DISubprogram(name: "__get_helper<0UL, void (*)()>", linkageName: "_ZSt12__get_helperILm0EPFvvEJEERT0_RSt11_Tuple_implIXT_EJS2_DpT1_EE", scope: !2, file: !117, line: 1309, type: !491, scopeLine: 1310, flags: DIFlagPrototyped, spFlags: DISPFlagDefinition, unit: !17, templateParams: !1785, retainedNodes: !40)
!1785 = !{!1756, !486, !1786}
!1786 = !DITemplateValueParameter(tag: DW_TAG_GNU_template_parameter_pack, name: "_Tail", value: !40)
!1787 = !DILocalVariable(name: "__t", arg: 1, scope: !1784, file: !117, line: 1309, type: !493)
!1788 = !DILocation(line: 1309, column: 53, scope: !1784)
!1789 = !DILocation(line: 1310, column: 57, scope: !1784)
!1790 = !DILocation(line: 1310, column: 14, scope: !1784)
!1791 = !DILocation(line: 1310, column: 7, scope: !1784)
!1792 = distinct !DISubprogram(name: "__uniq_ptr_impl", linkageName: "_ZNSt15__uniq_ptr_implINSt6thread6_StateESt14default_deleteIS1_EEC2EPS1_", scope: !113, file: !110, line: 147, type: !351, scopeLine: 147, flags: DIFlagPrototyped, spFlags: DISPFlagDefinition, unit: !17, declaration: !350, retainedNodes: !40)
!1793 = !DILocalVariable(name: "this", arg: 1, scope: !1792, type: !1794, flags: DIFlagArtificial | DIFlagObjectPointer)
!1794 = !DIDerivedType(tag: DW_TAG_pointer_type, baseType: !113, size: 64)
!1795 = !DILocation(line: 0, scope: !1792)
!1796 = !DILocalVariable(name: "__p", arg: 2, scope: !1792, file: !110, line: 147, type: !353)
!1797 = !DILocation(line: 147, column: 31, scope: !1792)
!1798 = !DILocation(line: 147, column: 38, scope: !1792)
!1799 = !DILocation(line: 147, column: 58, scope: !1800)
!1800 = distinct !DILexicalBlock(scope: !1792, file: !110, line: 147, column: 45)
!1801 = !DILocation(line: 147, column: 47, scope: !1800)
!1802 = !DILocation(line: 147, column: 56, scope: !1800)
!1803 = !DILocation(line: 147, column: 63, scope: !1792)
!1804 = distinct !DISubprogram(name: "tuple<std::thread::_State *, std::default_delete<std::thread::_State>, true>", linkageName: "_ZNSt5tupleIJPNSt6thread6_StateESt14default_deleteIS1_EEEC2IS2_S4_Lb1EEEv", scope: !116, file: !117, line: 918, type: !1805, scopeLine: 919, flags: DIFlagPrototyped, spFlags: DISPFlagDefinition, unit: !17, templateParams: !1808, declaration: !1807, retainedNodes: !40)
!1805 = !DISubroutineType(types: !1806)
!1806 = !{null, !312}
!1807 = !DISubprogram(name: "tuple<std::thread::_State *, std::default_delete<std::thread::_State>, true>", scope: !116, file: !117, line: 918, type: !1805, scopeLine: 918, flags: DIFlagPublic | DIFlagPrototyped, spFlags: 0, templateParams: !1808)
!1808 = !{!1809, !1810, !1811}
!1809 = !DITemplateTypeParameter(name: "_U1", type: !140)
!1810 = !DITemplateTypeParameter(name: "_U2", type: !129)
!1811 = !DITemplateValueParameter(type: !86, value: i1 true)
!1812 = !DILocalVariable(name: "this", arg: 1, scope: !1804, type: !1813, flags: DIFlagArtificial | DIFlagObjectPointer)
!1813 = !DIDerivedType(tag: DW_TAG_pointer_type, baseType: !116, size: 64)
!1814 = !DILocation(line: 0, scope: !1804)
!1815 = !DILocation(line: 919, column: 4, scope: !1804)
!1816 = !DILocation(line: 919, column: 19, scope: !1804)
!1817 = distinct !DISubprogram(name: "_M_ptr", linkageName: "_ZNSt15__uniq_ptr_implINSt6thread6_StateESt14default_deleteIS1_EE6_M_ptrEv", scope: !113, file: !110, line: 153, type: !361, scopeLine: 153, flags: DIFlagPrototyped, spFlags: DISPFlagDefinition, unit: !17, declaration: !360, retainedNodes: !40)
!1818 = !DILocalVariable(name: "this", arg: 1, scope: !1817, type: !1794, flags: DIFlagArtificial | DIFlagObjectPointer)
!1819 = !DILocation(line: 0, scope: !1817)
!1820 = !DILocation(line: 153, column: 48, scope: !1817)
!1821 = !DILocation(line: 153, column: 36, scope: !1817)
!1822 = !DILocation(line: 153, column: 29, scope: !1817)
!1823 = distinct !DISubprogram(name: "_Tuple_impl", linkageName: "_ZNSt11_Tuple_implILm0EJPNSt6thread6_StateESt14default_deleteIS1_EEEC2Ev", scope: !120, file: !117, line: 206, type: !286, scopeLine: 207, flags: DIFlagPrototyped, spFlags: DISPFlagDefinition, unit: !17, declaration: !285, retainedNodes: !40)
!1824 = !DILocalVariable(name: "this", arg: 1, scope: !1823, type: !1825, flags: DIFlagArtificial | DIFlagObjectPointer)
!1825 = !DIDerivedType(tag: DW_TAG_pointer_type, baseType: !120, size: 64)
!1826 = !DILocation(line: 0, scope: !1823)
!1827 = !DILocation(line: 207, column: 9, scope: !1823)
!1828 = !DILocation(line: 207, column: 23, scope: !1823)
!1829 = !DILocation(line: 207, column: 33, scope: !1823)
!1830 = distinct !DISubprogram(name: "_Tuple_impl", linkageName: "_ZNSt11_Tuple_implILm1EJSt14default_deleteINSt6thread6_StateEEEEC2Ev", scope: !123, file: !117, line: 339, type: !206, scopeLine: 340, flags: DIFlagPrototyped, spFlags: DISPFlagDefinition, unit: !17, declaration: !205, retainedNodes: !40)
!1831 = !DILocalVariable(name: "this", arg: 1, scope: !1830, type: !1832, flags: DIFlagArtificial | DIFlagObjectPointer)
!1832 = !DIDerivedType(tag: DW_TAG_pointer_type, baseType: !123, size: 64)
!1833 = !DILocation(line: 0, scope: !1830)
!1834 = !DILocation(line: 340, column: 9, scope: !1830)
!1835 = !DILocation(line: 340, column: 19, scope: !1830)
!1836 = distinct !DISubprogram(name: "_Head_base", linkageName: "_ZNSt10_Head_baseILm0EPNSt6thread6_StateELb0EEC2Ev", scope: !230, file: !117, line: 122, type: !234, scopeLine: 123, flags: DIFlagPrototyped, spFlags: DISPFlagDefinition, unit: !17, declaration: !233, retainedNodes: !40)
!1837 = !DILocalVariable(name: "this", arg: 1, scope: !1836, type: !1838, flags: DIFlagArtificial | DIFlagObjectPointer)
!1838 = !DIDerivedType(tag: DW_TAG_pointer_type, baseType: !230, size: 64)
!1839 = !DILocation(line: 0, scope: !1836)
!1840 = !DILocation(line: 123, column: 9, scope: !1836)
!1841 = !DILocation(line: 123, column: 26, scope: !1836)
!1842 = distinct !DISubprogram(name: "_Head_base", linkageName: "_ZNSt10_Head_baseILm1ESt14default_deleteINSt6thread6_StateEELb1EEC2Ev", scope: !126, file: !117, line: 76, type: !145, scopeLine: 77, flags: DIFlagPrototyped, spFlags: DISPFlagDefinition, unit: !17, declaration: !144, retainedNodes: !40)
!1843 = !DILocalVariable(name: "this", arg: 1, scope: !1842, type: !1844, flags: DIFlagArtificial | DIFlagObjectPointer)
!1844 = !DIDerivedType(tag: DW_TAG_pointer_type, baseType: !126, size: 64)
!1845 = !DILocation(line: 0, scope: !1842)
!1846 = !DILocation(line: 77, column: 19, scope: !1842)
!1847 = distinct !DISubprogram(name: "get<0UL, std::thread::_State *, std::default_delete<std::thread::_State> >", linkageName: "_ZSt3getILm0EJPNSt6thread6_StateESt14default_deleteIS1_EEERNSt13tuple_elementIXT_ESt5tupleIJDpT0_EEE4typeERS9_", scope: !2, file: !117, line: 1320, type: !1848, scopeLine: 1321, flags: DIFlagPrototyped, spFlags: DISPFlagDefinition, unit: !17, templateParams: !1856, retainedNodes: !40)
!1848 = !DISubroutineType(types: !1849)
!1849 = !{!1850, !322}
!1850 = !DIDerivedType(tag: DW_TAG_reference_type, baseType: !1851, size: 64)
!1851 = !DIDerivedType(tag: DW_TAG_typedef, name: "__tuple_element_t<0UL, tuple<_State *, default_delete<_State> > >", scope: !2, file: !1724, line: 114, baseType: !1852)
!1852 = !DIDerivedType(tag: DW_TAG_typedef, name: "type", scope: !1853, file: !117, line: 1294, baseType: !140)
!1853 = distinct !DICompositeType(tag: DW_TAG_structure_type, name: "tuple_element<0UL, std::tuple<std::thread::_State *, std::default_delete<std::thread::_State> > >", scope: !2, file: !117, line: 1292, size: 8, flags: DIFlagTypePassByValue, elements: !40, templateParams: !1854, identifier: "_ZTSSt13tuple_elementILm0ESt5tupleIJPNSt6thread6_StateESt14default_deleteIS2_EEEE")
!1854 = !{!1753, !1855}
!1855 = !DITemplateTypeParameter(name: "_Tp", type: !116)
!1856 = !{!1756, !306}
!1857 = !DILocalVariable(name: "__t", arg: 1, scope: !1847, file: !117, line: 1320, type: !322)
!1858 = !DILocation(line: 1320, column: 30, scope: !1847)
!1859 = !DILocation(line: 1321, column: 37, scope: !1847)
!1860 = !DILocation(line: 1321, column: 14, scope: !1847)
!1861 = !DILocation(line: 1321, column: 7, scope: !1847)
!1862 = distinct !DISubprogram(name: "__get_helper<0UL, std::thread::_State *, std::default_delete<std::thread::_State> >", linkageName: "_ZSt12__get_helperILm0EPNSt6thread6_StateEJSt14default_deleteIS1_EEERT0_RSt11_Tuple_implIXT_EJS5_DpT1_EE", scope: !2, file: !117, line: 1309, type: !267, scopeLine: 1310, flags: DIFlagPrototyped, spFlags: DISPFlagDefinition, unit: !17, templateParams: !1863, retainedNodes: !40)
!1863 = !{!1756, !264, !1864}
!1864 = !DITemplateValueParameter(tag: DW_TAG_GNU_template_parameter_pack, name: "_Tail", value: !227)
!1865 = !DILocalVariable(name: "__t", arg: 1, scope: !1862, file: !117, line: 1309, type: !269)
!1866 = !DILocation(line: 1309, column: 53, scope: !1862)
!1867 = !DILocation(line: 1310, column: 57, scope: !1862)
!1868 = !DILocation(line: 1310, column: 14, scope: !1862)
!1869 = !DILocation(line: 1310, column: 7, scope: !1862)
!1870 = distinct !DISubprogram(name: "_M_head", linkageName: "_ZNSt11_Tuple_implILm0EJPNSt6thread6_StateESt14default_deleteIS1_EEE7_M_headERS5_", scope: !120, file: !117, line: 195, type: !267, scopeLine: 195, flags: DIFlagPrototyped, spFlags: DISPFlagDefinition, unit: !17, declaration: !266, retainedNodes: !40)
!1871 = !DILocalVariable(name: "__t", arg: 1, scope: !1870, file: !117, line: 195, type: !269)
!1872 = !DILocation(line: 195, column: 28, scope: !1870)
!1873 = !DILocation(line: 195, column: 66, scope: !1870)
!1874 = !DILocation(line: 195, column: 51, scope: !1870)
!1875 = !DILocation(line: 195, column: 44, scope: !1870)
!1876 = distinct !DISubprogram(name: "_M_head", linkageName: "_ZNSt10_Head_baseILm0EPNSt6thread6_StateELb0EE7_M_headERS3_", scope: !230, file: !117, line: 160, type: !255, scopeLine: 160, flags: DIFlagPrototyped, spFlags: DISPFlagDefinition, unit: !17, declaration: !254, retainedNodes: !40)
!1877 = !DILocalVariable(name: "__b", arg: 1, scope: !1876, file: !117, line: 160, type: !258)
!1878 = !DILocation(line: 160, column: 27, scope: !1876)
!1879 = !DILocation(line: 160, column: 50, scope: !1876)
!1880 = !DILocation(line: 160, column: 54, scope: !1876)
!1881 = !DILocation(line: 160, column: 43, scope: !1876)
!1882 = distinct !DISubprogram(name: "tuple<void, true>", linkageName: "_ZNSt5tupleIJPFvvEEEC2IvLb1EEERKS1_", scope: !523, file: !117, line: 588, type: !1883, scopeLine: 589, flags: DIFlagPrototyped, spFlags: DISPFlagDefinition, unit: !17, templateParams: !1886, declaration: !1885, retainedNodes: !40)
!1883 = !DISubroutineType(types: !1884)
!1884 = !{null, !529, !463}
!1885 = !DISubprogram(name: "tuple<void, true>", scope: !523, file: !117, line: 588, type: !1883, scopeLine: 588, flags: DIFlagPublic | DIFlagPrototyped, spFlags: 0, templateParams: !1886)
!1886 = !{!1887, !1811}
!1887 = !DITemplateTypeParameter(name: "_Dummy", type: null)
!1888 = !DILocalVariable(name: "this", arg: 1, scope: !1882, type: !1672, flags: DIFlagArtificial | DIFlagObjectPointer)
!1889 = !DILocation(line: 0, scope: !1882)
!1890 = !DILocalVariable(name: "__elements", arg: 2, scope: !1882, file: !117, line: 588, type: !463)
!1891 = !DILocation(line: 588, column: 45, scope: !1882)
!1892 = !DILocation(line: 589, column: 20, scope: !1882)
!1893 = !DILocation(line: 589, column: 9, scope: !1882)
!1894 = !DILocation(line: 589, column: 37, scope: !1882)
!1895 = distinct !DISubprogram(name: "_Tuple_impl", linkageName: "_ZNSt11_Tuple_implILm0EJPFvvEEEC2ERKS1_", scope: !487, file: !117, line: 343, type: !504, scopeLine: 344, flags: DIFlagPrototyped, spFlags: DISPFlagDefinition, unit: !17, declaration: !503, retainedNodes: !40)
!1896 = !DILocalVariable(name: "this", arg: 1, scope: !1895, type: !1680, flags: DIFlagArtificial | DIFlagObjectPointer)
!1897 = !DILocation(line: 0, scope: !1895)
!1898 = !DILocalVariable(name: "__head", arg: 2, scope: !1895, file: !117, line: 343, type: !463)
!1899 = !DILocation(line: 343, column: 42, scope: !1895)
!1900 = !DILocation(line: 344, column: 15, scope: !1895)
!1901 = !DILocation(line: 344, column: 9, scope: !1895)
!1902 = !DILocation(line: 344, column: 25, scope: !1895)
!1903 = distinct !DISubprogram(name: "_Head_base", linkageName: "_ZNSt10_Head_baseILm0EPFvvELb0EEC2ERKS1_", scope: !453, file: !117, line: 125, type: !461, scopeLine: 126, flags: DIFlagPrototyped, spFlags: DISPFlagDefinition, unit: !17, declaration: !460, retainedNodes: !40)
!1904 = !DILocalVariable(name: "this", arg: 1, scope: !1903, type: !1701, flags: DIFlagArtificial | DIFlagObjectPointer)
!1905 = !DILocation(line: 0, scope: !1903)
!1906 = !DILocalVariable(name: "__h", arg: 2, scope: !1903, file: !117, line: 125, type: !463)
!1907 = !DILocation(line: 125, column: 41, scope: !1903)
!1908 = !DILocation(line: 126, column: 9, scope: !1903)
!1909 = !DILocation(line: 126, column: 22, scope: !1903)
!1910 = !DILocation(line: 126, column: 29, scope: !1903)
!1911 = distinct !DISubprogram(name: "get_deleter", linkageName: "_ZNSt10unique_ptrINSt6thread6_StateESt14default_deleteIS1_EE11get_deleterEv", scope: !109, file: !110, line: 365, type: !414, scopeLine: 366, flags: DIFlagPrototyped, spFlags: DISPFlagDefinition, unit: !17, declaration: !413, retainedNodes: !40)
!1912 = !DILocalVariable(name: "this", arg: 1, scope: !1911, type: !1598, flags: DIFlagArtificial | DIFlagObjectPointer)
!1913 = !DILocation(line: 0, scope: !1911)
!1914 = !DILocation(line: 366, column: 16, scope: !1911)
!1915 = !DILocation(line: 366, column: 21, scope: !1911)
!1916 = !DILocation(line: 366, column: 9, scope: !1911)
!1917 = distinct !DISubprogram(name: "operator()", linkageName: "_ZNKSt14default_deleteINSt6thread6_StateEEclEPS1_", scope: !129, file: !110, line: 75, type: !136, scopeLine: 76, flags: DIFlagPrototyped, spFlags: DISPFlagDefinition, unit: !17, declaration: !135, retainedNodes: !40)
!1918 = !DILocalVariable(name: "this", arg: 1, scope: !1917, type: !1919, flags: DIFlagArtificial | DIFlagObjectPointer)
!1919 = !DIDerivedType(tag: DW_TAG_pointer_type, baseType: !139, size: 64)
!1920 = !DILocation(line: 0, scope: !1917)
!1921 = !DILocalVariable(name: "__ptr", arg: 2, scope: !1917, file: !110, line: 75, type: !140)
!1922 = !DILocation(line: 75, column: 23, scope: !1917)
!1923 = !DILocation(line: 81, column: 9, scope: !1917)
!1924 = !DILocation(line: 81, column: 2, scope: !1917)
!1925 = !DILocation(line: 82, column: 7, scope: !1917)
!1926 = distinct !DISubprogram(name: "_M_deleter", linkageName: "_ZNSt15__uniq_ptr_implINSt6thread6_StateESt14default_deleteIS1_EE10_M_deleterEv", scope: !113, file: !110, line: 155, type: !370, scopeLine: 155, flags: DIFlagPrototyped, spFlags: DISPFlagDefinition, unit: !17, declaration: !369, retainedNodes: !40)
!1927 = !DILocalVariable(name: "this", arg: 1, scope: !1926, type: !1794, flags: DIFlagArtificial | DIFlagObjectPointer)
!1928 = !DILocation(line: 0, scope: !1926)
!1929 = !DILocation(line: 155, column: 52, scope: !1926)
!1930 = !DILocation(line: 155, column: 40, scope: !1926)
!1931 = !DILocation(line: 155, column: 33, scope: !1926)
!1932 = distinct !DISubprogram(name: "get<1UL, std::thread::_State *, std::default_delete<std::thread::_State> >", linkageName: "_ZSt3getILm1EJPNSt6thread6_StateESt14default_deleteIS1_EEERNSt13tuple_elementIXT_ESt5tupleIJDpT0_EEE4typeERS9_", scope: !2, file: !117, line: 1320, type: !1933, scopeLine: 1321, flags: DIFlagPrototyped, spFlags: DISPFlagDefinition, unit: !17, templateParams: !1942, retainedNodes: !40)
!1933 = !DISubroutineType(types: !1934)
!1934 = !{!1935, !322}
!1935 = !DIDerivedType(tag: DW_TAG_reference_type, baseType: !1936, size: 64)
!1936 = !DIDerivedType(tag: DW_TAG_typedef, name: "__tuple_element_t<1UL, tuple<_State *, default_delete<_State> > >", scope: !2, file: !1724, line: 114, baseType: !1937)
!1937 = !DIDerivedType(tag: DW_TAG_typedef, name: "type", scope: !1938, file: !117, line: 1294, baseType: !129)
!1938 = distinct !DICompositeType(tag: DW_TAG_structure_type, name: "tuple_element<0UL, std::tuple<std::default_delete<std::thread::_State> > >", scope: !2, file: !117, line: 1292, size: 8, flags: DIFlagTypePassByValue, elements: !40, templateParams: !1939, identifier: "_ZTSSt13tuple_elementILm0ESt5tupleIJSt14default_deleteINSt6thread6_StateEEEEE")
!1939 = !{!1753, !1940}
!1940 = !DITemplateTypeParameter(name: "_Tp", type: !1941)
!1941 = !DICompositeType(tag: DW_TAG_class_type, name: "tuple<std::default_delete<std::thread::_State> >", scope: !2, file: !117, line: 523, flags: DIFlagFwdDecl | DIFlagNonTrivial, identifier: "_ZTSSt5tupleIJSt14default_deleteINSt6thread6_StateEEEE")
!1942 = !{!1943, !306}
!1943 = !DITemplateValueParameter(name: "__i", type: !101, value: i64 1)
!1944 = !DILocalVariable(name: "__t", arg: 1, scope: !1932, file: !117, line: 1320, type: !322)
!1945 = !DILocation(line: 1320, column: 30, scope: !1932)
!1946 = !DILocation(line: 1321, column: 37, scope: !1932)
!1947 = !DILocation(line: 1321, column: 14, scope: !1932)
!1948 = !DILocation(line: 1321, column: 7, scope: !1932)
!1949 = distinct !DISubprogram(name: "__get_helper<1UL, std::default_delete<std::thread::_State> >", linkageName: "_ZSt12__get_helperILm1ESt14default_deleteINSt6thread6_StateEEJEERT0_RSt11_Tuple_implIXT_EJS4_DpT1_EE", scope: !2, file: !117, line: 1309, type: !197, scopeLine: 1310, flags: DIFlagPrototyped, spFlags: DISPFlagDefinition, unit: !17, templateParams: !1950, retainedNodes: !40)
!1950 = !{!1943, !194, !1786}
!1951 = !DILocalVariable(name: "__t", arg: 1, scope: !1949, file: !117, line: 1309, type: !199)
!1952 = !DILocation(line: 1309, column: 53, scope: !1949)
!1953 = !DILocation(line: 1310, column: 57, scope: !1949)
!1954 = !DILocation(line: 1310, column: 14, scope: !1949)
!1955 = !DILocation(line: 1310, column: 7, scope: !1949)
!1956 = distinct !DISubprogram(name: "_M_head", linkageName: "_ZNSt11_Tuple_implILm1EJSt14default_deleteINSt6thread6_StateEEEE7_M_headERS4_", scope: !123, file: !117, line: 334, type: !197, scopeLine: 334, flags: DIFlagPrototyped, spFlags: DISPFlagDefinition, unit: !17, declaration: !196, retainedNodes: !40)
!1957 = !DILocalVariable(name: "__t", arg: 1, scope: !1956, file: !117, line: 334, type: !199)
!1958 = !DILocation(line: 334, column: 28, scope: !1956)
!1959 = !DILocation(line: 334, column: 66, scope: !1956)
!1960 = !DILocation(line: 334, column: 51, scope: !1956)
!1961 = !DILocation(line: 334, column: 44, scope: !1956)
!1962 = distinct !DISubprogram(name: "_M_head", linkageName: "_ZNSt10_Head_baseILm1ESt14default_deleteINSt6thread6_StateEELb1EE7_M_headERS4_", scope: !126, file: !117, line: 113, type: !185, scopeLine: 113, flags: DIFlagPrototyped, spFlags: DISPFlagDefinition, unit: !17, declaration: !184, retainedNodes: !40)
!1963 = !DILocalVariable(name: "__b", arg: 1, scope: !1962, file: !117, line: 113, type: !188)
!1964 = !DILocation(line: 113, column: 27, scope: !1962)
!1965 = !DILocation(line: 113, column: 50, scope: !1962)
!1966 = !DILocation(line: 113, column: 43, scope: !1962)
!1967 = distinct !DISubprogram(linkageName: "_GLOBAL__sub_I_test3.cpp", scope: !9, file: !9, type: !1968, flags: DIFlagArtificial, spFlags: DISPFlagLocalToUnit | DISPFlagDefinition, unit: !17)
!1968 = !DISubroutineType(types: !40)
!1969 = !DILocation(line: 0, scope: !1967)
