; ModuleID = '/home/cs23mtech12010/CCM/CCMutator/llvm-project/llvm/lib/Transforms/scopePass/test/testTHREADS.ll'
source_filename = "/home/cs23mtech12010/CCM/CCMutator/llvm-project/llvm/lib/Transforms/scopePass/test/testTHREADS.cpp"
target datalayout = "e-m:e-p270:32:32-p271:32:32-p272:64:64-i64:64-f80:128-n8:16:32:64-S128"
target triple = "x86_64-unknown-linux-gnu"

%"class.std::ios_base::Init" = type { i8 }
%"class.std::basic_ostream" = type { ptr, %"class.std::basic_ios" }
%"class.std::basic_ios" = type { %"class.std::ios_base", ptr, i8, i8, ptr, ptr, ptr, ptr }
%"class.std::ios_base" = type { ptr, i64, i64, i32, i32, i32, ptr, %"struct.std::ios_base::_Words", [8 x %"struct.std::ios_base::_Words"], i32, ptr, %"class.std::locale" }
%"struct.std::ios_base::_Words" = type { ptr, i64 }
%"class.std::locale" = type { ptr }
%"class.std::thread" = type { %"class.std::thread::id" }
%"class.std::thread::id" = type { i64 }
%"class.std::unique_ptr" = type { %"class.std::__uniq_ptr_impl" }
%"class.std::__uniq_ptr_impl" = type { %"class.std::tuple" }
%"class.std::tuple" = type { %"struct.std::_Tuple_impl" }
%"struct.std::_Tuple_impl" = type { %"struct.std::_Head_base.1" }
%"struct.std::_Head_base.1" = type { ptr }
%"struct.std::thread::_Invoker" = type { %"class.std::tuple.2" }
%"class.std::tuple.2" = type { %"struct.std::_Tuple_impl.3" }
%"struct.std::_Tuple_impl.3" = type { %"struct.std::_Tuple_impl.4", %"struct.std::_Head_base.6" }
%"struct.std::_Tuple_impl.4" = type { %"struct.std::_Head_base.5" }
%"struct.std::_Head_base.5" = type { ptr }
%"struct.std::_Head_base.6" = type { ptr }
%"struct.std::thread::_Invoker.7" = type { %"class.std::tuple.8" }
%"class.std::tuple.8" = type { %"struct.std::_Tuple_impl.9" }
%"struct.std::_Tuple_impl.9" = type { %"struct.std::_Tuple_impl.10", %"struct.std::_Head_base.12" }
%"struct.std::_Tuple_impl.10" = type { %"struct.std::_Head_base.11" }
%"struct.std::_Head_base.11" = type { ptr }
%"struct.std::_Head_base.12" = type { ptr }
%"struct.std::thread::_State_impl" = type { %"struct.std::thread::_State", %"struct.std::thread::_Invoker" }
%"struct.std::thread::_State" = type { ptr }
%"struct.std::_Index_tuple" = type { i8 }
%"struct.std::__invoke_other" = type { i8 }
%"struct.std::thread::_State_impl.13" = type { %"struct.std::thread::_State", %"struct.std::thread::_Invoker.7" }

$_ZNSt6threadC2IRFvPiEJRS1_EvEEOT_DpOT0_ = comdat any

$_ZNSt6threadD2Ev = comdat any

$_ZNSt6threadC2IRFvPPiEJRS2_EvEEOT_DpOT0_ = comdat any

$_ZNSt6threadC2IRFvPPiEJS2_EvEEOT_DpOT0_ = comdat any

$_ZNSt6threadC2IRFvPiEJS1_EvEEOT_DpOT0_ = comdat any

$_ZNKSt6thread8joinableEv = comdat any

$_ZSteqNSt6thread2idES0_ = comdat any

$_ZNSt6thread2idC2Ev = comdat any

$_ZNSt6thread13_S_make_stateINS_8_InvokerISt5tupleIJPFvPiES3_EEEEEESt10unique_ptrINS_6_StateESt14default_deleteIS9_EEOT_ = comdat any

$_ZNSt6thread14__make_invokerIRFvPiEJRS1_EEENS_8_InvokerISt5tupleIJNSt5decayIT_E4typeEDpNS7_IT0_E4typeEEEEEOS8_DpOSB_ = comdat any

$_ZNSt10unique_ptrINSt6thread6_StateESt14default_deleteIS1_EED2Ev = comdat any

$_ZNSt6thread11_State_implINS_8_InvokerISt5tupleIJPFvPiES3_EEEEEC2EOS7_ = comdat any

$_ZNSt10unique_ptrINSt6thread6_StateESt14default_deleteIS1_EEC2IS3_vEEPS1_ = comdat any

$_ZNSt6thread6_StateC2Ev = comdat any

$_ZNSt6thread8_InvokerISt5tupleIJPFvPiES2_EEEC2EOS6_ = comdat any

$_ZNSt6thread11_State_implINS_8_InvokerISt5tupleIJPFvPiES3_EEEEED2Ev = comdat any

$_ZNSt6thread11_State_implINS_8_InvokerISt5tupleIJPFvPiES3_EEEEED0Ev = comdat any

$_ZNSt6thread11_State_implINS_8_InvokerISt5tupleIJPFvPiES3_EEEEE6_M_runEv = comdat any

$_ZNSt5tupleIJPFvPiES0_EEC2EOS3_ = comdat any

$_ZNSt11_Tuple_implILm0EJPFvPiES0_EEC2EOS3_ = comdat any

$_ZNSt11_Tuple_implILm0EJPFvPiES0_EE7_M_tailERS3_ = comdat any

$_ZNSt11_Tuple_implILm1EJPiEEC2EOS1_ = comdat any

$_ZNSt11_Tuple_implILm0EJPFvPiES0_EE7_M_headERS3_ = comdat any

$_ZNSt10_Head_baseILm0EPFvPiELb0EEC2IS2_EEOT_ = comdat any

$__clang_call_terminate = comdat any

$_ZNSt11_Tuple_implILm1EJPiEE7_M_headERS1_ = comdat any

$_ZNSt10_Head_baseILm1EPiLb0EEC2IS0_EEOT_ = comdat any

$_ZNSt10_Head_baseILm1EPiLb0EE7_M_headERS1_ = comdat any

$_ZNSt10_Head_baseILm0EPFvPiELb0EE7_M_headERS3_ = comdat any

$_ZNSt6thread8_InvokerISt5tupleIJPFvPiES2_EEEclEv = comdat any

$_ZNSt6thread8_InvokerISt5tupleIJPFvPiES2_EEE9_M_invokeIJLm0ELm1EEEEvSt12_Index_tupleIJXspT_EEE = comdat any

$_ZSt8__invokeIPFvPiEJS0_EENSt15__invoke_resultIT_JDpT0_EE4typeEOS4_DpOS5_ = comdat any

$_ZSt3getILm0EJPFvPiES0_EEONSt13tuple_elementIXT_ESt5tupleIJDpT0_EEE4typeEOS7_ = comdat any

$_ZSt3getILm1EJPFvPiES0_EEONSt13tuple_elementIXT_ESt5tupleIJDpT0_EEE4typeEOS7_ = comdat any

$_ZSt13__invoke_implIvPFvPiEJS0_EET_St14__invoke_otherOT0_DpOT1_ = comdat any

$_ZSt3getILm0EJPFvPiES0_EERNSt13tuple_elementIXT_ESt5tupleIJDpT0_EEE4typeERS7_ = comdat any

$_ZSt12__get_helperILm0EPFvPiEJS0_EERT0_RSt11_Tuple_implIXT_EJS3_DpT1_EE = comdat any

$_ZSt3getILm1EJPFvPiES0_EERNSt13tuple_elementIXT_ESt5tupleIJDpT0_EEE4typeERS7_ = comdat any

$_ZSt12__get_helperILm1EPiJEERT0_RSt11_Tuple_implIXT_EJS1_DpT1_EE = comdat any

$_ZNSt15__uniq_ptr_implINSt6thread6_StateESt14default_deleteIS1_EEC2EPS1_ = comdat any

$_ZNSt5tupleIJPNSt6thread6_StateESt14default_deleteIS1_EEEC2IS2_S4_Lb1EEEv = comdat any

$_ZNSt15__uniq_ptr_implINSt6thread6_StateESt14default_deleteIS1_EE6_M_ptrEv = comdat any

$_ZNSt11_Tuple_implILm0EJPNSt6thread6_StateESt14default_deleteIS1_EEEC2Ev = comdat any

$_ZNSt11_Tuple_implILm1EJSt14default_deleteINSt6thread6_StateEEEEC2Ev = comdat any

$_ZNSt10_Head_baseILm0EPNSt6thread6_StateELb0EEC2Ev = comdat any

$_ZNSt10_Head_baseILm1ESt14default_deleteINSt6thread6_StateEELb1EEC2Ev = comdat any

$_ZSt3getILm0EJPNSt6thread6_StateESt14default_deleteIS1_EEERNSt13tuple_elementIXT_ESt5tupleIJDpT0_EEE4typeERS9_ = comdat any

$_ZSt12__get_helperILm0EPNSt6thread6_StateEJSt14default_deleteIS1_EEERT0_RSt11_Tuple_implIXT_EJS5_DpT1_EE = comdat any

$_ZNSt11_Tuple_implILm0EJPNSt6thread6_StateESt14default_deleteIS1_EEE7_M_headERS5_ = comdat any

$_ZNSt10_Head_baseILm0EPNSt6thread6_StateELb0EE7_M_headERS3_ = comdat any

$_ZNSt5tupleIJPFvPiES0_EEC2IRS1_RS0_Lb1EEEOT_OT0_ = comdat any

$_ZNSt11_Tuple_implILm0EJPFvPiES0_EEC2IRS1_JRS0_EvEEOT_DpOT0_ = comdat any

$_ZNSt11_Tuple_implILm1EJPiEEC2IRS0_EEOT_ = comdat any

$_ZNSt10_Head_baseILm0EPFvPiELb0EEC2ERKS2_ = comdat any

$_ZNSt10_Head_baseILm1EPiLb0EEC2IRS0_EEOT_ = comdat any

$_ZNSt10unique_ptrINSt6thread6_StateESt14default_deleteIS1_EE11get_deleterEv = comdat any

$_ZNKSt14default_deleteINSt6thread6_StateEEclEPS1_ = comdat any

$_ZNSt15__uniq_ptr_implINSt6thread6_StateESt14default_deleteIS1_EE10_M_deleterEv = comdat any

$_ZSt3getILm1EJPNSt6thread6_StateESt14default_deleteIS1_EEERNSt13tuple_elementIXT_ESt5tupleIJDpT0_EEE4typeERS9_ = comdat any

$_ZSt12__get_helperILm1ESt14default_deleteINSt6thread6_StateEEJEERT0_RSt11_Tuple_implIXT_EJS4_DpT1_EE = comdat any

$_ZNSt11_Tuple_implILm1EJSt14default_deleteINSt6thread6_StateEEEE7_M_headERS4_ = comdat any

$_ZNSt10_Head_baseILm1ESt14default_deleteINSt6thread6_StateEELb1EE7_M_headERS4_ = comdat any

$_ZNSt6thread13_S_make_stateINS_8_InvokerISt5tupleIJPFvPPiES4_EEEEEESt10unique_ptrINS_6_StateESt14default_deleteISA_EEOT_ = comdat any

$_ZNSt6thread14__make_invokerIRFvPPiEJRS2_EEENS_8_InvokerISt5tupleIJNSt5decayIT_E4typeEDpNS8_IT0_E4typeEEEEEOS9_DpOSC_ = comdat any

$_ZNSt6thread11_State_implINS_8_InvokerISt5tupleIJPFvPPiES4_EEEEEC2EOS8_ = comdat any

$_ZNSt6thread8_InvokerISt5tupleIJPFvPPiES3_EEEC2EOS7_ = comdat any

$_ZNSt6thread11_State_implINS_8_InvokerISt5tupleIJPFvPPiES4_EEEEED2Ev = comdat any

$_ZNSt6thread11_State_implINS_8_InvokerISt5tupleIJPFvPPiES4_EEEEED0Ev = comdat any

$_ZNSt6thread11_State_implINS_8_InvokerISt5tupleIJPFvPPiES4_EEEEE6_M_runEv = comdat any

$_ZNSt5tupleIJPFvPPiES1_EEC2EOS4_ = comdat any

$_ZNSt11_Tuple_implILm0EJPFvPPiES1_EEC2EOS4_ = comdat any

$_ZNSt11_Tuple_implILm0EJPFvPPiES1_EE7_M_tailERS4_ = comdat any

$_ZNSt11_Tuple_implILm1EJPPiEEC2EOS2_ = comdat any

$_ZNSt11_Tuple_implILm0EJPFvPPiES1_EE7_M_headERS4_ = comdat any

$_ZNSt10_Head_baseILm0EPFvPPiELb0EEC2IS3_EEOT_ = comdat any

$_ZNSt11_Tuple_implILm1EJPPiEE7_M_headERS2_ = comdat any

$_ZNSt10_Head_baseILm1EPPiLb0EEC2IS1_EEOT_ = comdat any

$_ZNSt10_Head_baseILm1EPPiLb0EE7_M_headERS2_ = comdat any

$_ZNSt10_Head_baseILm0EPFvPPiELb0EE7_M_headERS4_ = comdat any

$_ZNSt6thread8_InvokerISt5tupleIJPFvPPiES3_EEEclEv = comdat any

$_ZNSt6thread8_InvokerISt5tupleIJPFvPPiES3_EEE9_M_invokeIJLm0ELm1EEEEvSt12_Index_tupleIJXspT_EEE = comdat any

$_ZSt8__invokeIPFvPPiEJS1_EENSt15__invoke_resultIT_JDpT0_EE4typeEOS5_DpOS6_ = comdat any

$_ZSt3getILm0EJPFvPPiES1_EEONSt13tuple_elementIXT_ESt5tupleIJDpT0_EEE4typeEOS8_ = comdat any

$_ZSt3getILm1EJPFvPPiES1_EEONSt13tuple_elementIXT_ESt5tupleIJDpT0_EEE4typeEOS8_ = comdat any

$_ZSt13__invoke_implIvPFvPPiEJS1_EET_St14__invoke_otherOT0_DpOT1_ = comdat any

$_ZSt3getILm0EJPFvPPiES1_EERNSt13tuple_elementIXT_ESt5tupleIJDpT0_EEE4typeERS8_ = comdat any

$_ZSt12__get_helperILm0EPFvPPiEJS1_EERT0_RSt11_Tuple_implIXT_EJS4_DpT1_EE = comdat any

$_ZSt3getILm1EJPFvPPiES1_EERNSt13tuple_elementIXT_ESt5tupleIJDpT0_EEE4typeERS8_ = comdat any

$_ZSt12__get_helperILm1EPPiJEERT0_RSt11_Tuple_implIXT_EJS2_DpT1_EE = comdat any

$_ZNSt5tupleIJPFvPPiES1_EEC2IRS2_RS1_Lb1EEEOT_OT0_ = comdat any

$_ZNSt11_Tuple_implILm0EJPFvPPiES1_EEC2IRS2_JRS1_EvEEOT_DpOT0_ = comdat any

$_ZNSt11_Tuple_implILm1EJPPiEEC2IRS1_EEOT_ = comdat any

$_ZNSt10_Head_baseILm0EPFvPPiELb0EEC2ERKS3_ = comdat any

$_ZNSt10_Head_baseILm1EPPiLb0EEC2IRS1_EEOT_ = comdat any

$_ZNSt6thread14__make_invokerIRFvPPiEJS2_EEENS_8_InvokerISt5tupleIJNSt5decayIT_E4typeEDpNS7_IT0_E4typeEEEEEOS8_DpOSB_ = comdat any

$_ZNSt5tupleIJPFvPPiES1_EEC2IRS2_S1_Lb1EEEOT_OT0_ = comdat any

$_ZNSt11_Tuple_implILm0EJPFvPPiES1_EEC2IRS2_JS1_EvEEOT_DpOT0_ = comdat any

$_ZNSt11_Tuple_implILm1EJPPiEEC2IS1_EEOT_ = comdat any

$_ZNSt6thread14__make_invokerIRFvPiEJS1_EEENS_8_InvokerISt5tupleIJNSt5decayIT_E4typeEDpNS6_IT0_E4typeEEEEEOS7_DpOSA_ = comdat any

$_ZNSt5tupleIJPFvPiES0_EEC2IRS1_S0_Lb1EEEOT_OT0_ = comdat any

$_ZNSt11_Tuple_implILm0EJPFvPiES0_EEC2IRS1_JS0_EvEEOT_DpOT0_ = comdat any

$_ZNSt11_Tuple_implILm1EJPiEEC2IS0_EEOT_ = comdat any

$_ZTVNSt6thread11_State_implINS_8_InvokerISt5tupleIJPFvPiES3_EEEEEE = comdat any

$_ZTSNSt6thread11_State_implINS_8_InvokerISt5tupleIJPFvPiES3_EEEEEE = comdat any

$_ZTINSt6thread11_State_implINS_8_InvokerISt5tupleIJPFvPiES3_EEEEEE = comdat any

$_ZTVNSt6thread11_State_implINS_8_InvokerISt5tupleIJPFvPPiES4_EEEEEE = comdat any

$_ZTSNSt6thread11_State_implINS_8_InvokerISt5tupleIJPFvPPiES4_EEEEEE = comdat any

$_ZTINSt6thread11_State_implINS_8_InvokerISt5tupleIJPFvPPiES4_EEEEEE = comdat any

@_ZStL8__ioinit = internal global %"class.std::ios_base::Init" zeroinitializer, align 1, !dbg !0
@__dso_handle = external hidden global i8
@_ZSt4cout = external global %"class.std::basic_ostream", align 8
@.str = private unnamed_addr constant [18 x i8] c"In fun5: value = \00", align 1, !dbg !7
@.str.1 = private unnamed_addr constant [18 x i8] c"In fun4: value = \00", align 1, !dbg !15
@.str.2 = private unnamed_addr constant [18 x i8] c"In fun3: value = \00", align 1, !dbg !17
@.str.3 = private unnamed_addr constant [18 x i8] c"In fun2: value = \00", align 1, !dbg !19
@.str.4 = private unnamed_addr constant [17 x i8] c"In fun: value = \00", align 1, !dbg !21
@_ZTVNSt6thread11_State_implINS_8_InvokerISt5tupleIJPFvPiES3_EEEEEE = linkonce_odr dso_local unnamed_addr constant { [5 x ptr] } { [5 x ptr] [ptr null, ptr @_ZTINSt6thread11_State_implINS_8_InvokerISt5tupleIJPFvPiES3_EEEEEE, ptr @_ZNSt6thread11_State_implINS_8_InvokerISt5tupleIJPFvPiES3_EEEEED2Ev, ptr @_ZNSt6thread11_State_implINS_8_InvokerISt5tupleIJPFvPiES3_EEEEED0Ev, ptr @_ZNSt6thread11_State_implINS_8_InvokerISt5tupleIJPFvPiES3_EEEEE6_M_runEv] }, comdat, align 8
@_ZTVN10__cxxabiv120__si_class_type_infoE = external global ptr
@_ZTSNSt6thread11_State_implINS_8_InvokerISt5tupleIJPFvPiES3_EEEEEE = linkonce_odr dso_local constant [63 x i8] c"NSt6thread11_State_implINS_8_InvokerISt5tupleIJPFvPiES3_EEEEEE\00", comdat, align 1
@_ZTINSt6thread6_StateE = external constant ptr
@_ZTINSt6thread11_State_implINS_8_InvokerISt5tupleIJPFvPiES3_EEEEEE = linkonce_odr dso_local constant { ptr, ptr, ptr } { ptr getelementptr inbounds (ptr, ptr @_ZTVN10__cxxabiv120__si_class_type_infoE, i64 2), ptr @_ZTSNSt6thread11_State_implINS_8_InvokerISt5tupleIJPFvPiES3_EEEEEE, ptr @_ZTINSt6thread6_StateE }, comdat, align 8
@_ZTVNSt6thread6_StateE = external unnamed_addr constant { [5 x ptr] }, align 8
@_ZTVNSt6thread11_State_implINS_8_InvokerISt5tupleIJPFvPPiES4_EEEEEE = linkonce_odr dso_local unnamed_addr constant { [5 x ptr] } { [5 x ptr] [ptr null, ptr @_ZTINSt6thread11_State_implINS_8_InvokerISt5tupleIJPFvPPiES4_EEEEEE, ptr @_ZNSt6thread11_State_implINS_8_InvokerISt5tupleIJPFvPPiES4_EEEEED2Ev, ptr @_ZNSt6thread11_State_implINS_8_InvokerISt5tupleIJPFvPPiES4_EEEEED0Ev, ptr @_ZNSt6thread11_State_implINS_8_InvokerISt5tupleIJPFvPPiES4_EEEEE6_M_runEv] }, comdat, align 8
@_ZTSNSt6thread11_State_implINS_8_InvokerISt5tupleIJPFvPPiES4_EEEEEE = linkonce_odr dso_local constant [64 x i8] c"NSt6thread11_State_implINS_8_InvokerISt5tupleIJPFvPPiES4_EEEEEE\00", comdat, align 1
@_ZTINSt6thread11_State_implINS_8_InvokerISt5tupleIJPFvPPiES4_EEEEEE = linkonce_odr dso_local constant { ptr, ptr, ptr } { ptr getelementptr inbounds (ptr, ptr @_ZTVN10__cxxabiv120__si_class_type_infoE, i64 2), ptr @_ZTSNSt6thread11_State_implINS_8_InvokerISt5tupleIJPFvPPiES4_EEEEEE, ptr @_ZTINSt6thread6_StateE }, comdat, align 8
@llvm.global_ctors = appending global [1 x { i32, ptr, ptr }] [{ i32, ptr, ptr } { i32 65535, ptr @_GLOBAL__sub_I_testTHREADS.cpp, ptr null }]

; Function Attrs: noinline uwtable
define internal void @__cxx_global_var_init() #0 section ".text.startup" !dbg !1779 {
  call void @_ZNSt8ios_base4InitC1Ev(ptr noundef nonnull align 1 dereferenceable(1) @_ZStL8__ioinit), !dbg !1780
  %1 = call i32 @__cxa_atexit(ptr @_ZNSt8ios_base4InitD1Ev, ptr @_ZStL8__ioinit, ptr @__dso_handle) #3, !dbg !1782
  ret void, !dbg !1780
}

declare void @_ZNSt8ios_base4InitC1Ev(ptr noundef nonnull align 1 dereferenceable(1)) unnamed_addr #1

; Function Attrs: nounwind
declare void @_ZNSt8ios_base4InitD1Ev(ptr noundef nonnull align 1 dereferenceable(1)) unnamed_addr #2

; Function Attrs: nounwind
declare i32 @__cxa_atexit(ptr, ptr, ptr) #3

; Function Attrs: mustprogress noinline uwtable
define dso_local void @_Z4fun5Pi(ptr noundef %0) #4 !dbg !1783 {
  %2 = alloca ptr, align 8
  store ptr %0, ptr %2, align 8
  call void @llvm.dbg.declare(metadata ptr %2, metadata !1784, metadata !DIExpression()), !dbg !1785
  %3 = call noundef nonnull align 8 dereferenceable(8) ptr @_ZStlsISt11char_traitsIcEERSt13basic_ostreamIcT_ES5_PKc(ptr noundef nonnull align 8 dereferenceable(8) @_ZSt4cout, ptr noundef @.str), !dbg !1786
  %4 = load ptr, ptr %2, align 8, !dbg !1787
  %5 = load i32, ptr %4, align 4, !dbg !1788
  %6 = call noundef nonnull align 8 dereferenceable(8) ptr @_ZNSolsEi(ptr noundef nonnull align 8 dereferenceable(8) %3, i32 noundef %5), !dbg !1789
  %7 = call noundef nonnull align 8 dereferenceable(8) ptr @_ZNSolsEPFRSoS_E(ptr noundef nonnull align 8 dereferenceable(8) %6, ptr noundef @_ZSt4endlIcSt11char_traitsIcEERSt13basic_ostreamIT_T0_ES6_), !dbg !1790
  %8 = load ptr, ptr %2, align 8, !dbg !1791
  call void @_Z4fun5Pi(ptr noundef %8), !dbg !1792
  ret void, !dbg !1793
}

; Function Attrs: nocallback nofree nosync nounwind speculatable willreturn memory(none)
declare void @llvm.dbg.declare(metadata, metadata, metadata) #5

declare noundef nonnull align 8 dereferenceable(8) ptr @_ZStlsISt11char_traitsIcEERSt13basic_ostreamIcT_ES5_PKc(ptr noundef nonnull align 8 dereferenceable(8), ptr noundef) #1

declare noundef nonnull align 8 dereferenceable(8) ptr @_ZNSolsEi(ptr noundef nonnull align 8 dereferenceable(8), i32 noundef) #1

declare noundef nonnull align 8 dereferenceable(8) ptr @_ZNSolsEPFRSoS_E(ptr noundef nonnull align 8 dereferenceable(8), ptr noundef) #1

declare noundef nonnull align 8 dereferenceable(8) ptr @_ZSt4endlIcSt11char_traitsIcEERSt13basic_ostreamIT_T0_ES6_(ptr noundef nonnull align 8 dereferenceable(8)) #1

; Function Attrs: mustprogress noinline uwtable
define dso_local void @_Z4fun4Pi(ptr noundef %0) #4 personality ptr @__gxx_personality_v0 !dbg !1794 {
  %2 = alloca ptr, align 8
  %3 = alloca %"class.std::thread", align 8
  %4 = alloca ptr, align 8
  %5 = alloca i32, align 4
  store ptr %0, ptr %2, align 8
  call void @llvm.dbg.declare(metadata ptr %2, metadata !1795, metadata !DIExpression()), !dbg !1796
  %6 = call noundef nonnull align 8 dereferenceable(8) ptr @_ZStlsISt11char_traitsIcEERSt13basic_ostreamIcT_ES5_PKc(ptr noundef nonnull align 8 dereferenceable(8) @_ZSt4cout, ptr noundef @.str.1), !dbg !1797
  %7 = load ptr, ptr %2, align 8, !dbg !1798
  %8 = load i32, ptr %7, align 4, !dbg !1799
  %9 = call noundef nonnull align 8 dereferenceable(8) ptr @_ZNSolsEi(ptr noundef nonnull align 8 dereferenceable(8) %6, i32 noundef %8), !dbg !1800
  %10 = call noundef nonnull align 8 dereferenceable(8) ptr @_ZNSolsEPFRSoS_E(ptr noundef nonnull align 8 dereferenceable(8) %9, ptr noundef @_ZSt4endlIcSt11char_traitsIcEERSt13basic_ostreamIT_T0_ES6_), !dbg !1801
  call void @llvm.dbg.declare(metadata ptr %3, metadata !1802, metadata !DIExpression()), !dbg !1803
  call void @_ZNSt6threadC2IRFvPiEJRS1_EvEEOT_DpOT0_(ptr noundef nonnull align 8 dereferenceable(8) %3, ptr noundef nonnull @_Z4fun5Pi, ptr noundef nonnull align 8 dereferenceable(8) %2), !dbg !1803
  call void @_ZNSt6thread4joinEv(ptr noundef nonnull align 8 dereferenceable(8) %3), !dbg !1804
  call void @_ZNSt6threadD2Ev(ptr noundef nonnull align 8 dereferenceable(8) %3) #3, !dbg !1805
  ret void, !dbg !1805
}

; Function Attrs: noinline uwtable
define linkonce_odr dso_local void @_ZNSt6threadC2IRFvPiEJRS1_EvEEOT_DpOT0_(ptr noundef nonnull align 8 dereferenceable(8) %0, ptr noundef nonnull %1, ptr noundef nonnull align 8 dereferenceable(8) %2) unnamed_addr #0 comdat align 2 personality ptr @__gxx_personality_v0 !dbg !1806 {
  %4 = alloca ptr, align 8
  %5 = alloca ptr, align 8
  %6 = alloca ptr, align 8
  %7 = alloca ptr, align 8
  %8 = alloca %"class.std::unique_ptr", align 8
  %9 = alloca %"struct.std::thread::_Invoker", align 8
  %10 = alloca ptr, align 8
  %11 = alloca i32, align 4
  store ptr %0, ptr %4, align 8
  call void @llvm.dbg.declare(metadata ptr %4, metadata !1817, metadata !DIExpression()), !dbg !1819
  store ptr %1, ptr %5, align 8
  call void @llvm.dbg.declare(metadata ptr %5, metadata !1820, metadata !DIExpression()), !dbg !1821
  store ptr %2, ptr %6, align 8
  call void @llvm.dbg.declare(metadata ptr %6, metadata !1822, metadata !DIExpression()), !dbg !1823
  %12 = load ptr, ptr %4, align 8
  %13 = getelementptr inbounds %"class.std::thread", ptr %12, i32 0, i32 0, !dbg !1824
  call void @_ZNSt6thread2idC2Ev(ptr noundef nonnull align 8 dereferenceable(8) %13) #3, !dbg !1824
  call void @llvm.dbg.declare(metadata ptr %7, metadata !1825, metadata !DIExpression()), !dbg !1827
  store ptr @pthread_create, ptr %7, align 8, !dbg !1827
  %14 = load ptr, ptr %5, align 8, !dbg !1828
  %15 = load ptr, ptr %6, align 8, !dbg !1829
  call void @_ZNSt6thread14__make_invokerIRFvPiEJRS1_EEENS_8_InvokerISt5tupleIJNSt5decayIT_E4typeEDpNS7_IT0_E4typeEEEEEOS8_DpOSB_(ptr sret(%"struct.std::thread::_Invoker") align 8 %9, ptr noundef nonnull %14, ptr noundef nonnull align 8 dereferenceable(8) %15), !dbg !1830
  call void @_ZNSt6thread13_S_make_stateINS_8_InvokerISt5tupleIJPFvPiES3_EEEEEESt10unique_ptrINS_6_StateESt14default_deleteIS9_EEOT_(ptr sret(%"class.std::unique_ptr") align 8 %8, ptr noundef nonnull align 8 dereferenceable(16) %9), !dbg !1831
  %16 = load ptr, ptr %7, align 8, !dbg !1832
  call void @_ZNSt6thread15_M_start_threadESt10unique_ptrINS_6_StateESt14default_deleteIS1_EEPFvvE(ptr noundef nonnull align 8 dereferenceable(8) %12, ptr noundef %8, ptr noundef %16), !dbg !1833
  call void @_ZNSt10unique_ptrINSt6thread6_StateESt14default_deleteIS1_EED2Ev(ptr noundef nonnull align 8 dereferenceable(8) %8) #3, !dbg !1833
  ret void, !dbg !1834
}

declare void @_ZNSt6thread4joinEv(ptr noundef nonnull align 8 dereferenceable(8)) #1

declare i32 @__gxx_personality_v0(...)

; Function Attrs: noinline nounwind uwtable
define linkonce_odr dso_local void @_ZNSt6threadD2Ev(ptr noundef nonnull align 8 dereferenceable(8) %0) unnamed_addr #6 comdat align 2 !dbg !1835 {
  %2 = alloca ptr, align 8
  store ptr %0, ptr %2, align 8
  call void @llvm.dbg.declare(metadata ptr %2, metadata !1836, metadata !DIExpression()), !dbg !1837
  %3 = load ptr, ptr %2, align 8
  %4 = call noundef zeroext i1 @_ZNKSt6thread8joinableEv(ptr noundef nonnull align 8 dereferenceable(8) %3) #3, !dbg !1838
  br i1 %4, label %5, label %6, !dbg !1841

5:                                                ; preds = %1
  call void @_ZSt9terminatev() #14, !dbg !1842
  unreachable, !dbg !1842

6:                                                ; preds = %1
  ret void, !dbg !1843
}

; Function Attrs: mustprogress noinline uwtable
define dso_local void @_Z4fun3PPi(ptr noundef %0) #4 personality ptr @__gxx_personality_v0 !dbg !1844 {
  %2 = alloca ptr, align 8
  %3 = alloca %"class.std::thread", align 8
  %4 = alloca ptr, align 8
  %5 = alloca i32, align 4
  store ptr %0, ptr %2, align 8
  call void @llvm.dbg.declare(metadata ptr %2, metadata !1845, metadata !DIExpression()), !dbg !1846
  %6 = call noundef nonnull align 8 dereferenceable(8) ptr @_ZStlsISt11char_traitsIcEERSt13basic_ostreamIcT_ES5_PKc(ptr noundef nonnull align 8 dereferenceable(8) @_ZSt4cout, ptr noundef @.str.2), !dbg !1847
  %7 = load ptr, ptr %2, align 8, !dbg !1848
  %8 = load ptr, ptr %7, align 8, !dbg !1849
  %9 = load i32, ptr %8, align 4, !dbg !1850
  %10 = call noundef nonnull align 8 dereferenceable(8) ptr @_ZNSolsEi(ptr noundef nonnull align 8 dereferenceable(8) %6, i32 noundef %9), !dbg !1851
  %11 = call noundef nonnull align 8 dereferenceable(8) ptr @_ZNSolsEPFRSoS_E(ptr noundef nonnull align 8 dereferenceable(8) %10, ptr noundef @_ZSt4endlIcSt11char_traitsIcEERSt13basic_ostreamIT_T0_ES6_), !dbg !1852
  call void @llvm.dbg.declare(metadata ptr %3, metadata !1853, metadata !DIExpression()), !dbg !1854
  %12 = load ptr, ptr %2, align 8, !dbg !1855
  call void @_ZNSt6threadC2IRFvPiEJRS1_EvEEOT_DpOT0_(ptr noundef nonnull align 8 dereferenceable(8) %3, ptr noundef nonnull @_Z4fun4Pi, ptr noundef nonnull align 8 dereferenceable(8) %12), !dbg !1854
  call void @_ZNSt6thread4joinEv(ptr noundef nonnull align 8 dereferenceable(8) %3), !dbg !1856
  call void @_ZNSt6threadD2Ev(ptr noundef nonnull align 8 dereferenceable(8) %3) #3, !dbg !1857
  ret void, !dbg !1857
}

; Function Attrs: mustprogress noinline uwtable
define dso_local void @_Z4fun2PPi(ptr noundef %0) #4 personality ptr @__gxx_personality_v0 !dbg !1858 {
  %2 = alloca ptr, align 8
  %3 = alloca %"class.std::thread", align 8
  %4 = alloca %"class.std::thread", align 8
  %5 = alloca ptr, align 8
  %6 = alloca i32, align 4
  store ptr %0, ptr %2, align 8
  call void @llvm.dbg.declare(metadata ptr %2, metadata !1859, metadata !DIExpression()), !dbg !1860
  %7 = call noundef nonnull align 8 dereferenceable(8) ptr @_ZStlsISt11char_traitsIcEERSt13basic_ostreamIcT_ES5_PKc(ptr noundef nonnull align 8 dereferenceable(8) @_ZSt4cout, ptr noundef @.str.3), !dbg !1861
  %8 = load ptr, ptr %2, align 8, !dbg !1862
  %9 = load ptr, ptr %8, align 8, !dbg !1863
  %10 = load i32, ptr %9, align 4, !dbg !1864
  %11 = call noundef nonnull align 8 dereferenceable(8) ptr @_ZNSolsEi(ptr noundef nonnull align 8 dereferenceable(8) %7, i32 noundef %10), !dbg !1865
  %12 = call noundef nonnull align 8 dereferenceable(8) ptr @_ZNSolsEPFRSoS_E(ptr noundef nonnull align 8 dereferenceable(8) %11, ptr noundef @_ZSt4endlIcSt11char_traitsIcEERSt13basic_ostreamIT_T0_ES6_), !dbg !1866
  call void @llvm.dbg.declare(metadata ptr %3, metadata !1867, metadata !DIExpression()), !dbg !1868
  call void @_ZNSt6threadC2IRFvPPiEJRS2_EvEEOT_DpOT0_(ptr noundef nonnull align 8 dereferenceable(8) %3, ptr noundef nonnull @_Z4fun3PPi, ptr noundef nonnull align 8 dereferenceable(8) %2), !dbg !1868
  call void @llvm.dbg.declare(metadata ptr %4, metadata !1869, metadata !DIExpression()), !dbg !1870
  call void @_ZNSt6threadC2IRFvPPiEJRS2_EvEEOT_DpOT0_(ptr noundef nonnull align 8 dereferenceable(8) %4, ptr noundef nonnull @_Z4fun3PPi, ptr noundef nonnull align 8 dereferenceable(8) %2), !dbg !1870
  call void @_ZNSt6thread4joinEv(ptr noundef nonnull align 8 dereferenceable(8) %3), !dbg !1871
  call void @_ZNSt6thread4joinEv(ptr noundef nonnull align 8 dereferenceable(8) %4), !dbg !1872
  call void @_ZNSt6threadD2Ev(ptr noundef nonnull align 8 dereferenceable(8) %4) #3, !dbg !1873
  call void @_ZNSt6threadD2Ev(ptr noundef nonnull align 8 dereferenceable(8) %3) #3, !dbg !1873
  ret void, !dbg !1873
}

; Function Attrs: noinline uwtable
define linkonce_odr dso_local void @_ZNSt6threadC2IRFvPPiEJRS2_EvEEOT_DpOT0_(ptr noundef nonnull align 8 dereferenceable(8) %0, ptr noundef nonnull %1, ptr noundef nonnull align 8 dereferenceable(8) %2) unnamed_addr #0 comdat align 2 personality ptr @__gxx_personality_v0 !dbg !1874 {
  %4 = alloca ptr, align 8
  %5 = alloca ptr, align 8
  %6 = alloca ptr, align 8
  %7 = alloca ptr, align 8
  %8 = alloca %"class.std::unique_ptr", align 8
  %9 = alloca %"struct.std::thread::_Invoker.7", align 8
  %10 = alloca ptr, align 8
  %11 = alloca i32, align 4
  store ptr %0, ptr %4, align 8
  call void @llvm.dbg.declare(metadata ptr %4, metadata !1884, metadata !DIExpression()), !dbg !1885
  store ptr %1, ptr %5, align 8
  call void @llvm.dbg.declare(metadata ptr %5, metadata !1886, metadata !DIExpression()), !dbg !1887
  store ptr %2, ptr %6, align 8
  call void @llvm.dbg.declare(metadata ptr %6, metadata !1888, metadata !DIExpression()), !dbg !1889
  %12 = load ptr, ptr %4, align 8
  %13 = getelementptr inbounds %"class.std::thread", ptr %12, i32 0, i32 0, !dbg !1890
  call void @_ZNSt6thread2idC2Ev(ptr noundef nonnull align 8 dereferenceable(8) %13) #3, !dbg !1890
  call void @llvm.dbg.declare(metadata ptr %7, metadata !1891, metadata !DIExpression()), !dbg !1893
  store ptr @pthread_create, ptr %7, align 8, !dbg !1893
  %14 = load ptr, ptr %5, align 8, !dbg !1894
  %15 = load ptr, ptr %6, align 8, !dbg !1895
  call void @_ZNSt6thread14__make_invokerIRFvPPiEJRS2_EEENS_8_InvokerISt5tupleIJNSt5decayIT_E4typeEDpNS8_IT0_E4typeEEEEEOS9_DpOSC_(ptr sret(%"struct.std::thread::_Invoker.7") align 8 %9, ptr noundef nonnull %14, ptr noundef nonnull align 8 dereferenceable(8) %15), !dbg !1896
  call void @_ZNSt6thread13_S_make_stateINS_8_InvokerISt5tupleIJPFvPPiES4_EEEEEESt10unique_ptrINS_6_StateESt14default_deleteISA_EEOT_(ptr sret(%"class.std::unique_ptr") align 8 %8, ptr noundef nonnull align 8 dereferenceable(16) %9), !dbg !1897
  %16 = load ptr, ptr %7, align 8, !dbg !1898
  call void @_ZNSt6thread15_M_start_threadESt10unique_ptrINS_6_StateESt14default_deleteIS1_EEPFvvE(ptr noundef nonnull align 8 dereferenceable(8) %12, ptr noundef %8, ptr noundef %16), !dbg !1899
  call void @_ZNSt10unique_ptrINSt6thread6_StateESt14default_deleteIS1_EED2Ev(ptr noundef nonnull align 8 dereferenceable(8) %8) #3, !dbg !1899
  ret void, !dbg !1900
}

; Function Attrs: mustprogress noinline uwtable
define dso_local void @_Z3funPi(ptr noundef %0) #4 personality ptr @__gxx_personality_v0 !dbg !1901 {
  %2 = alloca ptr, align 8
  %3 = alloca %"class.std::thread", align 8
  %4 = alloca ptr, align 8
  %5 = alloca ptr, align 8
  %6 = alloca i32, align 4
  store ptr %0, ptr %2, align 8
  call void @llvm.dbg.declare(metadata ptr %2, metadata !1902, metadata !DIExpression()), !dbg !1903
  %7 = call noundef nonnull align 8 dereferenceable(8) ptr @_ZStlsISt11char_traitsIcEERSt13basic_ostreamIcT_ES5_PKc(ptr noundef nonnull align 8 dereferenceable(8) @_ZSt4cout, ptr noundef @.str.4), !dbg !1904
  %8 = load ptr, ptr %2, align 8, !dbg !1905
  %9 = load i32, ptr %8, align 4, !dbg !1906
  %10 = call noundef nonnull align 8 dereferenceable(8) ptr @_ZNSolsEi(ptr noundef nonnull align 8 dereferenceable(8) %7, i32 noundef %9), !dbg !1907
  %11 = call noundef nonnull align 8 dereferenceable(8) ptr @_ZNSolsEPFRSoS_E(ptr noundef nonnull align 8 dereferenceable(8) %10, ptr noundef @_ZSt4endlIcSt11char_traitsIcEERSt13basic_ostreamIT_T0_ES6_), !dbg !1908
  call void @llvm.dbg.declare(metadata ptr %3, metadata !1909, metadata !DIExpression()), !dbg !1910
  store ptr %2, ptr %4, align 8, !dbg !1911
  call void @_ZNSt6threadC2IRFvPPiEJS2_EvEEOT_DpOT0_(ptr noundef nonnull align 8 dereferenceable(8) %3, ptr noundef nonnull @_Z4fun2PPi, ptr noundef nonnull align 8 dereferenceable(8) %4), !dbg !1910
  call void @_ZNSt6thread4joinEv(ptr noundef nonnull align 8 dereferenceable(8) %3), !dbg !1912
  call void @_ZNSt6threadD2Ev(ptr noundef nonnull align 8 dereferenceable(8) %3) #3, !dbg !1913
  ret void, !dbg !1913
}

; Function Attrs: noinline uwtable
define linkonce_odr dso_local void @_ZNSt6threadC2IRFvPPiEJS2_EvEEOT_DpOT0_(ptr noundef nonnull align 8 dereferenceable(8) %0, ptr noundef nonnull %1, ptr noundef nonnull align 8 dereferenceable(8) %2) unnamed_addr #0 comdat align 2 personality ptr @__gxx_personality_v0 !dbg !1914 {
  %4 = alloca ptr, align 8
  %5 = alloca ptr, align 8
  %6 = alloca ptr, align 8
  %7 = alloca ptr, align 8
  %8 = alloca %"class.std::unique_ptr", align 8
  %9 = alloca %"struct.std::thread::_Invoker.7", align 8
  %10 = alloca ptr, align 8
  %11 = alloca i32, align 4
  store ptr %0, ptr %4, align 8
  call void @llvm.dbg.declare(metadata ptr %4, metadata !1919, metadata !DIExpression()), !dbg !1920
  store ptr %1, ptr %5, align 8
  call void @llvm.dbg.declare(metadata ptr %5, metadata !1921, metadata !DIExpression()), !dbg !1922
  store ptr %2, ptr %6, align 8
  call void @llvm.dbg.declare(metadata ptr %6, metadata !1923, metadata !DIExpression()), !dbg !1924
  %12 = load ptr, ptr %4, align 8
  %13 = getelementptr inbounds %"class.std::thread", ptr %12, i32 0, i32 0, !dbg !1925
  call void @_ZNSt6thread2idC2Ev(ptr noundef nonnull align 8 dereferenceable(8) %13) #3, !dbg !1925
  call void @llvm.dbg.declare(metadata ptr %7, metadata !1926, metadata !DIExpression()), !dbg !1928
  store ptr @pthread_create, ptr %7, align 8, !dbg !1928
  %14 = load ptr, ptr %5, align 8, !dbg !1929
  %15 = load ptr, ptr %6, align 8, !dbg !1930
  call void @_ZNSt6thread14__make_invokerIRFvPPiEJS2_EEENS_8_InvokerISt5tupleIJNSt5decayIT_E4typeEDpNS7_IT0_E4typeEEEEEOS8_DpOSB_(ptr sret(%"struct.std::thread::_Invoker.7") align 8 %9, ptr noundef nonnull %14, ptr noundef nonnull align 8 dereferenceable(8) %15), !dbg !1931
  call void @_ZNSt6thread13_S_make_stateINS_8_InvokerISt5tupleIJPFvPPiES4_EEEEEESt10unique_ptrINS_6_StateESt14default_deleteISA_EEOT_(ptr sret(%"class.std::unique_ptr") align 8 %8, ptr noundef nonnull align 8 dereferenceable(16) %9), !dbg !1932
  %16 = load ptr, ptr %7, align 8, !dbg !1933
  call void @_ZNSt6thread15_M_start_threadESt10unique_ptrINS_6_StateESt14default_deleteIS1_EEPFvvE(ptr noundef nonnull align 8 dereferenceable(8) %12, ptr noundef %8, ptr noundef %16), !dbg !1934
  call void @_ZNSt10unique_ptrINSt6thread6_StateESt14default_deleteIS1_EED2Ev(ptr noundef nonnull align 8 dereferenceable(8) %8) #3, !dbg !1934
  ret void, !dbg !1935
}

; Function Attrs: mustprogress noinline norecurse uwtable
define dso_local noundef i32 @main() #7 personality ptr @__gxx_personality_v0 !dbg !1936 {
  %1 = alloca i32, align 4
  %2 = alloca i32, align 4
  %3 = alloca %"class.std::thread", align 8
  %4 = alloca ptr, align 8
  %5 = alloca ptr, align 8
  %6 = alloca i32, align 4
  store i32 0, ptr %1, align 4
  call void @llvm.dbg.declare(metadata ptr %2, metadata !1937, metadata !DIExpression()), !dbg !1938
  store i32 18, ptr %2, align 4, !dbg !1938
  call void @llvm.dbg.declare(metadata ptr %3, metadata !1939, metadata !DIExpression()), !dbg !1940
  store ptr %2, ptr %4, align 8, !dbg !1941
  call void @_ZNSt6threadC2IRFvPiEJS1_EvEEOT_DpOT0_(ptr noundef nonnull align 8 dereferenceable(8) %3, ptr noundef nonnull @_Z3funPi, ptr noundef nonnull align 8 dereferenceable(8) %4), !dbg !1940
  call void @_ZNSt6thread4joinEv(ptr noundef nonnull align 8 dereferenceable(8) %3), !dbg !1942
  store i32 0, ptr %1, align 4, !dbg !1943
  call void @_ZNSt6threadD2Ev(ptr noundef nonnull align 8 dereferenceable(8) %3) #3, !dbg !1944
  %7 = load i32, ptr %1, align 4, !dbg !1944
  ret i32 %7, !dbg !1944
}

; Function Attrs: noinline uwtable
define linkonce_odr dso_local void @_ZNSt6threadC2IRFvPiEJS1_EvEEOT_DpOT0_(ptr noundef nonnull align 8 dereferenceable(8) %0, ptr noundef nonnull %1, ptr noundef nonnull align 8 dereferenceable(8) %2) unnamed_addr #0 comdat align 2 personality ptr @__gxx_personality_v0 !dbg !1945 {
  %4 = alloca ptr, align 8
  %5 = alloca ptr, align 8
  %6 = alloca ptr, align 8
  %7 = alloca ptr, align 8
  %8 = alloca %"class.std::unique_ptr", align 8
  %9 = alloca %"struct.std::thread::_Invoker", align 8
  %10 = alloca ptr, align 8
  %11 = alloca i32, align 4
  store ptr %0, ptr %4, align 8
  call void @llvm.dbg.declare(metadata ptr %4, metadata !1950, metadata !DIExpression()), !dbg !1951
  store ptr %1, ptr %5, align 8
  call void @llvm.dbg.declare(metadata ptr %5, metadata !1952, metadata !DIExpression()), !dbg !1953
  store ptr %2, ptr %6, align 8
  call void @llvm.dbg.declare(metadata ptr %6, metadata !1954, metadata !DIExpression()), !dbg !1955
  %12 = load ptr, ptr %4, align 8
  %13 = getelementptr inbounds %"class.std::thread", ptr %12, i32 0, i32 0, !dbg !1956
  call void @_ZNSt6thread2idC2Ev(ptr noundef nonnull align 8 dereferenceable(8) %13) #3, !dbg !1956
  call void @llvm.dbg.declare(metadata ptr %7, metadata !1957, metadata !DIExpression()), !dbg !1959
  store ptr @pthread_create, ptr %7, align 8, !dbg !1959
  %14 = load ptr, ptr %5, align 8, !dbg !1960
  %15 = load ptr, ptr %6, align 8, !dbg !1961
  call void @_ZNSt6thread14__make_invokerIRFvPiEJS1_EEENS_8_InvokerISt5tupleIJNSt5decayIT_E4typeEDpNS6_IT0_E4typeEEEEEOS7_DpOSA_(ptr sret(%"struct.std::thread::_Invoker") align 8 %9, ptr noundef nonnull %14, ptr noundef nonnull align 8 dereferenceable(8) %15), !dbg !1962
  call void @_ZNSt6thread13_S_make_stateINS_8_InvokerISt5tupleIJPFvPiES3_EEEEEESt10unique_ptrINS_6_StateESt14default_deleteIS9_EEOT_(ptr sret(%"class.std::unique_ptr") align 8 %8, ptr noundef nonnull align 8 dereferenceable(16) %9), !dbg !1963
  %16 = load ptr, ptr %7, align 8, !dbg !1964
  call void @_ZNSt6thread15_M_start_threadESt10unique_ptrINS_6_StateESt14default_deleteIS1_EEPFvvE(ptr noundef nonnull align 8 dereferenceable(8) %12, ptr noundef %8, ptr noundef %16), !dbg !1965
  call void @_ZNSt10unique_ptrINSt6thread6_StateESt14default_deleteIS1_EED2Ev(ptr noundef nonnull align 8 dereferenceable(8) %8) #3, !dbg !1965
  ret void, !dbg !1966
}

; Function Attrs: mustprogress noinline nounwind uwtable
define linkonce_odr dso_local noundef zeroext i1 @_ZNKSt6thread8joinableEv(ptr noundef nonnull align 8 dereferenceable(8) %0) #8 comdat align 2 !dbg !1967 {
  %2 = alloca ptr, align 8
  %3 = alloca %"class.std::thread::id", align 8
  %4 = alloca %"class.std::thread::id", align 8
  store ptr %0, ptr %2, align 8
  call void @llvm.dbg.declare(metadata ptr %2, metadata !1968, metadata !DIExpression()), !dbg !1970
  %5 = load ptr, ptr %2, align 8
  %6 = getelementptr inbounds %"class.std::thread", ptr %5, i32 0, i32 0, !dbg !1971
  call void @llvm.memcpy.p0.p0.i64(ptr align 8 %3, ptr align 8 %6, i64 8, i1 false), !dbg !1971
  call void @_ZNSt6thread2idC2Ev(ptr noundef nonnull align 8 dereferenceable(8) %4) #3, !dbg !1972
  %7 = getelementptr inbounds %"class.std::thread::id", ptr %3, i32 0, i32 0, !dbg !1973
  %8 = load i64, ptr %7, align 8, !dbg !1973
  %9 = getelementptr inbounds %"class.std::thread::id", ptr %4, i32 0, i32 0, !dbg !1973
  %10 = load i64, ptr %9, align 8, !dbg !1973
  %11 = call noundef zeroext i1 @_ZSteqNSt6thread2idES0_(i64 %8, i64 %10) #3, !dbg !1973
  %12 = xor i1 %11, true, !dbg !1974
  ret i1 %12, !dbg !1975
}

; Function Attrs: noreturn nounwind
declare void @_ZSt9terminatev() #9

; Function Attrs: mustprogress noinline nounwind uwtable
define linkonce_odr dso_local noundef zeroext i1 @_ZSteqNSt6thread2idES0_(i64 %0, i64 %1) #8 comdat !dbg !1976 {
  %3 = alloca %"class.std::thread::id", align 8
  %4 = alloca %"class.std::thread::id", align 8
  %5 = getelementptr inbounds %"class.std::thread::id", ptr %3, i32 0, i32 0
  store i64 %0, ptr %5, align 8
  %6 = getelementptr inbounds %"class.std::thread::id", ptr %4, i32 0, i32 0
  store i64 %1, ptr %6, align 8
  call void @llvm.dbg.declare(metadata ptr %3, metadata !1979, metadata !DIExpression()), !dbg !1980
  call void @llvm.dbg.declare(metadata ptr %4, metadata !1981, metadata !DIExpression()), !dbg !1982
  %7 = getelementptr inbounds %"class.std::thread::id", ptr %3, i32 0, i32 0, !dbg !1983
  %8 = load i64, ptr %7, align 8, !dbg !1983
  %9 = getelementptr inbounds %"class.std::thread::id", ptr %4, i32 0, i32 0, !dbg !1984
  %10 = load i64, ptr %9, align 8, !dbg !1984
  %11 = icmp eq i64 %8, %10, !dbg !1985
  ret i1 %11, !dbg !1986
}

; Function Attrs: nocallback nofree nounwind willreturn memory(argmem: readwrite)
declare void @llvm.memcpy.p0.p0.i64(ptr noalias nocapture writeonly, ptr noalias nocapture readonly, i64, i1 immarg) #10

; Function Attrs: noinline nounwind uwtable
define linkonce_odr dso_local void @_ZNSt6thread2idC2Ev(ptr noundef nonnull align 8 dereferenceable(8) %0) unnamed_addr #6 comdat align 2 !dbg !1987 {
  %2 = alloca ptr, align 8
  store ptr %0, ptr %2, align 8
  call void @llvm.dbg.declare(metadata ptr %2, metadata !1988, metadata !DIExpression()), !dbg !1990
  %3 = load ptr, ptr %2, align 8
  %4 = getelementptr inbounds %"class.std::thread::id", ptr %3, i32 0, i32 0, !dbg !1991
  store i64 0, ptr %4, align 8, !dbg !1991
  ret void, !dbg !1992
}

; Function Attrs: nounwind
declare i32 @pthread_create(ptr noundef, ptr noundef, ptr noundef, ptr noundef) #2

declare void @_ZNSt6thread15_M_start_threadESt10unique_ptrINS_6_StateESt14default_deleteIS1_EEPFvvE(ptr noundef nonnull align 8 dereferenceable(8), ptr noundef, ptr noundef) #1

; Function Attrs: mustprogress noinline uwtable
define linkonce_odr dso_local void @_ZNSt6thread13_S_make_stateINS_8_InvokerISt5tupleIJPFvPiES3_EEEEEESt10unique_ptrINS_6_StateESt14default_deleteIS9_EEOT_(ptr noalias sret(%"class.std::unique_ptr") align 8 %0, ptr noundef nonnull align 8 dereferenceable(16) %1) #4 comdat align 2 personality ptr @__gxx_personality_v0 !dbg !1993 {
  %3 = alloca ptr, align 8
  %4 = alloca ptr, align 8
  %5 = alloca ptr, align 8
  %6 = alloca i32, align 4
  store ptr %0, ptr %3, align 8
  store ptr %1, ptr %4, align 8
  call void @llvm.dbg.declare(metadata ptr %4, metadata !2000, metadata !DIExpression()), !dbg !2001
  %7 = call noalias noundef nonnull ptr @_Znwm(i64 noundef 24) #15, !dbg !2002, !heapallocsite !2003
  %8 = load ptr, ptr %4, align 8, !dbg !2015
  call void @_ZNSt6thread11_State_implINS_8_InvokerISt5tupleIJPFvPiES3_EEEEEC2EOS7_(ptr noundef nonnull align 8 dereferenceable(24) %7, ptr noundef nonnull align 8 dereferenceable(16) %8), !dbg !2016
  call void @_ZNSt10unique_ptrINSt6thread6_StateESt14default_deleteIS1_EEC2IS3_vEEPS1_(ptr noundef nonnull align 8 dereferenceable(8) %0, ptr noundef %7) #3, !dbg !2017
  ret void, !dbg !2018
}

; Function Attrs: mustprogress noinline uwtable
define linkonce_odr dso_local void @_ZNSt6thread14__make_invokerIRFvPiEJRS1_EEENS_8_InvokerISt5tupleIJNSt5decayIT_E4typeEDpNS7_IT0_E4typeEEEEEOS8_DpOSB_(ptr noalias sret(%"struct.std::thread::_Invoker") align 8 %0, ptr noundef nonnull %1, ptr noundef nonnull align 8 dereferenceable(8) %2) #4 comdat align 2 !dbg !2019 {
  %4 = alloca ptr, align 8
  %5 = alloca ptr, align 8
  %6 = alloca ptr, align 8
  store ptr %0, ptr %4, align 8
  store ptr %1, ptr %5, align 8
  call void @llvm.dbg.declare(metadata ptr %5, metadata !2024, metadata !DIExpression()), !dbg !2025
  store ptr %2, ptr %6, align 8
  call void @llvm.dbg.declare(metadata ptr %6, metadata !2026, metadata !DIExpression()), !dbg !2027
  %7 = getelementptr inbounds %"struct.std::thread::_Invoker", ptr %0, i32 0, i32 0, !dbg !2028
  %8 = load ptr, ptr %5, align 8, !dbg !2029
  %9 = load ptr, ptr %6, align 8, !dbg !2030
  call void @_ZNSt5tupleIJPFvPiES0_EEC2IRS1_RS0_Lb1EEEOT_OT0_(ptr noundef nonnull align 8 dereferenceable(16) %7, ptr noundef nonnull %8, ptr noundef nonnull align 8 dereferenceable(8) %9), !dbg !2031
  ret void, !dbg !2032
}

; Function Attrs: noinline nounwind uwtable
define linkonce_odr dso_local void @_ZNSt10unique_ptrINSt6thread6_StateESt14default_deleteIS1_EED2Ev(ptr noundef nonnull align 8 dereferenceable(8) %0) unnamed_addr #6 comdat align 2 personality ptr @__gxx_personality_v0 !dbg !2033 {
  %2 = alloca ptr, align 8
  %3 = alloca ptr, align 8
  store ptr %0, ptr %2, align 8
  call void @llvm.dbg.declare(metadata ptr %2, metadata !2034, metadata !DIExpression()), !dbg !2036
  %4 = load ptr, ptr %2, align 8
  call void @llvm.dbg.declare(metadata ptr %3, metadata !2037, metadata !DIExpression()), !dbg !2039
  %5 = getelementptr inbounds %"class.std::unique_ptr", ptr %4, i32 0, i32 0, !dbg !2040
  %6 = call noundef nonnull align 8 dereferenceable(8) ptr @_ZNSt15__uniq_ptr_implINSt6thread6_StateESt14default_deleteIS1_EE6_M_ptrEv(ptr noundef nonnull align 8 dereferenceable(8) %5), !dbg !2041
  store ptr %6, ptr %3, align 8, !dbg !2039
  %7 = load ptr, ptr %3, align 8, !dbg !2042
  %8 = load ptr, ptr %7, align 8, !dbg !2042
  %9 = icmp ne ptr %8, null, !dbg !2044
  br i1 %9, label %10, label %14, !dbg !2045

10:                                               ; preds = %1
  %11 = call noundef nonnull align 1 dereferenceable(1) ptr @_ZNSt10unique_ptrINSt6thread6_StateESt14default_deleteIS1_EE11get_deleterEv(ptr noundef nonnull align 8 dereferenceable(8) %4) #3, !dbg !2046
  %12 = load ptr, ptr %3, align 8, !dbg !2047
  %13 = load ptr, ptr %12, align 8, !dbg !2048
  call void @_ZNKSt14default_deleteINSt6thread6_StateEEclEPS1_(ptr noundef nonnull align 1 dereferenceable(1) %11, ptr noundef %13), !dbg !2046
  br label %14, !dbg !2046

14:                                               ; preds = %10, %1
  %15 = load ptr, ptr %3, align 8, !dbg !2049
  store ptr null, ptr %15, align 8, !dbg !2050
  ret void, !dbg !2051
}

; Function Attrs: nobuiltin allocsize(0)
declare noundef nonnull ptr @_Znwm(i64 noundef) #11

; Function Attrs: noinline nounwind uwtable
define linkonce_odr dso_local void @_ZNSt6thread11_State_implINS_8_InvokerISt5tupleIJPFvPiES3_EEEEEC2EOS7_(ptr noundef nonnull align 8 dereferenceable(24) %0, ptr noundef nonnull align 8 dereferenceable(16) %1) unnamed_addr #6 comdat align 2 !dbg !2052 {
  %3 = alloca ptr, align 8
  %4 = alloca ptr, align 8
  store ptr %0, ptr %3, align 8
  call void @llvm.dbg.declare(metadata ptr %3, metadata !2053, metadata !DIExpression()), !dbg !2055
  store ptr %1, ptr %4, align 8
  call void @llvm.dbg.declare(metadata ptr %4, metadata !2056, metadata !DIExpression()), !dbg !2057
  %5 = load ptr, ptr %3, align 8
  call void @_ZNSt6thread6_StateC2Ev(ptr noundef nonnull align 8 dereferenceable(8) %5) #3, !dbg !2058
  store ptr getelementptr inbounds ({ [5 x ptr] }, ptr @_ZTVNSt6thread11_State_implINS_8_InvokerISt5tupleIJPFvPiES3_EEEEEE, i32 0, inrange i32 0, i32 2), ptr %5, align 8, !dbg !2059
  %6 = getelementptr inbounds %"struct.std::thread::_State_impl", ptr %5, i32 0, i32 1, !dbg !2060
  %7 = load ptr, ptr %4, align 8, !dbg !2061
  call void @_ZNSt6thread8_InvokerISt5tupleIJPFvPiES2_EEEC2EOS6_(ptr noundef nonnull align 8 dereferenceable(16) %6, ptr noundef nonnull align 8 dereferenceable(16) %7) #3, !dbg !2060
  ret void, !dbg !2062
}

; Function Attrs: nobuiltin nounwind
declare void @_ZdlPv(ptr noundef) #12

; Function Attrs: noinline nounwind uwtable
define linkonce_odr dso_local void @_ZNSt10unique_ptrINSt6thread6_StateESt14default_deleteIS1_EEC2IS3_vEEPS1_(ptr noundef nonnull align 8 dereferenceable(8) %0, ptr noundef %1) unnamed_addr #6 comdat align 2 personality ptr @__gxx_personality_v0 !dbg !2063 {
  %3 = alloca ptr, align 8
  %4 = alloca ptr, align 8
  store ptr %0, ptr %3, align 8
  call void @llvm.dbg.declare(metadata ptr %3, metadata !2067, metadata !DIExpression()), !dbg !2068
  store ptr %1, ptr %4, align 8
  call void @llvm.dbg.declare(metadata ptr %4, metadata !2069, metadata !DIExpression()), !dbg !2070
  %5 = load ptr, ptr %3, align 8
  %6 = getelementptr inbounds %"class.std::unique_ptr", ptr %5, i32 0, i32 0, !dbg !2071
  %7 = load ptr, ptr %4, align 8, !dbg !2072
  call void @_ZNSt15__uniq_ptr_implINSt6thread6_StateESt14default_deleteIS1_EEC2EPS1_(ptr noundef nonnull align 8 dereferenceable(8) %6, ptr noundef %7), !dbg !2071
  ret void, !dbg !2073
}

; Function Attrs: noinline nounwind uwtable
define linkonce_odr dso_local void @_ZNSt6thread6_StateC2Ev(ptr noundef nonnull align 8 dereferenceable(8) %0) unnamed_addr #6 comdat align 2 !dbg !2074 {
  %2 = alloca ptr, align 8
  store ptr %0, ptr %2, align 8
  call void @llvm.dbg.declare(metadata ptr %2, metadata !2079, metadata !DIExpression()), !dbg !2080
  %3 = load ptr, ptr %2, align 8
  store ptr getelementptr inbounds ({ [5 x ptr] }, ptr @_ZTVNSt6thread6_StateE, i32 0, inrange i32 0, i32 2), ptr %3, align 8, !dbg !2081
  ret void, !dbg !2081
}

; Function Attrs: noinline nounwind uwtable
define linkonce_odr dso_local void @_ZNSt6thread8_InvokerISt5tupleIJPFvPiES2_EEEC2EOS6_(ptr noundef nonnull align 8 dereferenceable(16) %0, ptr noundef nonnull align 8 dereferenceable(16) %1) unnamed_addr #6 comdat align 2 !dbg !2082 {
  %3 = alloca ptr, align 8
  %4 = alloca ptr, align 8
  store ptr %0, ptr %3, align 8
  call void @llvm.dbg.declare(metadata ptr %3, metadata !2086, metadata !DIExpression()), !dbg !2088
  store ptr %1, ptr %4, align 8
  call void @llvm.dbg.declare(metadata ptr %4, metadata !2089, metadata !DIExpression()), !dbg !2088
  %5 = load ptr, ptr %3, align 8
  %6 = getelementptr inbounds %"struct.std::thread::_Invoker", ptr %5, i32 0, i32 0, !dbg !2090
  %7 = load ptr, ptr %4, align 8, !dbg !2090
  %8 = getelementptr inbounds %"struct.std::thread::_Invoker", ptr %7, i32 0, i32 0, !dbg !2090
  call void @_ZNSt5tupleIJPFvPiES0_EEC2EOS3_(ptr noundef nonnull align 8 dereferenceable(16) %6, ptr noundef nonnull align 8 dereferenceable(16) %8) #3, !dbg !2090
  ret void, !dbg !2090
}

; Function Attrs: noinline nounwind uwtable
define linkonce_odr dso_local void @_ZNSt6thread11_State_implINS_8_InvokerISt5tupleIJPFvPiES3_EEEEED2Ev(ptr noundef nonnull align 8 dereferenceable(24) %0) unnamed_addr #6 comdat align 2 !dbg !2091 {
  %2 = alloca ptr, align 8
  store ptr %0, ptr %2, align 8
  call void @llvm.dbg.declare(metadata ptr %2, metadata !2093, metadata !DIExpression()), !dbg !2094
  %3 = load ptr, ptr %2, align 8
  call void @_ZNSt6thread6_StateD2Ev(ptr noundef nonnull align 8 dereferenceable(8) %3) #3, !dbg !2095
  ret void, !dbg !2097
}

; Function Attrs: noinline nounwind uwtable
define linkonce_odr dso_local void @_ZNSt6thread11_State_implINS_8_InvokerISt5tupleIJPFvPiES3_EEEEED0Ev(ptr noundef nonnull align 8 dereferenceable(24) %0) unnamed_addr #6 comdat align 2 !dbg !2098 {
  %2 = alloca ptr, align 8
  store ptr %0, ptr %2, align 8
  call void @llvm.dbg.declare(metadata ptr %2, metadata !2099, metadata !DIExpression()), !dbg !2100
  %3 = load ptr, ptr %2, align 8
  call void @_ZNSt6thread11_State_implINS_8_InvokerISt5tupleIJPFvPiES3_EEEEED2Ev(ptr noundef nonnull align 8 dereferenceable(24) %3) #3, !dbg !2101
  call void @_ZdlPv(ptr noundef %3) #16, !dbg !2101
  ret void, !dbg !2101
}

; Function Attrs: mustprogress noinline uwtable
define linkonce_odr dso_local void @_ZNSt6thread11_State_implINS_8_InvokerISt5tupleIJPFvPiES3_EEEEE6_M_runEv(ptr noundef nonnull align 8 dereferenceable(24) %0) unnamed_addr #4 comdat align 2 !dbg !2102 {
  %2 = alloca ptr, align 8
  store ptr %0, ptr %2, align 8
  call void @llvm.dbg.declare(metadata ptr %2, metadata !2103, metadata !DIExpression()), !dbg !2104
  %3 = load ptr, ptr %2, align 8
  %4 = getelementptr inbounds %"struct.std::thread::_State_impl", ptr %3, i32 0, i32 1, !dbg !2105
  call void @_ZNSt6thread8_InvokerISt5tupleIJPFvPiES2_EEEclEv(ptr noundef nonnull align 8 dereferenceable(16) %4), !dbg !2105
  ret void, !dbg !2106
}

; Function Attrs: noinline nounwind uwtable
define linkonce_odr dso_local void @_ZNSt5tupleIJPFvPiES0_EEC2EOS3_(ptr noundef nonnull align 8 dereferenceable(16) %0, ptr noundef nonnull align 8 dereferenceable(16) %1) unnamed_addr #6 comdat align 2 !dbg !2107 {
  %3 = alloca ptr, align 8
  %4 = alloca ptr, align 8
  store ptr %0, ptr %3, align 8
  call void @llvm.dbg.declare(metadata ptr %3, metadata !2108, metadata !DIExpression()), !dbg !2110
  store ptr %1, ptr %4, align 8
  call void @llvm.dbg.declare(metadata ptr %4, metadata !2111, metadata !DIExpression()), !dbg !2112
  %5 = load ptr, ptr %3, align 8
  %6 = load ptr, ptr %4, align 8, !dbg !2113
  call void @_ZNSt11_Tuple_implILm0EJPFvPiES0_EEC2EOS3_(ptr noundef nonnull align 8 dereferenceable(16) %5, ptr noundef nonnull align 8 dereferenceable(16) %6) #3, !dbg !2113
  ret void, !dbg !2114
}

; Function Attrs: noinline nounwind uwtable
define linkonce_odr dso_local void @_ZNSt11_Tuple_implILm0EJPFvPiES0_EEC2EOS3_(ptr noundef nonnull align 8 dereferenceable(16) %0, ptr noundef nonnull align 8 dereferenceable(16) %1) unnamed_addr #6 comdat align 2 personality ptr @__gxx_personality_v0 !dbg !2115 {
  %3 = alloca ptr, align 8
  %4 = alloca ptr, align 8
  store ptr %0, ptr %3, align 8
  call void @llvm.dbg.declare(metadata ptr %3, metadata !2116, metadata !DIExpression()), !dbg !2118
  store ptr %1, ptr %4, align 8
  call void @llvm.dbg.declare(metadata ptr %4, metadata !2119, metadata !DIExpression()), !dbg !2120
  %5 = load ptr, ptr %3, align 8
  %6 = load ptr, ptr %4, align 8, !dbg !2121
  %7 = call noundef nonnull align 8 dereferenceable(8) ptr @_ZNSt11_Tuple_implILm0EJPFvPiES0_EE7_M_tailERS3_(ptr noundef nonnull align 8 dereferenceable(16) %6) #3, !dbg !2122
  call void @_ZNSt11_Tuple_implILm1EJPiEEC2EOS1_(ptr noundef nonnull align 8 dereferenceable(8) %5, ptr noundef nonnull align 8 dereferenceable(8) %7) #3, !dbg !2123
  %8 = getelementptr inbounds i8, ptr %5, i64 8, !dbg !2124
  %9 = load ptr, ptr %4, align 8, !dbg !2125
  %10 = call noundef nonnull align 8 dereferenceable(8) ptr @_ZNSt11_Tuple_implILm0EJPFvPiES0_EE7_M_headERS3_(ptr noundef nonnull align 8 dereferenceable(16) %9) #3, !dbg !2126
  call void @_ZNSt10_Head_baseILm0EPFvPiELb0EEC2IS2_EEOT_(ptr noundef nonnull align 8 dereferenceable(8) %8, ptr noundef nonnull align 8 dereferenceable(8) %10), !dbg !2127
  ret void, !dbg !2128
}

; Function Attrs: mustprogress noinline nounwind uwtable
define linkonce_odr dso_local noundef nonnull align 8 dereferenceable(8) ptr @_ZNSt11_Tuple_implILm0EJPFvPiES0_EE7_M_tailERS3_(ptr noundef nonnull align 8 dereferenceable(16) %0) #8 comdat align 2 !dbg !2129 {
  %2 = alloca ptr, align 8
  store ptr %0, ptr %2, align 8
  call void @llvm.dbg.declare(metadata ptr %2, metadata !2130, metadata !DIExpression()), !dbg !2131
  %3 = load ptr, ptr %2, align 8, !dbg !2132
  ret ptr %3, !dbg !2133
}

; Function Attrs: noinline nounwind uwtable
define linkonce_odr dso_local void @_ZNSt11_Tuple_implILm1EJPiEEC2EOS1_(ptr noundef nonnull align 8 dereferenceable(8) %0, ptr noundef nonnull align 8 dereferenceable(8) %1) unnamed_addr #6 comdat align 2 personality ptr @__gxx_personality_v0 !dbg !2134 {
  %3 = alloca ptr, align 8
  %4 = alloca ptr, align 8
  store ptr %0, ptr %3, align 8
  call void @llvm.dbg.declare(metadata ptr %3, metadata !2135, metadata !DIExpression()), !dbg !2137
  store ptr %1, ptr %4, align 8
  call void @llvm.dbg.declare(metadata ptr %4, metadata !2138, metadata !DIExpression()), !dbg !2139
  %5 = load ptr, ptr %3, align 8
  %6 = load ptr, ptr %4, align 8, !dbg !2140
  %7 = call noundef nonnull align 8 dereferenceable(8) ptr @_ZNSt11_Tuple_implILm1EJPiEE7_M_headERS1_(ptr noundef nonnull align 8 dereferenceable(8) %6) #3, !dbg !2141
  call void @_ZNSt10_Head_baseILm1EPiLb0EEC2IS0_EEOT_(ptr noundef nonnull align 8 dereferenceable(8) %5, ptr noundef nonnull align 8 dereferenceable(8) %7), !dbg !2142
  ret void, !dbg !2143
}

; Function Attrs: mustprogress noinline nounwind uwtable
define linkonce_odr dso_local noundef nonnull align 8 dereferenceable(8) ptr @_ZNSt11_Tuple_implILm0EJPFvPiES0_EE7_M_headERS3_(ptr noundef nonnull align 8 dereferenceable(16) %0) #8 comdat align 2 !dbg !2144 {
  %2 = alloca ptr, align 8
  store ptr %0, ptr %2, align 8
  call void @llvm.dbg.declare(metadata ptr %2, metadata !2145, metadata !DIExpression()), !dbg !2146
  %3 = load ptr, ptr %2, align 8, !dbg !2147
  %4 = getelementptr inbounds i8, ptr %3, i64 8, !dbg !2147
  %5 = call noundef nonnull align 8 dereferenceable(8) ptr @_ZNSt10_Head_baseILm0EPFvPiELb0EE7_M_headERS3_(ptr noundef nonnull align 8 dereferenceable(8) %4) #3, !dbg !2148
  ret ptr %5, !dbg !2149
}

; Function Attrs: noinline nounwind uwtable
define linkonce_odr dso_local void @_ZNSt10_Head_baseILm0EPFvPiELb0EEC2IS2_EEOT_(ptr noundef nonnull align 8 dereferenceable(8) %0, ptr noundef nonnull align 8 dereferenceable(8) %1) unnamed_addr #6 comdat align 2 !dbg !2150 {
  %3 = alloca ptr, align 8
  %4 = alloca ptr, align 8
  store ptr %0, ptr %3, align 8
  call void @llvm.dbg.declare(metadata ptr %3, metadata !2156, metadata !DIExpression()), !dbg !2158
  store ptr %1, ptr %4, align 8
  call void @llvm.dbg.declare(metadata ptr %4, metadata !2159, metadata !DIExpression()), !dbg !2160
  %5 = load ptr, ptr %3, align 8
  %6 = getelementptr inbounds %"struct.std::_Head_base.6", ptr %5, i32 0, i32 0, !dbg !2161
  %7 = load ptr, ptr %4, align 8, !dbg !2162
  %8 = load ptr, ptr %7, align 8, !dbg !2163
  store ptr %8, ptr %6, align 8, !dbg !2161
  ret void, !dbg !2164
}

; Function Attrs: noinline noreturn nounwind uwtable
define linkonce_odr hidden void @__clang_call_terminate(ptr noundef %0) #13 comdat {
  %2 = call ptr @__cxa_begin_catch(ptr %0) #3
  call void @_ZSt9terminatev() #14
  unreachable
}

declare ptr @__cxa_begin_catch(ptr)

; Function Attrs: mustprogress noinline nounwind uwtable
define linkonce_odr dso_local noundef nonnull align 8 dereferenceable(8) ptr @_ZNSt11_Tuple_implILm1EJPiEE7_M_headERS1_(ptr noundef nonnull align 8 dereferenceable(8) %0) #8 comdat align 2 !dbg !2165 {
  %2 = alloca ptr, align 8
  store ptr %0, ptr %2, align 8
  call void @llvm.dbg.declare(metadata ptr %2, metadata !2166, metadata !DIExpression()), !dbg !2167
  %3 = load ptr, ptr %2, align 8, !dbg !2168
  %4 = call noundef nonnull align 8 dereferenceable(8) ptr @_ZNSt10_Head_baseILm1EPiLb0EE7_M_headERS1_(ptr noundef nonnull align 8 dereferenceable(8) %3) #3, !dbg !2169
  ret ptr %4, !dbg !2170
}

; Function Attrs: noinline nounwind uwtable
define linkonce_odr dso_local void @_ZNSt10_Head_baseILm1EPiLb0EEC2IS0_EEOT_(ptr noundef nonnull align 8 dereferenceable(8) %0, ptr noundef nonnull align 8 dereferenceable(8) %1) unnamed_addr #6 comdat align 2 !dbg !2171 {
  %3 = alloca ptr, align 8
  %4 = alloca ptr, align 8
  store ptr %0, ptr %3, align 8
  call void @llvm.dbg.declare(metadata ptr %3, metadata !2177, metadata !DIExpression()), !dbg !2179
  store ptr %1, ptr %4, align 8
  call void @llvm.dbg.declare(metadata ptr %4, metadata !2180, metadata !DIExpression()), !dbg !2181
  %5 = load ptr, ptr %3, align 8
  %6 = getelementptr inbounds %"struct.std::_Head_base.5", ptr %5, i32 0, i32 0, !dbg !2182
  %7 = load ptr, ptr %4, align 8, !dbg !2183
  %8 = load ptr, ptr %7, align 8, !dbg !2184
  store ptr %8, ptr %6, align 8, !dbg !2182
  ret void, !dbg !2185
}

; Function Attrs: mustprogress noinline nounwind uwtable
define linkonce_odr dso_local noundef nonnull align 8 dereferenceable(8) ptr @_ZNSt10_Head_baseILm1EPiLb0EE7_M_headERS1_(ptr noundef nonnull align 8 dereferenceable(8) %0) #8 comdat align 2 !dbg !2186 {
  %2 = alloca ptr, align 8
  store ptr %0, ptr %2, align 8
  call void @llvm.dbg.declare(metadata ptr %2, metadata !2187, metadata !DIExpression()), !dbg !2188
  %3 = load ptr, ptr %2, align 8, !dbg !2189
  %4 = getelementptr inbounds %"struct.std::_Head_base.5", ptr %3, i32 0, i32 0, !dbg !2190
  ret ptr %4, !dbg !2191
}

; Function Attrs: mustprogress noinline nounwind uwtable
define linkonce_odr dso_local noundef nonnull align 8 dereferenceable(8) ptr @_ZNSt10_Head_baseILm0EPFvPiELb0EE7_M_headERS3_(ptr noundef nonnull align 8 dereferenceable(8) %0) #8 comdat align 2 !dbg !2192 {
  %2 = alloca ptr, align 8
  store ptr %0, ptr %2, align 8
  call void @llvm.dbg.declare(metadata ptr %2, metadata !2193, metadata !DIExpression()), !dbg !2194
  %3 = load ptr, ptr %2, align 8, !dbg !2195
  %4 = getelementptr inbounds %"struct.std::_Head_base.6", ptr %3, i32 0, i32 0, !dbg !2196
  ret ptr %4, !dbg !2197
}

; Function Attrs: nounwind
declare void @_ZNSt6thread6_StateD2Ev(ptr noundef nonnull align 8 dereferenceable(8)) unnamed_addr #2

; Function Attrs: mustprogress noinline uwtable
define linkonce_odr dso_local void @_ZNSt6thread8_InvokerISt5tupleIJPFvPiES2_EEEclEv(ptr noundef nonnull align 8 dereferenceable(16) %0) #4 comdat align 2 !dbg !2198 {
  %2 = alloca ptr, align 8
  %3 = alloca %"struct.std::_Index_tuple", align 1
  store ptr %0, ptr %2, align 8
  call void @llvm.dbg.declare(metadata ptr %2, metadata !2199, metadata !DIExpression()), !dbg !2200
  %4 = load ptr, ptr %2, align 8
  call void @_ZNSt6thread8_InvokerISt5tupleIJPFvPiES2_EEE9_M_invokeIJLm0ELm1EEEEvSt12_Index_tupleIJXspT_EEE(ptr noundef nonnull align 8 dereferenceable(16) %4), !dbg !2201
  ret void, !dbg !2202
}

; Function Attrs: mustprogress noinline uwtable
define linkonce_odr dso_local void @_ZNSt6thread8_InvokerISt5tupleIJPFvPiES2_EEE9_M_invokeIJLm0ELm1EEEEvSt12_Index_tupleIJXspT_EEE(ptr noundef nonnull align 8 dereferenceable(16) %0) #4 comdat align 2 !dbg !2203 {
  %2 = alloca %"struct.std::_Index_tuple", align 1
  %3 = alloca ptr, align 8
  store ptr %0, ptr %3, align 8
  call void @llvm.dbg.declare(metadata ptr %3, metadata !2216, metadata !DIExpression()), !dbg !2217
  call void @llvm.dbg.declare(metadata ptr %2, metadata !2218, metadata !DIExpression()), !dbg !2219
  %4 = load ptr, ptr %3, align 8
  %5 = getelementptr inbounds %"struct.std::thread::_Invoker", ptr %4, i32 0, i32 0, !dbg !2220
  %6 = call noundef nonnull align 8 dereferenceable(8) ptr @_ZSt3getILm0EJPFvPiES0_EEONSt13tuple_elementIXT_ESt5tupleIJDpT0_EEE4typeEOS7_(ptr noundef nonnull align 8 dereferenceable(16) %5) #3, !dbg !2221
  %7 = getelementptr inbounds %"struct.std::thread::_Invoker", ptr %4, i32 0, i32 0, !dbg !2220
  %8 = call noundef nonnull align 8 dereferenceable(8) ptr @_ZSt3getILm1EJPFvPiES0_EEONSt13tuple_elementIXT_ESt5tupleIJDpT0_EEE4typeEOS7_(ptr noundef nonnull align 8 dereferenceable(16) %7) #3, !dbg !2221
  call void @_ZSt8__invokeIPFvPiEJS0_EENSt15__invoke_resultIT_JDpT0_EE4typeEOS4_DpOS5_(ptr noundef nonnull align 8 dereferenceable(8) %6, ptr noundef nonnull align 8 dereferenceable(8) %8), !dbg !2222
  ret void, !dbg !2223
}

; Function Attrs: mustprogress noinline uwtable
define linkonce_odr dso_local void @_ZSt8__invokeIPFvPiEJS0_EENSt15__invoke_resultIT_JDpT0_EE4typeEOS4_DpOS5_(ptr noundef nonnull align 8 dereferenceable(8) %0, ptr noundef nonnull align 8 dereferenceable(8) %1) #4 comdat !dbg !43 {
  %3 = alloca ptr, align 8
  %4 = alloca ptr, align 8
  %5 = alloca %"struct.std::__invoke_other", align 1
  store ptr %0, ptr %3, align 8
  call void @llvm.dbg.declare(metadata ptr %3, metadata !2224, metadata !DIExpression()), !dbg !2225
  store ptr %1, ptr %4, align 8
  call void @llvm.dbg.declare(metadata ptr %4, metadata !2226, metadata !DIExpression()), !dbg !2227
  %6 = load ptr, ptr %3, align 8, !dbg !2228
  %7 = load ptr, ptr %4, align 8, !dbg !2229
  call void @_ZSt13__invoke_implIvPFvPiEJS0_EET_St14__invoke_otherOT0_DpOT1_(ptr noundef nonnull align 8 dereferenceable(8) %6, ptr noundef nonnull align 8 dereferenceable(8) %7), !dbg !2230
  ret void, !dbg !2231
}

; Function Attrs: mustprogress noinline nounwind uwtable
define linkonce_odr dso_local noundef nonnull align 8 dereferenceable(8) ptr @_ZSt3getILm0EJPFvPiES0_EEONSt13tuple_elementIXT_ESt5tupleIJDpT0_EEE4typeEOS7_(ptr noundef nonnull align 8 dereferenceable(16) %0) #8 comdat !dbg !2232 {
  %2 = alloca ptr, align 8
  store ptr %0, ptr %2, align 8
  call void @llvm.dbg.declare(metadata ptr %2, metadata !2244, metadata !DIExpression()), !dbg !2245
  %3 = load ptr, ptr %2, align 8, !dbg !2246
  %4 = call noundef nonnull align 8 dereferenceable(8) ptr @_ZSt3getILm0EJPFvPiES0_EERNSt13tuple_elementIXT_ESt5tupleIJDpT0_EEE4typeERS7_(ptr noundef nonnull align 8 dereferenceable(16) %3) #3, !dbg !2247
  ret ptr %4, !dbg !2248
}

; Function Attrs: mustprogress noinline nounwind uwtable
define linkonce_odr dso_local noundef nonnull align 8 dereferenceable(8) ptr @_ZSt3getILm1EJPFvPiES0_EEONSt13tuple_elementIXT_ESt5tupleIJDpT0_EEE4typeEOS7_(ptr noundef nonnull align 8 dereferenceable(16) %0) #8 comdat !dbg !2249 {
  %2 = alloca ptr, align 8
  store ptr %0, ptr %2, align 8
  call void @llvm.dbg.declare(metadata ptr %2, metadata !2261, metadata !DIExpression()), !dbg !2262
  %3 = load ptr, ptr %2, align 8, !dbg !2263
  %4 = call noundef nonnull align 8 dereferenceable(8) ptr @_ZSt3getILm1EJPFvPiES0_EERNSt13tuple_elementIXT_ESt5tupleIJDpT0_EEE4typeERS7_(ptr noundef nonnull align 8 dereferenceable(16) %3) #3, !dbg !2264
  ret ptr %4, !dbg !2265
}

; Function Attrs: mustprogress noinline uwtable
define linkonce_odr dso_local void @_ZSt13__invoke_implIvPFvPiEJS0_EET_St14__invoke_otherOT0_DpOT1_(ptr noundef nonnull align 8 dereferenceable(8) %0, ptr noundef nonnull align 8 dereferenceable(8) %1) #4 comdat !dbg !2266 {
  %3 = alloca %"struct.std::__invoke_other", align 1
  %4 = alloca ptr, align 8
  %5 = alloca ptr, align 8
  call void @llvm.dbg.declare(metadata ptr %3, metadata !2272, metadata !DIExpression()), !dbg !2273
  store ptr %0, ptr %4, align 8
  call void @llvm.dbg.declare(metadata ptr %4, metadata !2274, metadata !DIExpression()), !dbg !2275
  store ptr %1, ptr %5, align 8
  call void @llvm.dbg.declare(metadata ptr %5, metadata !2276, metadata !DIExpression()), !dbg !2277
  %6 = load ptr, ptr %4, align 8, !dbg !2278
  %7 = load ptr, ptr %6, align 8, !dbg !2279
  %8 = load ptr, ptr %5, align 8, !dbg !2280
  %9 = load ptr, ptr %8, align 8, !dbg !2281
  call void %7(ptr noundef %9), !dbg !2279
  ret void, !dbg !2282
}

; Function Attrs: mustprogress noinline nounwind uwtable
define linkonce_odr dso_local noundef nonnull align 8 dereferenceable(8) ptr @_ZSt3getILm0EJPFvPiES0_EERNSt13tuple_elementIXT_ESt5tupleIJDpT0_EEE4typeERS7_(ptr noundef nonnull align 8 dereferenceable(16) %0) #8 comdat !dbg !2283 {
  %2 = alloca ptr, align 8
  store ptr %0, ptr %2, align 8
  call void @llvm.dbg.declare(metadata ptr %2, metadata !2287, metadata !DIExpression()), !dbg !2288
  %3 = load ptr, ptr %2, align 8, !dbg !2289
  %4 = call noundef nonnull align 8 dereferenceable(8) ptr @_ZSt12__get_helperILm0EPFvPiEJS0_EERT0_RSt11_Tuple_implIXT_EJS3_DpT1_EE(ptr noundef nonnull align 8 dereferenceable(16) %3) #3, !dbg !2290
  ret ptr %4, !dbg !2291
}

; Function Attrs: mustprogress noinline nounwind uwtable
define linkonce_odr dso_local noundef nonnull align 8 dereferenceable(8) ptr @_ZSt12__get_helperILm0EPFvPiEJS0_EERT0_RSt11_Tuple_implIXT_EJS3_DpT1_EE(ptr noundef nonnull align 8 dereferenceable(16) %0) #8 comdat !dbg !2292 {
  %2 = alloca ptr, align 8
  store ptr %0, ptr %2, align 8
  call void @llvm.dbg.declare(metadata ptr %2, metadata !2295, metadata !DIExpression()), !dbg !2296
  %3 = load ptr, ptr %2, align 8, !dbg !2297
  %4 = call noundef nonnull align 8 dereferenceable(8) ptr @_ZNSt11_Tuple_implILm0EJPFvPiES0_EE7_M_headERS3_(ptr noundef nonnull align 8 dereferenceable(16) %3) #3, !dbg !2298
  ret ptr %4, !dbg !2299
}

; Function Attrs: mustprogress noinline nounwind uwtable
define linkonce_odr dso_local noundef nonnull align 8 dereferenceable(8) ptr @_ZSt3getILm1EJPFvPiES0_EERNSt13tuple_elementIXT_ESt5tupleIJDpT0_EEE4typeERS7_(ptr noundef nonnull align 8 dereferenceable(16) %0) #8 comdat !dbg !2300 {
  %2 = alloca ptr, align 8
  store ptr %0, ptr %2, align 8
  call void @llvm.dbg.declare(metadata ptr %2, metadata !2304, metadata !DIExpression()), !dbg !2305
  %3 = load ptr, ptr %2, align 8, !dbg !2306
  %4 = call noundef nonnull align 8 dereferenceable(8) ptr @_ZSt12__get_helperILm1EPiJEERT0_RSt11_Tuple_implIXT_EJS1_DpT1_EE(ptr noundef nonnull align 8 dereferenceable(8) %3) #3, !dbg !2307
  ret ptr %4, !dbg !2308
}

; Function Attrs: mustprogress noinline nounwind uwtable
define linkonce_odr dso_local noundef nonnull align 8 dereferenceable(8) ptr @_ZSt12__get_helperILm1EPiJEERT0_RSt11_Tuple_implIXT_EJS1_DpT1_EE(ptr noundef nonnull align 8 dereferenceable(8) %0) #8 comdat !dbg !2309 {
  %2 = alloca ptr, align 8
  store ptr %0, ptr %2, align 8
  call void @llvm.dbg.declare(metadata ptr %2, metadata !2312, metadata !DIExpression()), !dbg !2313
  %3 = load ptr, ptr %2, align 8, !dbg !2314
  %4 = call noundef nonnull align 8 dereferenceable(8) ptr @_ZNSt11_Tuple_implILm1EJPiEE7_M_headERS1_(ptr noundef nonnull align 8 dereferenceable(8) %3) #3, !dbg !2315
  ret ptr %4, !dbg !2316
}

; Function Attrs: noinline uwtable
define linkonce_odr dso_local void @_ZNSt15__uniq_ptr_implINSt6thread6_StateESt14default_deleteIS1_EEC2EPS1_(ptr noundef nonnull align 8 dereferenceable(8) %0, ptr noundef %1) unnamed_addr #0 comdat align 2 !dbg !2317 {
  %3 = alloca ptr, align 8
  %4 = alloca ptr, align 8
  store ptr %0, ptr %3, align 8
  call void @llvm.dbg.declare(metadata ptr %3, metadata !2318, metadata !DIExpression()), !dbg !2320
  store ptr %1, ptr %4, align 8
  call void @llvm.dbg.declare(metadata ptr %4, metadata !2321, metadata !DIExpression()), !dbg !2322
  %5 = load ptr, ptr %3, align 8
  %6 = getelementptr inbounds %"class.std::__uniq_ptr_impl", ptr %5, i32 0, i32 0, !dbg !2323
  call void @_ZNSt5tupleIJPNSt6thread6_StateESt14default_deleteIS1_EEEC2IS2_S4_Lb1EEEv(ptr noundef nonnull align 8 dereferenceable(8) %6), !dbg !2323
  %7 = load ptr, ptr %4, align 8, !dbg !2324
  %8 = call noundef nonnull align 8 dereferenceable(8) ptr @_ZNSt15__uniq_ptr_implINSt6thread6_StateESt14default_deleteIS1_EE6_M_ptrEv(ptr noundef nonnull align 8 dereferenceable(8) %5), !dbg !2326
  store ptr %7, ptr %8, align 8, !dbg !2327
  ret void, !dbg !2328
}

; Function Attrs: noinline uwtable
define linkonce_odr dso_local void @_ZNSt5tupleIJPNSt6thread6_StateESt14default_deleteIS1_EEEC2IS2_S4_Lb1EEEv(ptr noundef nonnull align 8 dereferenceable(8) %0) unnamed_addr #0 comdat align 2 !dbg !2329 {
  %2 = alloca ptr, align 8
  store ptr %0, ptr %2, align 8
  call void @llvm.dbg.declare(metadata ptr %2, metadata !2337, metadata !DIExpression()), !dbg !2339
  %3 = load ptr, ptr %2, align 8
  call void @_ZNSt11_Tuple_implILm0EJPNSt6thread6_StateESt14default_deleteIS1_EEEC2Ev(ptr noundef nonnull align 8 dereferenceable(8) %3), !dbg !2340
  ret void, !dbg !2341
}

; Function Attrs: mustprogress noinline nounwind uwtable
define linkonce_odr dso_local noundef nonnull align 8 dereferenceable(8) ptr @_ZNSt15__uniq_ptr_implINSt6thread6_StateESt14default_deleteIS1_EE6_M_ptrEv(ptr noundef nonnull align 8 dereferenceable(8) %0) #8 comdat align 2 !dbg !2342 {
  %2 = alloca ptr, align 8
  store ptr %0, ptr %2, align 8
  call void @llvm.dbg.declare(metadata ptr %2, metadata !2343, metadata !DIExpression()), !dbg !2344
  %3 = load ptr, ptr %2, align 8
  %4 = getelementptr inbounds %"class.std::__uniq_ptr_impl", ptr %3, i32 0, i32 0, !dbg !2345
  %5 = call noundef nonnull align 8 dereferenceable(8) ptr @_ZSt3getILm0EJPNSt6thread6_StateESt14default_deleteIS1_EEERNSt13tuple_elementIXT_ESt5tupleIJDpT0_EEE4typeERS9_(ptr noundef nonnull align 8 dereferenceable(8) %4) #3, !dbg !2346
  ret ptr %5, !dbg !2347
}

; Function Attrs: noinline uwtable
define linkonce_odr dso_local void @_ZNSt11_Tuple_implILm0EJPNSt6thread6_StateESt14default_deleteIS1_EEEC2Ev(ptr noundef nonnull align 8 dereferenceable(8) %0) unnamed_addr #0 comdat align 2 !dbg !2348 {
  %2 = alloca ptr, align 8
  store ptr %0, ptr %2, align 8
  call void @llvm.dbg.declare(metadata ptr %2, metadata !2349, metadata !DIExpression()), !dbg !2351
  %3 = load ptr, ptr %2, align 8
  call void @_ZNSt11_Tuple_implILm1EJSt14default_deleteINSt6thread6_StateEEEEC2Ev(ptr noundef nonnull align 1 dereferenceable(1) %3), !dbg !2352
  call void @_ZNSt10_Head_baseILm0EPNSt6thread6_StateELb0EEC2Ev(ptr noundef nonnull align 8 dereferenceable(8) %3), !dbg !2353
  ret void, !dbg !2354
}

; Function Attrs: noinline uwtable
define linkonce_odr dso_local void @_ZNSt11_Tuple_implILm1EJSt14default_deleteINSt6thread6_StateEEEEC2Ev(ptr noundef nonnull align 1 dereferenceable(1) %0) unnamed_addr #0 comdat align 2 !dbg !2355 {
  %2 = alloca ptr, align 8
  store ptr %0, ptr %2, align 8
  call void @llvm.dbg.declare(metadata ptr %2, metadata !2356, metadata !DIExpression()), !dbg !2358
  %3 = load ptr, ptr %2, align 8
  call void @_ZNSt10_Head_baseILm1ESt14default_deleteINSt6thread6_StateEELb1EEC2Ev(ptr noundef nonnull align 1 dereferenceable(1) %3), !dbg !2359
  ret void, !dbg !2360
}

; Function Attrs: noinline nounwind uwtable
define linkonce_odr dso_local void @_ZNSt10_Head_baseILm0EPNSt6thread6_StateELb0EEC2Ev(ptr noundef nonnull align 8 dereferenceable(8) %0) unnamed_addr #6 comdat align 2 !dbg !2361 {
  %2 = alloca ptr, align 8
  store ptr %0, ptr %2, align 8
  call void @llvm.dbg.declare(metadata ptr %2, metadata !2362, metadata !DIExpression()), !dbg !2364
  %3 = load ptr, ptr %2, align 8
  %4 = getelementptr inbounds %"struct.std::_Head_base.1", ptr %3, i32 0, i32 0, !dbg !2365
  store ptr null, ptr %4, align 8, !dbg !2365
  ret void, !dbg !2366
}

; Function Attrs: noinline nounwind uwtable
define linkonce_odr dso_local void @_ZNSt10_Head_baseILm1ESt14default_deleteINSt6thread6_StateEELb1EEC2Ev(ptr noundef nonnull align 1 dereferenceable(1) %0) unnamed_addr #6 comdat align 2 !dbg !2367 {
  %2 = alloca ptr, align 8
  store ptr %0, ptr %2, align 8
  call void @llvm.dbg.declare(metadata ptr %2, metadata !2368, metadata !DIExpression()), !dbg !2370
  %3 = load ptr, ptr %2, align 8
  ret void, !dbg !2371
}

; Function Attrs: mustprogress noinline nounwind uwtable
define linkonce_odr dso_local noundef nonnull align 8 dereferenceable(8) ptr @_ZSt3getILm0EJPNSt6thread6_StateESt14default_deleteIS1_EEERNSt13tuple_elementIXT_ESt5tupleIJDpT0_EEE4typeERS9_(ptr noundef nonnull align 8 dereferenceable(8) %0) #8 comdat !dbg !2372 {
  %2 = alloca ptr, align 8
  store ptr %0, ptr %2, align 8
  call void @llvm.dbg.declare(metadata ptr %2, metadata !2382, metadata !DIExpression()), !dbg !2383
  %3 = load ptr, ptr %2, align 8, !dbg !2384
  %4 = call noundef nonnull align 8 dereferenceable(8) ptr @_ZSt12__get_helperILm0EPNSt6thread6_StateEJSt14default_deleteIS1_EEERT0_RSt11_Tuple_implIXT_EJS5_DpT1_EE(ptr noundef nonnull align 8 dereferenceable(8) %3) #3, !dbg !2385
  ret ptr %4, !dbg !2386
}

; Function Attrs: mustprogress noinline nounwind uwtable
define linkonce_odr dso_local noundef nonnull align 8 dereferenceable(8) ptr @_ZSt12__get_helperILm0EPNSt6thread6_StateEJSt14default_deleteIS1_EEERT0_RSt11_Tuple_implIXT_EJS5_DpT1_EE(ptr noundef nonnull align 8 dereferenceable(8) %0) #8 comdat !dbg !2387 {
  %2 = alloca ptr, align 8
  store ptr %0, ptr %2, align 8
  call void @llvm.dbg.declare(metadata ptr %2, metadata !2390, metadata !DIExpression()), !dbg !2391
  %3 = load ptr, ptr %2, align 8, !dbg !2392
  %4 = call noundef nonnull align 8 dereferenceable(8) ptr @_ZNSt11_Tuple_implILm0EJPNSt6thread6_StateESt14default_deleteIS1_EEE7_M_headERS5_(ptr noundef nonnull align 8 dereferenceable(8) %3) #3, !dbg !2393
  ret ptr %4, !dbg !2394
}

; Function Attrs: mustprogress noinline nounwind uwtable
define linkonce_odr dso_local noundef nonnull align 8 dereferenceable(8) ptr @_ZNSt11_Tuple_implILm0EJPNSt6thread6_StateESt14default_deleteIS1_EEE7_M_headERS5_(ptr noundef nonnull align 8 dereferenceable(8) %0) #8 comdat align 2 !dbg !2395 {
  %2 = alloca ptr, align 8
  store ptr %0, ptr %2, align 8
  call void @llvm.dbg.declare(metadata ptr %2, metadata !2396, metadata !DIExpression()), !dbg !2397
  %3 = load ptr, ptr %2, align 8, !dbg !2398
  %4 = call noundef nonnull align 8 dereferenceable(8) ptr @_ZNSt10_Head_baseILm0EPNSt6thread6_StateELb0EE7_M_headERS3_(ptr noundef nonnull align 8 dereferenceable(8) %3) #3, !dbg !2399
  ret ptr %4, !dbg !2400
}

; Function Attrs: mustprogress noinline nounwind uwtable
define linkonce_odr dso_local noundef nonnull align 8 dereferenceable(8) ptr @_ZNSt10_Head_baseILm0EPNSt6thread6_StateELb0EE7_M_headERS3_(ptr noundef nonnull align 8 dereferenceable(8) %0) #8 comdat align 2 !dbg !2401 {
  %2 = alloca ptr, align 8
  store ptr %0, ptr %2, align 8
  call void @llvm.dbg.declare(metadata ptr %2, metadata !2402, metadata !DIExpression()), !dbg !2403
  %3 = load ptr, ptr %2, align 8, !dbg !2404
  %4 = getelementptr inbounds %"struct.std::_Head_base.1", ptr %3, i32 0, i32 0, !dbg !2405
  ret ptr %4, !dbg !2406
}

; Function Attrs: noinline uwtable
define linkonce_odr dso_local void @_ZNSt5tupleIJPFvPiES0_EEC2IRS1_RS0_Lb1EEEOT_OT0_(ptr noundef nonnull align 8 dereferenceable(16) %0, ptr noundef nonnull %1, ptr noundef nonnull align 8 dereferenceable(8) %2) unnamed_addr #0 comdat align 2 !dbg !2407 {
  %4 = alloca ptr, align 8
  %5 = alloca ptr, align 8
  %6 = alloca ptr, align 8
  store ptr %0, ptr %4, align 8
  call void @llvm.dbg.declare(metadata ptr %4, metadata !2414, metadata !DIExpression()), !dbg !2415
  store ptr %1, ptr %5, align 8
  call void @llvm.dbg.declare(metadata ptr %5, metadata !2416, metadata !DIExpression()), !dbg !2417
  store ptr %2, ptr %6, align 8
  call void @llvm.dbg.declare(metadata ptr %6, metadata !2418, metadata !DIExpression()), !dbg !2419
  %7 = load ptr, ptr %4, align 8
  %8 = load ptr, ptr %5, align 8, !dbg !2420
  %9 = load ptr, ptr %6, align 8, !dbg !2421
  call void @_ZNSt11_Tuple_implILm0EJPFvPiES0_EEC2IRS1_JRS0_EvEEOT_DpOT0_(ptr noundef nonnull align 8 dereferenceable(16) %7, ptr noundef nonnull %8, ptr noundef nonnull align 8 dereferenceable(8) %9), !dbg !2422
  ret void, !dbg !2423
}

; Function Attrs: noinline uwtable
define linkonce_odr dso_local void @_ZNSt11_Tuple_implILm0EJPFvPiES0_EEC2IRS1_JRS0_EvEEOT_DpOT0_(ptr noundef nonnull align 8 dereferenceable(16) %0, ptr noundef nonnull %1, ptr noundef nonnull align 8 dereferenceable(8) %2) unnamed_addr #0 comdat align 2 !dbg !2424 {
  %4 = alloca ptr, align 8
  %5 = alloca ptr, align 8
  %6 = alloca ptr, align 8
  %7 = alloca ptr, align 8
  store ptr %0, ptr %4, align 8
  call void @llvm.dbg.declare(metadata ptr %4, metadata !2431, metadata !DIExpression()), !dbg !2432
  store ptr %1, ptr %5, align 8
  call void @llvm.dbg.declare(metadata ptr %5, metadata !2433, metadata !DIExpression()), !dbg !2434
  store ptr %2, ptr %6, align 8
  call void @llvm.dbg.declare(metadata ptr %6, metadata !2435, metadata !DIExpression()), !dbg !2436
  %8 = load ptr, ptr %4, align 8
  %9 = load ptr, ptr %6, align 8, !dbg !2437
  call void @_ZNSt11_Tuple_implILm1EJPiEEC2IRS0_EEOT_(ptr noundef nonnull align 8 dereferenceable(8) %8, ptr noundef nonnull align 8 dereferenceable(8) %9), !dbg !2438
  %10 = getelementptr inbounds i8, ptr %8, i64 8, !dbg !2439
  %11 = load ptr, ptr %5, align 8, !dbg !2440
  store ptr %11, ptr %7, align 8, !dbg !2441
  call void @_ZNSt10_Head_baseILm0EPFvPiELb0EEC2ERKS2_(ptr noundef nonnull align 8 dereferenceable(8) %10, ptr noundef nonnull align 8 dereferenceable(8) %7), !dbg !2442
  ret void, !dbg !2443
}

; Function Attrs: noinline uwtable
define linkonce_odr dso_local void @_ZNSt11_Tuple_implILm1EJPiEEC2IRS0_EEOT_(ptr noundef nonnull align 8 dereferenceable(8) %0, ptr noundef nonnull align 8 dereferenceable(8) %1) unnamed_addr #0 comdat align 2 !dbg !2444 {
  %3 = alloca ptr, align 8
  %4 = alloca ptr, align 8
  store ptr %0, ptr %3, align 8
  call void @llvm.dbg.declare(metadata ptr %3, metadata !2450, metadata !DIExpression()), !dbg !2451
  store ptr %1, ptr %4, align 8
  call void @llvm.dbg.declare(metadata ptr %4, metadata !2452, metadata !DIExpression()), !dbg !2453
  %5 = load ptr, ptr %3, align 8
  %6 = load ptr, ptr %4, align 8, !dbg !2454
  call void @_ZNSt10_Head_baseILm1EPiLb0EEC2IRS0_EEOT_(ptr noundef nonnull align 8 dereferenceable(8) %5, ptr noundef nonnull align 8 dereferenceable(8) %6), !dbg !2455
  ret void, !dbg !2456
}

; Function Attrs: noinline nounwind uwtable
define linkonce_odr dso_local void @_ZNSt10_Head_baseILm0EPFvPiELb0EEC2ERKS2_(ptr noundef nonnull align 8 dereferenceable(8) %0, ptr noundef nonnull align 8 dereferenceable(8) %1) unnamed_addr #6 comdat align 2 !dbg !2457 {
  %3 = alloca ptr, align 8
  %4 = alloca ptr, align 8
  store ptr %0, ptr %3, align 8
  call void @llvm.dbg.declare(metadata ptr %3, metadata !2458, metadata !DIExpression()), !dbg !2459
  store ptr %1, ptr %4, align 8
  call void @llvm.dbg.declare(metadata ptr %4, metadata !2460, metadata !DIExpression()), !dbg !2461
  %5 = load ptr, ptr %3, align 8
  %6 = getelementptr inbounds %"struct.std::_Head_base.6", ptr %5, i32 0, i32 0, !dbg !2462
  %7 = load ptr, ptr %4, align 8, !dbg !2463
  %8 = load ptr, ptr %7, align 8, !dbg !2463
  store ptr %8, ptr %6, align 8, !dbg !2462
  ret void, !dbg !2464
}

; Function Attrs: noinline nounwind uwtable
define linkonce_odr dso_local void @_ZNSt10_Head_baseILm1EPiLb0EEC2IRS0_EEOT_(ptr noundef nonnull align 8 dereferenceable(8) %0, ptr noundef nonnull align 8 dereferenceable(8) %1) unnamed_addr #6 comdat align 2 !dbg !2465 {
  %3 = alloca ptr, align 8
  %4 = alloca ptr, align 8
  store ptr %0, ptr %3, align 8
  call void @llvm.dbg.declare(metadata ptr %3, metadata !2469, metadata !DIExpression()), !dbg !2470
  store ptr %1, ptr %4, align 8
  call void @llvm.dbg.declare(metadata ptr %4, metadata !2471, metadata !DIExpression()), !dbg !2472
  %5 = load ptr, ptr %3, align 8
  %6 = getelementptr inbounds %"struct.std::_Head_base.5", ptr %5, i32 0, i32 0, !dbg !2473
  %7 = load ptr, ptr %4, align 8, !dbg !2474
  %8 = load ptr, ptr %7, align 8, !dbg !2475
  store ptr %8, ptr %6, align 8, !dbg !2473
  ret void, !dbg !2476
}

; Function Attrs: mustprogress noinline nounwind uwtable
define linkonce_odr dso_local noundef nonnull align 1 dereferenceable(1) ptr @_ZNSt10unique_ptrINSt6thread6_StateESt14default_deleteIS1_EE11get_deleterEv(ptr noundef nonnull align 8 dereferenceable(8) %0) #8 comdat align 2 personality ptr @__gxx_personality_v0 !dbg !2477 {
  %2 = alloca ptr, align 8
  store ptr %0, ptr %2, align 8
  call void @llvm.dbg.declare(metadata ptr %2, metadata !2478, metadata !DIExpression()), !dbg !2479
  %3 = load ptr, ptr %2, align 8
  %4 = getelementptr inbounds %"class.std::unique_ptr", ptr %3, i32 0, i32 0, !dbg !2480
  %5 = call noundef nonnull align 1 dereferenceable(1) ptr @_ZNSt15__uniq_ptr_implINSt6thread6_StateESt14default_deleteIS1_EE10_M_deleterEv(ptr noundef nonnull align 8 dereferenceable(8) %4), !dbg !2481
  ret ptr %5, !dbg !2482
}

; Function Attrs: mustprogress noinline nounwind uwtable
define linkonce_odr dso_local void @_ZNKSt14default_deleteINSt6thread6_StateEEclEPS1_(ptr noundef nonnull align 1 dereferenceable(1) %0, ptr noundef %1) #8 comdat align 2 !dbg !2483 {
  %3 = alloca ptr, align 8
  %4 = alloca ptr, align 8
  store ptr %0, ptr %3, align 8
  call void @llvm.dbg.declare(metadata ptr %3, metadata !2484, metadata !DIExpression()), !dbg !2486
  store ptr %1, ptr %4, align 8
  call void @llvm.dbg.declare(metadata ptr %4, metadata !2487, metadata !DIExpression()), !dbg !2488
  %5 = load ptr, ptr %3, align 8
  %6 = load ptr, ptr %4, align 8, !dbg !2489
  %7 = icmp eq ptr %6, null, !dbg !2490
  br i1 %7, label %12, label %8, !dbg !2490

8:                                                ; preds = %2
  %9 = load ptr, ptr %6, align 8, !dbg !2490
  %10 = getelementptr inbounds ptr, ptr %9, i64 1, !dbg !2490
  %11 = load ptr, ptr %10, align 8, !dbg !2490
  call void %11(ptr noundef nonnull align 8 dereferenceable(8) %6) #3, !dbg !2490
  br label %12, !dbg !2490

12:                                               ; preds = %8, %2
  ret void, !dbg !2491
}

; Function Attrs: mustprogress noinline nounwind uwtable
define linkonce_odr dso_local noundef nonnull align 1 dereferenceable(1) ptr @_ZNSt15__uniq_ptr_implINSt6thread6_StateESt14default_deleteIS1_EE10_M_deleterEv(ptr noundef nonnull align 8 dereferenceable(8) %0) #8 comdat align 2 !dbg !2492 {
  %2 = alloca ptr, align 8
  store ptr %0, ptr %2, align 8
  call void @llvm.dbg.declare(metadata ptr %2, metadata !2493, metadata !DIExpression()), !dbg !2494
  %3 = load ptr, ptr %2, align 8
  %4 = getelementptr inbounds %"class.std::__uniq_ptr_impl", ptr %3, i32 0, i32 0, !dbg !2495
  %5 = call noundef nonnull align 1 dereferenceable(1) ptr @_ZSt3getILm1EJPNSt6thread6_StateESt14default_deleteIS1_EEERNSt13tuple_elementIXT_ESt5tupleIJDpT0_EEE4typeERS9_(ptr noundef nonnull align 8 dereferenceable(8) %4) #3, !dbg !2496
  ret ptr %5, !dbg !2497
}

; Function Attrs: mustprogress noinline nounwind uwtable
define linkonce_odr dso_local noundef nonnull align 1 dereferenceable(1) ptr @_ZSt3getILm1EJPNSt6thread6_StateESt14default_deleteIS1_EEERNSt13tuple_elementIXT_ESt5tupleIJDpT0_EEE4typeERS9_(ptr noundef nonnull align 8 dereferenceable(8) %0) #8 comdat !dbg !2498 {
  %2 = alloca ptr, align 8
  store ptr %0, ptr %2, align 8
  call void @llvm.dbg.declare(metadata ptr %2, metadata !2509, metadata !DIExpression()), !dbg !2510
  %3 = load ptr, ptr %2, align 8, !dbg !2511
  %4 = call noundef nonnull align 1 dereferenceable(1) ptr @_ZSt12__get_helperILm1ESt14default_deleteINSt6thread6_StateEEJEERT0_RSt11_Tuple_implIXT_EJS4_DpT1_EE(ptr noundef nonnull align 1 dereferenceable(1) %3) #3, !dbg !2512
  ret ptr %4, !dbg !2513
}

; Function Attrs: mustprogress noinline nounwind uwtable
define linkonce_odr dso_local noundef nonnull align 1 dereferenceable(1) ptr @_ZSt12__get_helperILm1ESt14default_deleteINSt6thread6_StateEEJEERT0_RSt11_Tuple_implIXT_EJS4_DpT1_EE(ptr noundef nonnull align 1 dereferenceable(1) %0) #8 comdat !dbg !2514 {
  %2 = alloca ptr, align 8
  store ptr %0, ptr %2, align 8
  call void @llvm.dbg.declare(metadata ptr %2, metadata !2516, metadata !DIExpression()), !dbg !2517
  %3 = load ptr, ptr %2, align 8, !dbg !2518
  %4 = call noundef nonnull align 1 dereferenceable(1) ptr @_ZNSt11_Tuple_implILm1EJSt14default_deleteINSt6thread6_StateEEEE7_M_headERS4_(ptr noundef nonnull align 1 dereferenceable(1) %3) #3, !dbg !2519
  ret ptr %4, !dbg !2520
}

; Function Attrs: mustprogress noinline nounwind uwtable
define linkonce_odr dso_local noundef nonnull align 1 dereferenceable(1) ptr @_ZNSt11_Tuple_implILm1EJSt14default_deleteINSt6thread6_StateEEEE7_M_headERS4_(ptr noundef nonnull align 1 dereferenceable(1) %0) #8 comdat align 2 !dbg !2521 {
  %2 = alloca ptr, align 8
  store ptr %0, ptr %2, align 8
  call void @llvm.dbg.declare(metadata ptr %2, metadata !2522, metadata !DIExpression()), !dbg !2523
  %3 = load ptr, ptr %2, align 8, !dbg !2524
  %4 = call noundef nonnull align 1 dereferenceable(1) ptr @_ZNSt10_Head_baseILm1ESt14default_deleteINSt6thread6_StateEELb1EE7_M_headERS4_(ptr noundef nonnull align 1 dereferenceable(1) %3) #3, !dbg !2525
  ret ptr %4, !dbg !2526
}

; Function Attrs: mustprogress noinline nounwind uwtable
define linkonce_odr dso_local noundef nonnull align 1 dereferenceable(1) ptr @_ZNSt10_Head_baseILm1ESt14default_deleteINSt6thread6_StateEELb1EE7_M_headERS4_(ptr noundef nonnull align 1 dereferenceable(1) %0) #8 comdat align 2 !dbg !2527 {
  %2 = alloca ptr, align 8
  store ptr %0, ptr %2, align 8
  call void @llvm.dbg.declare(metadata ptr %2, metadata !2528, metadata !DIExpression()), !dbg !2529
  %3 = load ptr, ptr %2, align 8, !dbg !2530
  ret ptr %3, !dbg !2531
}

; Function Attrs: mustprogress noinline uwtable
define linkonce_odr dso_local void @_ZNSt6thread13_S_make_stateINS_8_InvokerISt5tupleIJPFvPPiES4_EEEEEESt10unique_ptrINS_6_StateESt14default_deleteISA_EEOT_(ptr noalias sret(%"class.std::unique_ptr") align 8 %0, ptr noundef nonnull align 8 dereferenceable(16) %1) #4 comdat align 2 personality ptr @__gxx_personality_v0 !dbg !2532 {
  %3 = alloca ptr, align 8
  %4 = alloca ptr, align 8
  %5 = alloca ptr, align 8
  %6 = alloca i32, align 4
  store ptr %0, ptr %3, align 8
  store ptr %1, ptr %4, align 8
  call void @llvm.dbg.declare(metadata ptr %4, metadata !2539, metadata !DIExpression()), !dbg !2540
  %7 = call noalias noundef nonnull ptr @_Znwm(i64 noundef 24) #15, !dbg !2541, !heapallocsite !2542
  %8 = load ptr, ptr %4, align 8, !dbg !2554
  call void @_ZNSt6thread11_State_implINS_8_InvokerISt5tupleIJPFvPPiES4_EEEEEC2EOS8_(ptr noundef nonnull align 8 dereferenceable(24) %7, ptr noundef nonnull align 8 dereferenceable(16) %8), !dbg !2555
  call void @_ZNSt10unique_ptrINSt6thread6_StateESt14default_deleteIS1_EEC2IS3_vEEPS1_(ptr noundef nonnull align 8 dereferenceable(8) %0, ptr noundef %7) #3, !dbg !2556
  ret void, !dbg !2557
}

; Function Attrs: mustprogress noinline uwtable
define linkonce_odr dso_local void @_ZNSt6thread14__make_invokerIRFvPPiEJRS2_EEENS_8_InvokerISt5tupleIJNSt5decayIT_E4typeEDpNS8_IT0_E4typeEEEEEOS9_DpOSC_(ptr noalias sret(%"struct.std::thread::_Invoker.7") align 8 %0, ptr noundef nonnull %1, ptr noundef nonnull align 8 dereferenceable(8) %2) #4 comdat align 2 !dbg !2558 {
  %4 = alloca ptr, align 8
  %5 = alloca ptr, align 8
  %6 = alloca ptr, align 8
  store ptr %0, ptr %4, align 8
  store ptr %1, ptr %5, align 8
  call void @llvm.dbg.declare(metadata ptr %5, metadata !2563, metadata !DIExpression()), !dbg !2564
  store ptr %2, ptr %6, align 8
  call void @llvm.dbg.declare(metadata ptr %6, metadata !2565, metadata !DIExpression()), !dbg !2566
  %7 = getelementptr inbounds %"struct.std::thread::_Invoker.7", ptr %0, i32 0, i32 0, !dbg !2567
  %8 = load ptr, ptr %5, align 8, !dbg !2568
  %9 = load ptr, ptr %6, align 8, !dbg !2569
  call void @_ZNSt5tupleIJPFvPPiES1_EEC2IRS2_RS1_Lb1EEEOT_OT0_(ptr noundef nonnull align 8 dereferenceable(16) %7, ptr noundef nonnull %8, ptr noundef nonnull align 8 dereferenceable(8) %9), !dbg !2570
  ret void, !dbg !2571
}

; Function Attrs: noinline nounwind uwtable
define linkonce_odr dso_local void @_ZNSt6thread11_State_implINS_8_InvokerISt5tupleIJPFvPPiES4_EEEEEC2EOS8_(ptr noundef nonnull align 8 dereferenceable(24) %0, ptr noundef nonnull align 8 dereferenceable(16) %1) unnamed_addr #6 comdat align 2 !dbg !2572 {
  %3 = alloca ptr, align 8
  %4 = alloca ptr, align 8
  store ptr %0, ptr %3, align 8
  call void @llvm.dbg.declare(metadata ptr %3, metadata !2573, metadata !DIExpression()), !dbg !2575
  store ptr %1, ptr %4, align 8
  call void @llvm.dbg.declare(metadata ptr %4, metadata !2576, metadata !DIExpression()), !dbg !2577
  %5 = load ptr, ptr %3, align 8
  call void @_ZNSt6thread6_StateC2Ev(ptr noundef nonnull align 8 dereferenceable(8) %5) #3, !dbg !2578
  store ptr getelementptr inbounds ({ [5 x ptr] }, ptr @_ZTVNSt6thread11_State_implINS_8_InvokerISt5tupleIJPFvPPiES4_EEEEEE, i32 0, inrange i32 0, i32 2), ptr %5, align 8, !dbg !2579
  %6 = getelementptr inbounds %"struct.std::thread::_State_impl.13", ptr %5, i32 0, i32 1, !dbg !2580
  %7 = load ptr, ptr %4, align 8, !dbg !2581
  call void @_ZNSt6thread8_InvokerISt5tupleIJPFvPPiES3_EEEC2EOS7_(ptr noundef nonnull align 8 dereferenceable(16) %6, ptr noundef nonnull align 8 dereferenceable(16) %7) #3, !dbg !2580
  ret void, !dbg !2582
}

; Function Attrs: noinline nounwind uwtable
define linkonce_odr dso_local void @_ZNSt6thread8_InvokerISt5tupleIJPFvPPiES3_EEEC2EOS7_(ptr noundef nonnull align 8 dereferenceable(16) %0, ptr noundef nonnull align 8 dereferenceable(16) %1) unnamed_addr #6 comdat align 2 !dbg !2583 {
  %3 = alloca ptr, align 8
  %4 = alloca ptr, align 8
  store ptr %0, ptr %3, align 8
  call void @llvm.dbg.declare(metadata ptr %3, metadata !2587, metadata !DIExpression()), !dbg !2589
  store ptr %1, ptr %4, align 8
  call void @llvm.dbg.declare(metadata ptr %4, metadata !2590, metadata !DIExpression()), !dbg !2589
  %5 = load ptr, ptr %3, align 8
  %6 = getelementptr inbounds %"struct.std::thread::_Invoker.7", ptr %5, i32 0, i32 0, !dbg !2591
  %7 = load ptr, ptr %4, align 8, !dbg !2591
  %8 = getelementptr inbounds %"struct.std::thread::_Invoker.7", ptr %7, i32 0, i32 0, !dbg !2591
  call void @_ZNSt5tupleIJPFvPPiES1_EEC2EOS4_(ptr noundef nonnull align 8 dereferenceable(16) %6, ptr noundef nonnull align 8 dereferenceable(16) %8) #3, !dbg !2591
  ret void, !dbg !2591
}

; Function Attrs: noinline nounwind uwtable
define linkonce_odr dso_local void @_ZNSt6thread11_State_implINS_8_InvokerISt5tupleIJPFvPPiES4_EEEEED2Ev(ptr noundef nonnull align 8 dereferenceable(24) %0) unnamed_addr #6 comdat align 2 !dbg !2592 {
  %2 = alloca ptr, align 8
  store ptr %0, ptr %2, align 8
  call void @llvm.dbg.declare(metadata ptr %2, metadata !2594, metadata !DIExpression()), !dbg !2595
  %3 = load ptr, ptr %2, align 8
  call void @_ZNSt6thread6_StateD2Ev(ptr noundef nonnull align 8 dereferenceable(8) %3) #3, !dbg !2596
  ret void, !dbg !2598
}

; Function Attrs: noinline nounwind uwtable
define linkonce_odr dso_local void @_ZNSt6thread11_State_implINS_8_InvokerISt5tupleIJPFvPPiES4_EEEEED0Ev(ptr noundef nonnull align 8 dereferenceable(24) %0) unnamed_addr #6 comdat align 2 !dbg !2599 {
  %2 = alloca ptr, align 8
  store ptr %0, ptr %2, align 8
  call void @llvm.dbg.declare(metadata ptr %2, metadata !2600, metadata !DIExpression()), !dbg !2601
  %3 = load ptr, ptr %2, align 8
  call void @_ZNSt6thread11_State_implINS_8_InvokerISt5tupleIJPFvPPiES4_EEEEED2Ev(ptr noundef nonnull align 8 dereferenceable(24) %3) #3, !dbg !2602
  call void @_ZdlPv(ptr noundef %3) #16, !dbg !2602
  ret void, !dbg !2602
}

; Function Attrs: mustprogress noinline uwtable
define linkonce_odr dso_local void @_ZNSt6thread11_State_implINS_8_InvokerISt5tupleIJPFvPPiES4_EEEEE6_M_runEv(ptr noundef nonnull align 8 dereferenceable(24) %0) unnamed_addr #4 comdat align 2 !dbg !2603 {
  %2 = alloca ptr, align 8
  store ptr %0, ptr %2, align 8
  call void @llvm.dbg.declare(metadata ptr %2, metadata !2604, metadata !DIExpression()), !dbg !2605
  %3 = load ptr, ptr %2, align 8
  %4 = getelementptr inbounds %"struct.std::thread::_State_impl.13", ptr %3, i32 0, i32 1, !dbg !2606
  call void @_ZNSt6thread8_InvokerISt5tupleIJPFvPPiES3_EEEclEv(ptr noundef nonnull align 8 dereferenceable(16) %4), !dbg !2606
  ret void, !dbg !2607
}

; Function Attrs: noinline nounwind uwtable
define linkonce_odr dso_local void @_ZNSt5tupleIJPFvPPiES1_EEC2EOS4_(ptr noundef nonnull align 8 dereferenceable(16) %0, ptr noundef nonnull align 8 dereferenceable(16) %1) unnamed_addr #6 comdat align 2 !dbg !2608 {
  %3 = alloca ptr, align 8
  %4 = alloca ptr, align 8
  store ptr %0, ptr %3, align 8
  call void @llvm.dbg.declare(metadata ptr %3, metadata !2609, metadata !DIExpression()), !dbg !2611
  store ptr %1, ptr %4, align 8
  call void @llvm.dbg.declare(metadata ptr %4, metadata !2612, metadata !DIExpression()), !dbg !2613
  %5 = load ptr, ptr %3, align 8
  %6 = load ptr, ptr %4, align 8, !dbg !2614
  call void @_ZNSt11_Tuple_implILm0EJPFvPPiES1_EEC2EOS4_(ptr noundef nonnull align 8 dereferenceable(16) %5, ptr noundef nonnull align 8 dereferenceable(16) %6) #3, !dbg !2614
  ret void, !dbg !2615
}

; Function Attrs: noinline nounwind uwtable
define linkonce_odr dso_local void @_ZNSt11_Tuple_implILm0EJPFvPPiES1_EEC2EOS4_(ptr noundef nonnull align 8 dereferenceable(16) %0, ptr noundef nonnull align 8 dereferenceable(16) %1) unnamed_addr #6 comdat align 2 personality ptr @__gxx_personality_v0 !dbg !2616 {
  %3 = alloca ptr, align 8
  %4 = alloca ptr, align 8
  store ptr %0, ptr %3, align 8
  call void @llvm.dbg.declare(metadata ptr %3, metadata !2617, metadata !DIExpression()), !dbg !2619
  store ptr %1, ptr %4, align 8
  call void @llvm.dbg.declare(metadata ptr %4, metadata !2620, metadata !DIExpression()), !dbg !2621
  %5 = load ptr, ptr %3, align 8
  %6 = load ptr, ptr %4, align 8, !dbg !2622
  %7 = call noundef nonnull align 8 dereferenceable(8) ptr @_ZNSt11_Tuple_implILm0EJPFvPPiES1_EE7_M_tailERS4_(ptr noundef nonnull align 8 dereferenceable(16) %6) #3, !dbg !2623
  call void @_ZNSt11_Tuple_implILm1EJPPiEEC2EOS2_(ptr noundef nonnull align 8 dereferenceable(8) %5, ptr noundef nonnull align 8 dereferenceable(8) %7) #3, !dbg !2624
  %8 = getelementptr inbounds i8, ptr %5, i64 8, !dbg !2625
  %9 = load ptr, ptr %4, align 8, !dbg !2626
  %10 = call noundef nonnull align 8 dereferenceable(8) ptr @_ZNSt11_Tuple_implILm0EJPFvPPiES1_EE7_M_headERS4_(ptr noundef nonnull align 8 dereferenceable(16) %9) #3, !dbg !2627
  call void @_ZNSt10_Head_baseILm0EPFvPPiELb0EEC2IS3_EEOT_(ptr noundef nonnull align 8 dereferenceable(8) %8, ptr noundef nonnull align 8 dereferenceable(8) %10), !dbg !2628
  ret void, !dbg !2629
}

; Function Attrs: mustprogress noinline nounwind uwtable
define linkonce_odr dso_local noundef nonnull align 8 dereferenceable(8) ptr @_ZNSt11_Tuple_implILm0EJPFvPPiES1_EE7_M_tailERS4_(ptr noundef nonnull align 8 dereferenceable(16) %0) #8 comdat align 2 !dbg !2630 {
  %2 = alloca ptr, align 8
  store ptr %0, ptr %2, align 8
  call void @llvm.dbg.declare(metadata ptr %2, metadata !2631, metadata !DIExpression()), !dbg !2632
  %3 = load ptr, ptr %2, align 8, !dbg !2633
  ret ptr %3, !dbg !2634
}

; Function Attrs: noinline nounwind uwtable
define linkonce_odr dso_local void @_ZNSt11_Tuple_implILm1EJPPiEEC2EOS2_(ptr noundef nonnull align 8 dereferenceable(8) %0, ptr noundef nonnull align 8 dereferenceable(8) %1) unnamed_addr #6 comdat align 2 personality ptr @__gxx_personality_v0 !dbg !2635 {
  %3 = alloca ptr, align 8
  %4 = alloca ptr, align 8
  store ptr %0, ptr %3, align 8
  call void @llvm.dbg.declare(metadata ptr %3, metadata !2636, metadata !DIExpression()), !dbg !2638
  store ptr %1, ptr %4, align 8
  call void @llvm.dbg.declare(metadata ptr %4, metadata !2639, metadata !DIExpression()), !dbg !2640
  %5 = load ptr, ptr %3, align 8
  %6 = load ptr, ptr %4, align 8, !dbg !2641
  %7 = call noundef nonnull align 8 dereferenceable(8) ptr @_ZNSt11_Tuple_implILm1EJPPiEE7_M_headERS2_(ptr noundef nonnull align 8 dereferenceable(8) %6) #3, !dbg !2642
  call void @_ZNSt10_Head_baseILm1EPPiLb0EEC2IS1_EEOT_(ptr noundef nonnull align 8 dereferenceable(8) %5, ptr noundef nonnull align 8 dereferenceable(8) %7), !dbg !2643
  ret void, !dbg !2644
}

; Function Attrs: mustprogress noinline nounwind uwtable
define linkonce_odr dso_local noundef nonnull align 8 dereferenceable(8) ptr @_ZNSt11_Tuple_implILm0EJPFvPPiES1_EE7_M_headERS4_(ptr noundef nonnull align 8 dereferenceable(16) %0) #8 comdat align 2 !dbg !2645 {
  %2 = alloca ptr, align 8
  store ptr %0, ptr %2, align 8
  call void @llvm.dbg.declare(metadata ptr %2, metadata !2646, metadata !DIExpression()), !dbg !2647
  %3 = load ptr, ptr %2, align 8, !dbg !2648
  %4 = getelementptr inbounds i8, ptr %3, i64 8, !dbg !2648
  %5 = call noundef nonnull align 8 dereferenceable(8) ptr @_ZNSt10_Head_baseILm0EPFvPPiELb0EE7_M_headERS4_(ptr noundef nonnull align 8 dereferenceable(8) %4) #3, !dbg !2649
  ret ptr %5, !dbg !2650
}

; Function Attrs: noinline nounwind uwtable
define linkonce_odr dso_local void @_ZNSt10_Head_baseILm0EPFvPPiELb0EEC2IS3_EEOT_(ptr noundef nonnull align 8 dereferenceable(8) %0, ptr noundef nonnull align 8 dereferenceable(8) %1) unnamed_addr #6 comdat align 2 !dbg !2651 {
  %3 = alloca ptr, align 8
  %4 = alloca ptr, align 8
  store ptr %0, ptr %3, align 8
  call void @llvm.dbg.declare(metadata ptr %3, metadata !2657, metadata !DIExpression()), !dbg !2659
  store ptr %1, ptr %4, align 8
  call void @llvm.dbg.declare(metadata ptr %4, metadata !2660, metadata !DIExpression()), !dbg !2661
  %5 = load ptr, ptr %3, align 8
  %6 = getelementptr inbounds %"struct.std::_Head_base.12", ptr %5, i32 0, i32 0, !dbg !2662
  %7 = load ptr, ptr %4, align 8, !dbg !2663
  %8 = load ptr, ptr %7, align 8, !dbg !2664
  store ptr %8, ptr %6, align 8, !dbg !2662
  ret void, !dbg !2665
}

; Function Attrs: mustprogress noinline nounwind uwtable
define linkonce_odr dso_local noundef nonnull align 8 dereferenceable(8) ptr @_ZNSt11_Tuple_implILm1EJPPiEE7_M_headERS2_(ptr noundef nonnull align 8 dereferenceable(8) %0) #8 comdat align 2 !dbg !2666 {
  %2 = alloca ptr, align 8
  store ptr %0, ptr %2, align 8
  call void @llvm.dbg.declare(metadata ptr %2, metadata !2667, metadata !DIExpression()), !dbg !2668
  %3 = load ptr, ptr %2, align 8, !dbg !2669
  %4 = call noundef nonnull align 8 dereferenceable(8) ptr @_ZNSt10_Head_baseILm1EPPiLb0EE7_M_headERS2_(ptr noundef nonnull align 8 dereferenceable(8) %3) #3, !dbg !2670
  ret ptr %4, !dbg !2671
}

; Function Attrs: noinline nounwind uwtable
define linkonce_odr dso_local void @_ZNSt10_Head_baseILm1EPPiLb0EEC2IS1_EEOT_(ptr noundef nonnull align 8 dereferenceable(8) %0, ptr noundef nonnull align 8 dereferenceable(8) %1) unnamed_addr #6 comdat align 2 !dbg !2672 {
  %3 = alloca ptr, align 8
  %4 = alloca ptr, align 8
  store ptr %0, ptr %3, align 8
  call void @llvm.dbg.declare(metadata ptr %3, metadata !2678, metadata !DIExpression()), !dbg !2680
  store ptr %1, ptr %4, align 8
  call void @llvm.dbg.declare(metadata ptr %4, metadata !2681, metadata !DIExpression()), !dbg !2682
  %5 = load ptr, ptr %3, align 8
  %6 = getelementptr inbounds %"struct.std::_Head_base.11", ptr %5, i32 0, i32 0, !dbg !2683
  %7 = load ptr, ptr %4, align 8, !dbg !2684
  %8 = load ptr, ptr %7, align 8, !dbg !2685
  store ptr %8, ptr %6, align 8, !dbg !2683
  ret void, !dbg !2686
}

; Function Attrs: mustprogress noinline nounwind uwtable
define linkonce_odr dso_local noundef nonnull align 8 dereferenceable(8) ptr @_ZNSt10_Head_baseILm1EPPiLb0EE7_M_headERS2_(ptr noundef nonnull align 8 dereferenceable(8) %0) #8 comdat align 2 !dbg !2687 {
  %2 = alloca ptr, align 8
  store ptr %0, ptr %2, align 8
  call void @llvm.dbg.declare(metadata ptr %2, metadata !2688, metadata !DIExpression()), !dbg !2689
  %3 = load ptr, ptr %2, align 8, !dbg !2690
  %4 = getelementptr inbounds %"struct.std::_Head_base.11", ptr %3, i32 0, i32 0, !dbg !2691
  ret ptr %4, !dbg !2692
}

; Function Attrs: mustprogress noinline nounwind uwtable
define linkonce_odr dso_local noundef nonnull align 8 dereferenceable(8) ptr @_ZNSt10_Head_baseILm0EPFvPPiELb0EE7_M_headERS4_(ptr noundef nonnull align 8 dereferenceable(8) %0) #8 comdat align 2 !dbg !2693 {
  %2 = alloca ptr, align 8
  store ptr %0, ptr %2, align 8
  call void @llvm.dbg.declare(metadata ptr %2, metadata !2694, metadata !DIExpression()), !dbg !2695
  %3 = load ptr, ptr %2, align 8, !dbg !2696
  %4 = getelementptr inbounds %"struct.std::_Head_base.12", ptr %3, i32 0, i32 0, !dbg !2697
  ret ptr %4, !dbg !2698
}

; Function Attrs: mustprogress noinline uwtable
define linkonce_odr dso_local void @_ZNSt6thread8_InvokerISt5tupleIJPFvPPiES3_EEEclEv(ptr noundef nonnull align 8 dereferenceable(16) %0) #4 comdat align 2 !dbg !2699 {
  %2 = alloca ptr, align 8
  %3 = alloca %"struct.std::_Index_tuple", align 1
  store ptr %0, ptr %2, align 8
  call void @llvm.dbg.declare(metadata ptr %2, metadata !2700, metadata !DIExpression()), !dbg !2701
  %4 = load ptr, ptr %2, align 8
  call void @_ZNSt6thread8_InvokerISt5tupleIJPFvPPiES3_EEE9_M_invokeIJLm0ELm1EEEEvSt12_Index_tupleIJXspT_EEE(ptr noundef nonnull align 8 dereferenceable(16) %4), !dbg !2702
  ret void, !dbg !2703
}

; Function Attrs: mustprogress noinline uwtable
define linkonce_odr dso_local void @_ZNSt6thread8_InvokerISt5tupleIJPFvPPiES3_EEE9_M_invokeIJLm0ELm1EEEEvSt12_Index_tupleIJXspT_EEE(ptr noundef nonnull align 8 dereferenceable(16) %0) #4 comdat align 2 !dbg !2704 {
  %2 = alloca %"struct.std::_Index_tuple", align 1
  %3 = alloca ptr, align 8
  store ptr %0, ptr %3, align 8
  call void @llvm.dbg.declare(metadata ptr %3, metadata !2708, metadata !DIExpression()), !dbg !2709
  call void @llvm.dbg.declare(metadata ptr %2, metadata !2710, metadata !DIExpression()), !dbg !2711
  %4 = load ptr, ptr %3, align 8
  %5 = getelementptr inbounds %"struct.std::thread::_Invoker.7", ptr %4, i32 0, i32 0, !dbg !2712
  %6 = call noundef nonnull align 8 dereferenceable(8) ptr @_ZSt3getILm0EJPFvPPiES1_EEONSt13tuple_elementIXT_ESt5tupleIJDpT0_EEE4typeEOS8_(ptr noundef nonnull align 8 dereferenceable(16) %5) #3, !dbg !2713
  %7 = getelementptr inbounds %"struct.std::thread::_Invoker.7", ptr %4, i32 0, i32 0, !dbg !2712
  %8 = call noundef nonnull align 8 dereferenceable(8) ptr @_ZSt3getILm1EJPFvPPiES1_EEONSt13tuple_elementIXT_ESt5tupleIJDpT0_EEE4typeEOS8_(ptr noundef nonnull align 8 dereferenceable(16) %7) #3, !dbg !2713
  call void @_ZSt8__invokeIPFvPPiEJS1_EENSt15__invoke_resultIT_JDpT0_EE4typeEOS5_DpOS6_(ptr noundef nonnull align 8 dereferenceable(8) %6, ptr noundef nonnull align 8 dereferenceable(8) %8), !dbg !2714
  ret void, !dbg !2715
}

; Function Attrs: mustprogress noinline uwtable
define linkonce_odr dso_local void @_ZSt8__invokeIPFvPPiEJS1_EENSt15__invoke_resultIT_JDpT0_EE4typeEOS5_DpOS6_(ptr noundef nonnull align 8 dereferenceable(8) %0, ptr noundef nonnull align 8 dereferenceable(8) %1) #4 comdat !dbg !72 {
  %3 = alloca ptr, align 8
  %4 = alloca ptr, align 8
  %5 = alloca %"struct.std::__invoke_other", align 1
  store ptr %0, ptr %3, align 8
  call void @llvm.dbg.declare(metadata ptr %3, metadata !2716, metadata !DIExpression()), !dbg !2717
  store ptr %1, ptr %4, align 8
  call void @llvm.dbg.declare(metadata ptr %4, metadata !2718, metadata !DIExpression()), !dbg !2719
  %6 = load ptr, ptr %3, align 8, !dbg !2720
  %7 = load ptr, ptr %4, align 8, !dbg !2721
  call void @_ZSt13__invoke_implIvPFvPPiEJS1_EET_St14__invoke_otherOT0_DpOT1_(ptr noundef nonnull align 8 dereferenceable(8) %6, ptr noundef nonnull align 8 dereferenceable(8) %7), !dbg !2722
  ret void, !dbg !2723
}

; Function Attrs: mustprogress noinline nounwind uwtable
define linkonce_odr dso_local noundef nonnull align 8 dereferenceable(8) ptr @_ZSt3getILm0EJPFvPPiES1_EEONSt13tuple_elementIXT_ESt5tupleIJDpT0_EEE4typeEOS8_(ptr noundef nonnull align 8 dereferenceable(16) %0) #8 comdat !dbg !2724 {
  %2 = alloca ptr, align 8
  store ptr %0, ptr %2, align 8
  call void @llvm.dbg.declare(metadata ptr %2, metadata !2734, metadata !DIExpression()), !dbg !2735
  %3 = load ptr, ptr %2, align 8, !dbg !2736
  %4 = call noundef nonnull align 8 dereferenceable(8) ptr @_ZSt3getILm0EJPFvPPiES1_EERNSt13tuple_elementIXT_ESt5tupleIJDpT0_EEE4typeERS8_(ptr noundef nonnull align 8 dereferenceable(16) %3) #3, !dbg !2737
  ret ptr %4, !dbg !2738
}

; Function Attrs: mustprogress noinline nounwind uwtable
define linkonce_odr dso_local noundef nonnull align 8 dereferenceable(8) ptr @_ZSt3getILm1EJPFvPPiES1_EEONSt13tuple_elementIXT_ESt5tupleIJDpT0_EEE4typeEOS8_(ptr noundef nonnull align 8 dereferenceable(16) %0) #8 comdat !dbg !2739 {
  %2 = alloca ptr, align 8
  store ptr %0, ptr %2, align 8
  call void @llvm.dbg.declare(metadata ptr %2, metadata !2750, metadata !DIExpression()), !dbg !2751
  %3 = load ptr, ptr %2, align 8, !dbg !2752
  %4 = call noundef nonnull align 8 dereferenceable(8) ptr @_ZSt3getILm1EJPFvPPiES1_EERNSt13tuple_elementIXT_ESt5tupleIJDpT0_EEE4typeERS8_(ptr noundef nonnull align 8 dereferenceable(16) %3) #3, !dbg !2753
  ret ptr %4, !dbg !2754
}

; Function Attrs: mustprogress noinline uwtable
define linkonce_odr dso_local void @_ZSt13__invoke_implIvPFvPPiEJS1_EET_St14__invoke_otherOT0_DpOT1_(ptr noundef nonnull align 8 dereferenceable(8) %0, ptr noundef nonnull align 8 dereferenceable(8) %1) #4 comdat !dbg !2755 {
  %3 = alloca %"struct.std::__invoke_other", align 1
  %4 = alloca ptr, align 8
  %5 = alloca ptr, align 8
  call void @llvm.dbg.declare(metadata ptr %3, metadata !2760, metadata !DIExpression()), !dbg !2761
  store ptr %0, ptr %4, align 8
  call void @llvm.dbg.declare(metadata ptr %4, metadata !2762, metadata !DIExpression()), !dbg !2763
  store ptr %1, ptr %5, align 8
  call void @llvm.dbg.declare(metadata ptr %5, metadata !2764, metadata !DIExpression()), !dbg !2765
  %6 = load ptr, ptr %4, align 8, !dbg !2766
  %7 = load ptr, ptr %6, align 8, !dbg !2767
  %8 = load ptr, ptr %5, align 8, !dbg !2768
  %9 = load ptr, ptr %8, align 8, !dbg !2769
  call void %7(ptr noundef %9), !dbg !2767
  ret void, !dbg !2770
}

; Function Attrs: mustprogress noinline nounwind uwtable
define linkonce_odr dso_local noundef nonnull align 8 dereferenceable(8) ptr @_ZSt3getILm0EJPFvPPiES1_EERNSt13tuple_elementIXT_ESt5tupleIJDpT0_EEE4typeERS8_(ptr noundef nonnull align 8 dereferenceable(16) %0) #8 comdat !dbg !2771 {
  %2 = alloca ptr, align 8
  store ptr %0, ptr %2, align 8
  call void @llvm.dbg.declare(metadata ptr %2, metadata !2775, metadata !DIExpression()), !dbg !2776
  %3 = load ptr, ptr %2, align 8, !dbg !2777
  %4 = call noundef nonnull align 8 dereferenceable(8) ptr @_ZSt12__get_helperILm0EPFvPPiEJS1_EERT0_RSt11_Tuple_implIXT_EJS4_DpT1_EE(ptr noundef nonnull align 8 dereferenceable(16) %3) #3, !dbg !2778
  ret ptr %4, !dbg !2779
}

; Function Attrs: mustprogress noinline nounwind uwtable
define linkonce_odr dso_local noundef nonnull align 8 dereferenceable(8) ptr @_ZSt12__get_helperILm0EPFvPPiEJS1_EERT0_RSt11_Tuple_implIXT_EJS4_DpT1_EE(ptr noundef nonnull align 8 dereferenceable(16) %0) #8 comdat !dbg !2780 {
  %2 = alloca ptr, align 8
  store ptr %0, ptr %2, align 8
  call void @llvm.dbg.declare(metadata ptr %2, metadata !2783, metadata !DIExpression()), !dbg !2784
  %3 = load ptr, ptr %2, align 8, !dbg !2785
  %4 = call noundef nonnull align 8 dereferenceable(8) ptr @_ZNSt11_Tuple_implILm0EJPFvPPiES1_EE7_M_headERS4_(ptr noundef nonnull align 8 dereferenceable(16) %3) #3, !dbg !2786
  ret ptr %4, !dbg !2787
}

; Function Attrs: mustprogress noinline nounwind uwtable
define linkonce_odr dso_local noundef nonnull align 8 dereferenceable(8) ptr @_ZSt3getILm1EJPFvPPiES1_EERNSt13tuple_elementIXT_ESt5tupleIJDpT0_EEE4typeERS8_(ptr noundef nonnull align 8 dereferenceable(16) %0) #8 comdat !dbg !2788 {
  %2 = alloca ptr, align 8
  store ptr %0, ptr %2, align 8
  call void @llvm.dbg.declare(metadata ptr %2, metadata !2792, metadata !DIExpression()), !dbg !2793
  %3 = load ptr, ptr %2, align 8, !dbg !2794
  %4 = call noundef nonnull align 8 dereferenceable(8) ptr @_ZSt12__get_helperILm1EPPiJEERT0_RSt11_Tuple_implIXT_EJS2_DpT1_EE(ptr noundef nonnull align 8 dereferenceable(8) %3) #3, !dbg !2795
  ret ptr %4, !dbg !2796
}

; Function Attrs: mustprogress noinline nounwind uwtable
define linkonce_odr dso_local noundef nonnull align 8 dereferenceable(8) ptr @_ZSt12__get_helperILm1EPPiJEERT0_RSt11_Tuple_implIXT_EJS2_DpT1_EE(ptr noundef nonnull align 8 dereferenceable(8) %0) #8 comdat !dbg !2797 {
  %2 = alloca ptr, align 8
  store ptr %0, ptr %2, align 8
  call void @llvm.dbg.declare(metadata ptr %2, metadata !2799, metadata !DIExpression()), !dbg !2800
  %3 = load ptr, ptr %2, align 8, !dbg !2801
  %4 = call noundef nonnull align 8 dereferenceable(8) ptr @_ZNSt11_Tuple_implILm1EJPPiEE7_M_headERS2_(ptr noundef nonnull align 8 dereferenceable(8) %3) #3, !dbg !2802
  ret ptr %4, !dbg !2803
}

; Function Attrs: noinline uwtable
define linkonce_odr dso_local void @_ZNSt5tupleIJPFvPPiES1_EEC2IRS2_RS1_Lb1EEEOT_OT0_(ptr noundef nonnull align 8 dereferenceable(16) %0, ptr noundef nonnull %1, ptr noundef nonnull align 8 dereferenceable(8) %2) unnamed_addr #0 comdat align 2 !dbg !2804 {
  %4 = alloca ptr, align 8
  %5 = alloca ptr, align 8
  %6 = alloca ptr, align 8
  store ptr %0, ptr %4, align 8
  call void @llvm.dbg.declare(metadata ptr %4, metadata !2811, metadata !DIExpression()), !dbg !2812
  store ptr %1, ptr %5, align 8
  call void @llvm.dbg.declare(metadata ptr %5, metadata !2813, metadata !DIExpression()), !dbg !2814
  store ptr %2, ptr %6, align 8
  call void @llvm.dbg.declare(metadata ptr %6, metadata !2815, metadata !DIExpression()), !dbg !2816
  %7 = load ptr, ptr %4, align 8
  %8 = load ptr, ptr %5, align 8, !dbg !2817
  %9 = load ptr, ptr %6, align 8, !dbg !2818
  call void @_ZNSt11_Tuple_implILm0EJPFvPPiES1_EEC2IRS2_JRS1_EvEEOT_DpOT0_(ptr noundef nonnull align 8 dereferenceable(16) %7, ptr noundef nonnull %8, ptr noundef nonnull align 8 dereferenceable(8) %9), !dbg !2819
  ret void, !dbg !2820
}

; Function Attrs: noinline uwtable
define linkonce_odr dso_local void @_ZNSt11_Tuple_implILm0EJPFvPPiES1_EEC2IRS2_JRS1_EvEEOT_DpOT0_(ptr noundef nonnull align 8 dereferenceable(16) %0, ptr noundef nonnull %1, ptr noundef nonnull align 8 dereferenceable(8) %2) unnamed_addr #0 comdat align 2 !dbg !2821 {
  %4 = alloca ptr, align 8
  %5 = alloca ptr, align 8
  %6 = alloca ptr, align 8
  %7 = alloca ptr, align 8
  store ptr %0, ptr %4, align 8
  call void @llvm.dbg.declare(metadata ptr %4, metadata !2828, metadata !DIExpression()), !dbg !2829
  store ptr %1, ptr %5, align 8
  call void @llvm.dbg.declare(metadata ptr %5, metadata !2830, metadata !DIExpression()), !dbg !2831
  store ptr %2, ptr %6, align 8
  call void @llvm.dbg.declare(metadata ptr %6, metadata !2832, metadata !DIExpression()), !dbg !2833
  %8 = load ptr, ptr %4, align 8
  %9 = load ptr, ptr %6, align 8, !dbg !2834
  call void @_ZNSt11_Tuple_implILm1EJPPiEEC2IRS1_EEOT_(ptr noundef nonnull align 8 dereferenceable(8) %8, ptr noundef nonnull align 8 dereferenceable(8) %9), !dbg !2835
  %10 = getelementptr inbounds i8, ptr %8, i64 8, !dbg !2836
  %11 = load ptr, ptr %5, align 8, !dbg !2837
  store ptr %11, ptr %7, align 8, !dbg !2838
  call void @_ZNSt10_Head_baseILm0EPFvPPiELb0EEC2ERKS3_(ptr noundef nonnull align 8 dereferenceable(8) %10, ptr noundef nonnull align 8 dereferenceable(8) %7), !dbg !2839
  ret void, !dbg !2840
}

; Function Attrs: noinline uwtable
define linkonce_odr dso_local void @_ZNSt11_Tuple_implILm1EJPPiEEC2IRS1_EEOT_(ptr noundef nonnull align 8 dereferenceable(8) %0, ptr noundef nonnull align 8 dereferenceable(8) %1) unnamed_addr #0 comdat align 2 !dbg !2841 {
  %3 = alloca ptr, align 8
  %4 = alloca ptr, align 8
  store ptr %0, ptr %3, align 8
  call void @llvm.dbg.declare(metadata ptr %3, metadata !2847, metadata !DIExpression()), !dbg !2848
  store ptr %1, ptr %4, align 8
  call void @llvm.dbg.declare(metadata ptr %4, metadata !2849, metadata !DIExpression()), !dbg !2850
  %5 = load ptr, ptr %3, align 8
  %6 = load ptr, ptr %4, align 8, !dbg !2851
  call void @_ZNSt10_Head_baseILm1EPPiLb0EEC2IRS1_EEOT_(ptr noundef nonnull align 8 dereferenceable(8) %5, ptr noundef nonnull align 8 dereferenceable(8) %6), !dbg !2852
  ret void, !dbg !2853
}

; Function Attrs: noinline nounwind uwtable
define linkonce_odr dso_local void @_ZNSt10_Head_baseILm0EPFvPPiELb0EEC2ERKS3_(ptr noundef nonnull align 8 dereferenceable(8) %0, ptr noundef nonnull align 8 dereferenceable(8) %1) unnamed_addr #6 comdat align 2 !dbg !2854 {
  %3 = alloca ptr, align 8
  %4 = alloca ptr, align 8
  store ptr %0, ptr %3, align 8
  call void @llvm.dbg.declare(metadata ptr %3, metadata !2855, metadata !DIExpression()), !dbg !2856
  store ptr %1, ptr %4, align 8
  call void @llvm.dbg.declare(metadata ptr %4, metadata !2857, metadata !DIExpression()), !dbg !2858
  %5 = load ptr, ptr %3, align 8
  %6 = getelementptr inbounds %"struct.std::_Head_base.12", ptr %5, i32 0, i32 0, !dbg !2859
  %7 = load ptr, ptr %4, align 8, !dbg !2860
  %8 = load ptr, ptr %7, align 8, !dbg !2860
  store ptr %8, ptr %6, align 8, !dbg !2859
  ret void, !dbg !2861
}

; Function Attrs: noinline nounwind uwtable
define linkonce_odr dso_local void @_ZNSt10_Head_baseILm1EPPiLb0EEC2IRS1_EEOT_(ptr noundef nonnull align 8 dereferenceable(8) %0, ptr noundef nonnull align 8 dereferenceable(8) %1) unnamed_addr #6 comdat align 2 !dbg !2862 {
  %3 = alloca ptr, align 8
  %4 = alloca ptr, align 8
  store ptr %0, ptr %3, align 8
  call void @llvm.dbg.declare(metadata ptr %3, metadata !2866, metadata !DIExpression()), !dbg !2867
  store ptr %1, ptr %4, align 8
  call void @llvm.dbg.declare(metadata ptr %4, metadata !2868, metadata !DIExpression()), !dbg !2869
  %5 = load ptr, ptr %3, align 8
  %6 = getelementptr inbounds %"struct.std::_Head_base.11", ptr %5, i32 0, i32 0, !dbg !2870
  %7 = load ptr, ptr %4, align 8, !dbg !2871
  %8 = load ptr, ptr %7, align 8, !dbg !2872
  store ptr %8, ptr %6, align 8, !dbg !2870
  ret void, !dbg !2873
}

; Function Attrs: mustprogress noinline uwtable
define linkonce_odr dso_local void @_ZNSt6thread14__make_invokerIRFvPPiEJS2_EEENS_8_InvokerISt5tupleIJNSt5decayIT_E4typeEDpNS7_IT0_E4typeEEEEEOS8_DpOSB_(ptr noalias sret(%"struct.std::thread::_Invoker.7") align 8 %0, ptr noundef nonnull %1, ptr noundef nonnull align 8 dereferenceable(8) %2) #4 comdat align 2 !dbg !2874 {
  %4 = alloca ptr, align 8
  %5 = alloca ptr, align 8
  %6 = alloca ptr, align 8
  store ptr %0, ptr %4, align 8
  store ptr %1, ptr %5, align 8
  call void @llvm.dbg.declare(metadata ptr %5, metadata !2879, metadata !DIExpression()), !dbg !2880
  store ptr %2, ptr %6, align 8
  call void @llvm.dbg.declare(metadata ptr %6, metadata !2881, metadata !DIExpression()), !dbg !2882
  %7 = getelementptr inbounds %"struct.std::thread::_Invoker.7", ptr %0, i32 0, i32 0, !dbg !2883
  %8 = load ptr, ptr %5, align 8, !dbg !2884
  %9 = load ptr, ptr %6, align 8, !dbg !2885
  call void @_ZNSt5tupleIJPFvPPiES1_EEC2IRS2_S1_Lb1EEEOT_OT0_(ptr noundef nonnull align 8 dereferenceable(16) %7, ptr noundef nonnull %8, ptr noundef nonnull align 8 dereferenceable(8) %9), !dbg !2886
  ret void, !dbg !2887
}

; Function Attrs: noinline uwtable
define linkonce_odr dso_local void @_ZNSt5tupleIJPFvPPiES1_EEC2IRS2_S1_Lb1EEEOT_OT0_(ptr noundef nonnull align 8 dereferenceable(16) %0, ptr noundef nonnull %1, ptr noundef nonnull align 8 dereferenceable(8) %2) unnamed_addr #0 comdat align 2 !dbg !2888 {
  %4 = alloca ptr, align 8
  %5 = alloca ptr, align 8
  %6 = alloca ptr, align 8
  store ptr %0, ptr %4, align 8
  call void @llvm.dbg.declare(metadata ptr %4, metadata !2894, metadata !DIExpression()), !dbg !2895
  store ptr %1, ptr %5, align 8
  call void @llvm.dbg.declare(metadata ptr %5, metadata !2896, metadata !DIExpression()), !dbg !2897
  store ptr %2, ptr %6, align 8
  call void @llvm.dbg.declare(metadata ptr %6, metadata !2898, metadata !DIExpression()), !dbg !2899
  %7 = load ptr, ptr %4, align 8
  %8 = load ptr, ptr %5, align 8, !dbg !2900
  %9 = load ptr, ptr %6, align 8, !dbg !2901
  call void @_ZNSt11_Tuple_implILm0EJPFvPPiES1_EEC2IRS2_JS1_EvEEOT_DpOT0_(ptr noundef nonnull align 8 dereferenceable(16) %7, ptr noundef nonnull %8, ptr noundef nonnull align 8 dereferenceable(8) %9), !dbg !2902
  ret void, !dbg !2903
}

; Function Attrs: noinline uwtable
define linkonce_odr dso_local void @_ZNSt11_Tuple_implILm0EJPFvPPiES1_EEC2IRS2_JS1_EvEEOT_DpOT0_(ptr noundef nonnull align 8 dereferenceable(16) %0, ptr noundef nonnull %1, ptr noundef nonnull align 8 dereferenceable(8) %2) unnamed_addr #0 comdat align 2 !dbg !2904 {
  %4 = alloca ptr, align 8
  %5 = alloca ptr, align 8
  %6 = alloca ptr, align 8
  %7 = alloca ptr, align 8
  store ptr %0, ptr %4, align 8
  call void @llvm.dbg.declare(metadata ptr %4, metadata !2910, metadata !DIExpression()), !dbg !2911
  store ptr %1, ptr %5, align 8
  call void @llvm.dbg.declare(metadata ptr %5, metadata !2912, metadata !DIExpression()), !dbg !2913
  store ptr %2, ptr %6, align 8
  call void @llvm.dbg.declare(metadata ptr %6, metadata !2914, metadata !DIExpression()), !dbg !2915
  %8 = load ptr, ptr %4, align 8
  %9 = load ptr, ptr %6, align 8, !dbg !2916
  call void @_ZNSt11_Tuple_implILm1EJPPiEEC2IS1_EEOT_(ptr noundef nonnull align 8 dereferenceable(8) %8, ptr noundef nonnull align 8 dereferenceable(8) %9), !dbg !2917
  %10 = getelementptr inbounds i8, ptr %8, i64 8, !dbg !2918
  %11 = load ptr, ptr %5, align 8, !dbg !2919
  store ptr %11, ptr %7, align 8, !dbg !2920
  call void @_ZNSt10_Head_baseILm0EPFvPPiELb0EEC2ERKS3_(ptr noundef nonnull align 8 dereferenceable(8) %10, ptr noundef nonnull align 8 dereferenceable(8) %7), !dbg !2921
  ret void, !dbg !2922
}

; Function Attrs: noinline nounwind uwtable
define linkonce_odr dso_local void @_ZNSt11_Tuple_implILm1EJPPiEEC2IS1_EEOT_(ptr noundef nonnull align 8 dereferenceable(8) %0, ptr noundef nonnull align 8 dereferenceable(8) %1) unnamed_addr #6 comdat align 2 !dbg !2923 {
  %3 = alloca ptr, align 8
  %4 = alloca ptr, align 8
  store ptr %0, ptr %3, align 8
  call void @llvm.dbg.declare(metadata ptr %3, metadata !2927, metadata !DIExpression()), !dbg !2928
  store ptr %1, ptr %4, align 8
  call void @llvm.dbg.declare(metadata ptr %4, metadata !2929, metadata !DIExpression()), !dbg !2930
  %5 = load ptr, ptr %3, align 8
  %6 = load ptr, ptr %4, align 8, !dbg !2931
  call void @_ZNSt10_Head_baseILm1EPPiLb0EEC2IS1_EEOT_(ptr noundef nonnull align 8 dereferenceable(8) %5, ptr noundef nonnull align 8 dereferenceable(8) %6), !dbg !2932
  ret void, !dbg !2933
}

; Function Attrs: mustprogress noinline uwtable
define linkonce_odr dso_local void @_ZNSt6thread14__make_invokerIRFvPiEJS1_EEENS_8_InvokerISt5tupleIJNSt5decayIT_E4typeEDpNS6_IT0_E4typeEEEEEOS7_DpOSA_(ptr noalias sret(%"struct.std::thread::_Invoker") align 8 %0, ptr noundef nonnull %1, ptr noundef nonnull align 8 dereferenceable(8) %2) #4 comdat align 2 !dbg !2934 {
  %4 = alloca ptr, align 8
  %5 = alloca ptr, align 8
  %6 = alloca ptr, align 8
  store ptr %0, ptr %4, align 8
  store ptr %1, ptr %5, align 8
  call void @llvm.dbg.declare(metadata ptr %5, metadata !2939, metadata !DIExpression()), !dbg !2940
  store ptr %2, ptr %6, align 8
  call void @llvm.dbg.declare(metadata ptr %6, metadata !2941, metadata !DIExpression()), !dbg !2942
  %7 = getelementptr inbounds %"struct.std::thread::_Invoker", ptr %0, i32 0, i32 0, !dbg !2943
  %8 = load ptr, ptr %5, align 8, !dbg !2944
  %9 = load ptr, ptr %6, align 8, !dbg !2945
  call void @_ZNSt5tupleIJPFvPiES0_EEC2IRS1_S0_Lb1EEEOT_OT0_(ptr noundef nonnull align 8 dereferenceable(16) %7, ptr noundef nonnull %8, ptr noundef nonnull align 8 dereferenceable(8) %9), !dbg !2946
  ret void, !dbg !2947
}

; Function Attrs: noinline uwtable
define linkonce_odr dso_local void @_ZNSt5tupleIJPFvPiES0_EEC2IRS1_S0_Lb1EEEOT_OT0_(ptr noundef nonnull align 8 dereferenceable(16) %0, ptr noundef nonnull %1, ptr noundef nonnull align 8 dereferenceable(8) %2) unnamed_addr #0 comdat align 2 !dbg !2948 {
  %4 = alloca ptr, align 8
  %5 = alloca ptr, align 8
  %6 = alloca ptr, align 8
  store ptr %0, ptr %4, align 8
  call void @llvm.dbg.declare(metadata ptr %4, metadata !2954, metadata !DIExpression()), !dbg !2955
  store ptr %1, ptr %5, align 8
  call void @llvm.dbg.declare(metadata ptr %5, metadata !2956, metadata !DIExpression()), !dbg !2957
  store ptr %2, ptr %6, align 8
  call void @llvm.dbg.declare(metadata ptr %6, metadata !2958, metadata !DIExpression()), !dbg !2959
  %7 = load ptr, ptr %4, align 8
  %8 = load ptr, ptr %5, align 8, !dbg !2960
  %9 = load ptr, ptr %6, align 8, !dbg !2961
  call void @_ZNSt11_Tuple_implILm0EJPFvPiES0_EEC2IRS1_JS0_EvEEOT_DpOT0_(ptr noundef nonnull align 8 dereferenceable(16) %7, ptr noundef nonnull %8, ptr noundef nonnull align 8 dereferenceable(8) %9), !dbg !2962
  ret void, !dbg !2963
}

; Function Attrs: noinline uwtable
define linkonce_odr dso_local void @_ZNSt11_Tuple_implILm0EJPFvPiES0_EEC2IRS1_JS0_EvEEOT_DpOT0_(ptr noundef nonnull align 8 dereferenceable(16) %0, ptr noundef nonnull %1, ptr noundef nonnull align 8 dereferenceable(8) %2) unnamed_addr #0 comdat align 2 !dbg !2964 {
  %4 = alloca ptr, align 8
  %5 = alloca ptr, align 8
  %6 = alloca ptr, align 8
  %7 = alloca ptr, align 8
  store ptr %0, ptr %4, align 8
  call void @llvm.dbg.declare(metadata ptr %4, metadata !2970, metadata !DIExpression()), !dbg !2971
  store ptr %1, ptr %5, align 8
  call void @llvm.dbg.declare(metadata ptr %5, metadata !2972, metadata !DIExpression()), !dbg !2973
  store ptr %2, ptr %6, align 8
  call void @llvm.dbg.declare(metadata ptr %6, metadata !2974, metadata !DIExpression()), !dbg !2975
  %8 = load ptr, ptr %4, align 8
  %9 = load ptr, ptr %6, align 8, !dbg !2976
  call void @_ZNSt11_Tuple_implILm1EJPiEEC2IS0_EEOT_(ptr noundef nonnull align 8 dereferenceable(8) %8, ptr noundef nonnull align 8 dereferenceable(8) %9), !dbg !2977
  %10 = getelementptr inbounds i8, ptr %8, i64 8, !dbg !2978
  %11 = load ptr, ptr %5, align 8, !dbg !2979
  store ptr %11, ptr %7, align 8, !dbg !2980
  call void @_ZNSt10_Head_baseILm0EPFvPiELb0EEC2ERKS2_(ptr noundef nonnull align 8 dereferenceable(8) %10, ptr noundef nonnull align 8 dereferenceable(8) %7), !dbg !2981
  ret void, !dbg !2982
}

; Function Attrs: noinline nounwind uwtable
define linkonce_odr dso_local void @_ZNSt11_Tuple_implILm1EJPiEEC2IS0_EEOT_(ptr noundef nonnull align 8 dereferenceable(8) %0, ptr noundef nonnull align 8 dereferenceable(8) %1) unnamed_addr #6 comdat align 2 !dbg !2983 {
  %3 = alloca ptr, align 8
  %4 = alloca ptr, align 8
  store ptr %0, ptr %3, align 8
  call void @llvm.dbg.declare(metadata ptr %3, metadata !2987, metadata !DIExpression()), !dbg !2988
  store ptr %1, ptr %4, align 8
  call void @llvm.dbg.declare(metadata ptr %4, metadata !2989, metadata !DIExpression()), !dbg !2990
  %5 = load ptr, ptr %3, align 8
  %6 = load ptr, ptr %4, align 8, !dbg !2991
  call void @_ZNSt10_Head_baseILm1EPiLb0EEC2IS0_EEOT_(ptr noundef nonnull align 8 dereferenceable(8) %5, ptr noundef nonnull align 8 dereferenceable(8) %6), !dbg !2992
  ret void, !dbg !2993
}

; Function Attrs: noinline uwtable
define internal void @_GLOBAL__sub_I_testTHREADS.cpp() #0 section ".text.startup" !dbg !2994 {
  call void @__cxx_global_var_init(), !dbg !2996
  ret void
}

attributes #0 = { noinline uwtable "frame-pointer"="all" "min-legal-vector-width"="0" "no-trapping-math"="true" "stack-protector-buffer-size"="8" "target-cpu"="x86-64" "target-features"="+cmov,+cx8,+fxsr,+mmx,+sse,+sse2,+x87" "tune-cpu"="generic" }
attributes #1 = { "frame-pointer"="all" "no-trapping-math"="true" "stack-protector-buffer-size"="8" "target-cpu"="x86-64" "target-features"="+cmov,+cx8,+fxsr,+mmx,+sse,+sse2,+x87" "tune-cpu"="generic" }
attributes #2 = { nounwind "frame-pointer"="all" "no-trapping-math"="true" "stack-protector-buffer-size"="8" "target-cpu"="x86-64" "target-features"="+cmov,+cx8,+fxsr,+mmx,+sse,+sse2,+x87" "tune-cpu"="generic" }
attributes #3 = { nounwind }
attributes #4 = { mustprogress noinline uwtable "frame-pointer"="all" "min-legal-vector-width"="0" "no-trapping-math"="true" "stack-protector-buffer-size"="8" "target-cpu"="x86-64" "target-features"="+cmov,+cx8,+fxsr,+mmx,+sse,+sse2,+x87" "tune-cpu"="generic" }
attributes #5 = { nocallback nofree nosync nounwind speculatable willreturn memory(none) }
attributes #6 = { noinline nounwind uwtable "frame-pointer"="all" "min-legal-vector-width"="0" "no-trapping-math"="true" "stack-protector-buffer-size"="8" "target-cpu"="x86-64" "target-features"="+cmov,+cx8,+fxsr,+mmx,+sse,+sse2,+x87" "tune-cpu"="generic" }
attributes #7 = { mustprogress noinline norecurse uwtable "frame-pointer"="all" "min-legal-vector-width"="0" "no-trapping-math"="true" "stack-protector-buffer-size"="8" "target-cpu"="x86-64" "target-features"="+cmov,+cx8,+fxsr,+mmx,+sse,+sse2,+x87" "tune-cpu"="generic" }
attributes #8 = { mustprogress noinline nounwind uwtable "frame-pointer"="all" "min-legal-vector-width"="0" "no-trapping-math"="true" "stack-protector-buffer-size"="8" "target-cpu"="x86-64" "target-features"="+cmov,+cx8,+fxsr,+mmx,+sse,+sse2,+x87" "tune-cpu"="generic" }
attributes #9 = { noreturn nounwind "frame-pointer"="all" "no-trapping-math"="true" "stack-protector-buffer-size"="8" "target-cpu"="x86-64" "target-features"="+cmov,+cx8,+fxsr,+mmx,+sse,+sse2,+x87" "tune-cpu"="generic" }
attributes #10 = { nocallback nofree nounwind willreturn memory(argmem: readwrite) }
attributes #11 = { nobuiltin allocsize(0) "frame-pointer"="all" "no-trapping-math"="true" "stack-protector-buffer-size"="8" "target-cpu"="x86-64" "target-features"="+cmov,+cx8,+fxsr,+mmx,+sse,+sse2,+x87" "tune-cpu"="generic" }
attributes #12 = { nobuiltin nounwind "frame-pointer"="all" "no-trapping-math"="true" "stack-protector-buffer-size"="8" "target-cpu"="x86-64" "target-features"="+cmov,+cx8,+fxsr,+mmx,+sse,+sse2,+x87" "tune-cpu"="generic" }
attributes #13 = { noinline noreturn nounwind uwtable "frame-pointer"="all" "no-trapping-math"="true" "stack-protector-buffer-size"="8" "target-cpu"="x86-64" "target-features"="+cmov,+cx8,+fxsr,+mmx,+sse,+sse2,+x87" "tune-cpu"="generic" }
attributes #14 = { noreturn nounwind }
attributes #15 = { builtin allocsize(0) }
attributes #16 = { builtin nounwind }

!llvm.dbg.cu = !{!26}
!llvm.module.flags = !{!1771, !1772, !1773, !1774, !1775, !1776, !1777}
!llvm.ident = !{!1778}

!0 = !DIGlobalVariableExpression(var: !1, expr: !DIExpression())
!1 = distinct !DIGlobalVariable(name: "__ioinit", linkageName: "_ZStL8__ioinit", scope: !2, file: !3, line: 74, type: !4, isLocal: true, isDefinition: true)
!2 = !DINamespace(name: "std", scope: null)
!3 = !DIFile(filename: "/usr/lib/gcc/x86_64-linux-gnu/9/../../../../include/c++/9/iostream", directory: "")
!4 = distinct !DICompositeType(tag: DW_TAG_class_type, name: "Init", scope: !6, file: !5, line: 608, size: 8, flags: DIFlagFwdDecl | DIFlagNonTrivial, identifier: "_ZTSNSt8ios_base4InitE")
!5 = !DIFile(filename: "/usr/lib/gcc/x86_64-linux-gnu/9/../../../../include/c++/9/bits/ios_base.h", directory: "")
!6 = !DICompositeType(tag: DW_TAG_class_type, name: "ios_base", scope: !2, file: !5, line: 228, size: 1728, flags: DIFlagFwdDecl | DIFlagNonTrivial)
!7 = !DIGlobalVariableExpression(var: !8, expr: !DIExpression())
!8 = distinct !DIGlobalVariable(scope: null, file: !9, line: 6, type: !10, isLocal: true, isDefinition: true)
!9 = !DIFile(filename: "llvm/lib/Transforms/scopePass/test/testTHREADS.cpp", directory: "/home/cs23mtech12010/CCM/CCMutator/llvm-project", checksumkind: CSK_MD5, checksum: "4bc0225197bd8aede7743e4cb082dfa6")
!10 = !DICompositeType(tag: DW_TAG_array_type, baseType: !11, size: 144, elements: !13)
!11 = !DIDerivedType(tag: DW_TAG_const_type, baseType: !12)
!12 = !DIBasicType(name: "char", size: 8, encoding: DW_ATE_signed_char)
!13 = !{!14}
!14 = !DISubrange(count: 18)
!15 = !DIGlobalVariableExpression(var: !16, expr: !DIExpression())
!16 = distinct !DIGlobalVariable(scope: null, file: !9, line: 14, type: !10, isLocal: true, isDefinition: true)
!17 = !DIGlobalVariableExpression(var: !18, expr: !DIExpression())
!18 = distinct !DIGlobalVariable(scope: null, file: !9, line: 22, type: !10, isLocal: true, isDefinition: true)
!19 = !DIGlobalVariableExpression(var: !20, expr: !DIExpression())
!20 = distinct !DIGlobalVariable(scope: null, file: !9, line: 30, type: !10, isLocal: true, isDefinition: true)
!21 = !DIGlobalVariableExpression(var: !22, expr: !DIExpression())
!22 = distinct !DIGlobalVariable(scope: null, file: !9, line: 41, type: !23, isLocal: true, isDefinition: true)
!23 = !DICompositeType(tag: DW_TAG_array_type, baseType: !11, size: 136, elements: !24)
!24 = !{!25}
!25 = !DISubrange(count: 17)
!26 = distinct !DICompileUnit(language: DW_LANG_C_plus_plus_14, file: !27, producer: "clang version 17.0.0 (https://github.com/llvm/llvm-project.git 88bf774c565080e30e0a073676c316ab175303af)", isOptimized: false, runtimeVersion: 0, emissionKind: FullDebug, enums: !28, retainedTypes: !37, globals: !865, imports: !866, splitDebugInlining: false, nameTableKind: None)
!27 = !DIFile(filename: "/home/cs23mtech12010/CCM/CCMutator/llvm-project/llvm/lib/Transforms/scopePass/test/testTHREADS.cpp", directory: "/home/cs23mtech12010/CCM/CCMutator/llvm-project/build", checksumkind: CSK_MD5, checksum: "4bc0225197bd8aede7743e4cb082dfa6")
!28 = !{!29}
!29 = distinct !DICompositeType(tag: DW_TAG_enumeration_type, name: "_Lock_policy", scope: !31, file: !30, line: 49, baseType: !32, size: 32, elements: !33, identifier: "_ZTSN9__gnu_cxx12_Lock_policyE")
!30 = !DIFile(filename: "/usr/lib/gcc/x86_64-linux-gnu/9/../../../../include/c++/9/ext/concurrence.h", directory: "")
!31 = !DINamespace(name: "__gnu_cxx", scope: null)
!32 = !DIBasicType(name: "unsigned int", size: 32, encoding: DW_ATE_unsigned)
!33 = !{!34, !35, !36}
!34 = !DIEnumerator(name: "_S_single", value: 0, isUnsigned: true)
!35 = !DIEnumerator(name: "_S_mutex", value: 1, isUnsigned: true)
!36 = !DIEnumerator(name: "_S_atomic", value: 2, isUnsigned: true)
!37 = !{!38, !41, !71, !86, !88, !161, !158, !196, !155, !262, !152, !148, !145, !141, !485, !519, !553, !587, !634, !666, !675, !709, !743, !777, !824, !856}
!38 = !DIDerivedType(tag: DW_TAG_pointer_type, baseType: !39, size: 64)
!39 = !DISubroutineType(types: !40)
!40 = !{null}
!41 = !DIDerivedType(tag: DW_TAG_typedef, name: "__tag", scope: !43, file: !42, line: 94, baseType: !64)
!42 = !DIFile(filename: "/usr/lib/gcc/x86_64-linux-gnu/9/../../../../include/c++/9/bits/invoke.h", directory: "")
!43 = distinct !DISubprogram(name: "__invoke<void (*)(int *), int *>", linkageName: "_ZSt8__invokeIPFvPiEJS0_EENSt15__invoke_resultIT_JDpT0_EE4typeEOS4_DpOS5_", scope: !2, file: !42, line: 89, type: !44, scopeLine: 91, flags: DIFlagPrototyped, spFlags: DISPFlagDefinition, unit: !26, templateParams: !59, retainedNodes: !49)
!44 = !DISubroutineType(types: !45)
!45 = !{!46, !52, !58}
!46 = !DIDerivedType(tag: DW_TAG_typedef, name: "type", scope: !48, file: !47, line: 187, baseType: null)
!47 = !DIFile(filename: "/usr/lib/gcc/x86_64-linux-gnu/9/../../../../include/c++/9/type_traits", directory: "")
!48 = distinct !DICompositeType(tag: DW_TAG_structure_type, name: "__success_type<void>", scope: !2, file: !47, line: 186, size: 8, flags: DIFlagTypePassByValue, elements: !49, templateParams: !50, identifier: "_ZTSSt14__success_typeIvE")
!49 = !{}
!50 = !{!51}
!51 = !DITemplateTypeParameter(name: "_Tp", type: null)
!52 = !DIDerivedType(tag: DW_TAG_rvalue_reference_type, baseType: !53, size: 64)
!53 = !DIDerivedType(tag: DW_TAG_pointer_type, baseType: !54, size: 64)
!54 = !DISubroutineType(types: !55)
!55 = !{null, !56}
!56 = !DIDerivedType(tag: DW_TAG_pointer_type, baseType: !57, size: 64)
!57 = !DIBasicType(name: "int", size: 32, encoding: DW_ATE_signed)
!58 = !DIDerivedType(tag: DW_TAG_rvalue_reference_type, baseType: !56, size: 64)
!59 = !{!60, !61}
!60 = !DITemplateTypeParameter(name: "_Callable", type: !53)
!61 = !DITemplateValueParameter(tag: DW_TAG_GNU_template_parameter_pack, name: "_Args", value: !62)
!62 = !{!63}
!63 = !DITemplateTypeParameter(type: !56)
!64 = !DIDerivedType(tag: DW_TAG_typedef, name: "__invoke_type", scope: !65, file: !47, line: 2183, baseType: !70)
!65 = distinct !DICompositeType(tag: DW_TAG_structure_type, name: "__result_of_success<void, std::__invoke_other>", scope: !2, file: !47, line: 2182, size: 8, flags: DIFlagTypePassByValue, elements: !66, templateParams: !68, identifier: "_ZTSSt19__result_of_successIvSt14__invoke_otherE")
!66 = !{!67}
!67 = !DIDerivedType(tag: DW_TAG_inheritance, scope: !65, baseType: !48, extraData: i32 0)
!68 = !{!51, !69}
!69 = !DITemplateTypeParameter(name: "_Tag", type: !70)
!70 = distinct !DICompositeType(tag: DW_TAG_structure_type, name: "__invoke_other", scope: !2, file: !47, line: 2178, size: 8, flags: DIFlagTypePassByValue, elements: !49, identifier: "_ZTSSt14__invoke_other")
!71 = !DIDerivedType(tag: DW_TAG_typedef, name: "__tag", scope: !72, file: !42, line: 94, baseType: !64)
!72 = distinct !DISubprogram(name: "__invoke<void (*)(int **), int **>", linkageName: "_ZSt8__invokeIPFvPPiEJS1_EENSt15__invoke_resultIT_JDpT0_EE4typeEOS5_DpOS6_", scope: !2, file: !42, line: 89, type: !73, scopeLine: 91, flags: DIFlagPrototyped, spFlags: DISPFlagDefinition, unit: !26, templateParams: !81, retainedNodes: !49)
!73 = !DISubroutineType(types: !74)
!74 = !{!46, !75, !80}
!75 = !DIDerivedType(tag: DW_TAG_rvalue_reference_type, baseType: !76, size: 64)
!76 = !DIDerivedType(tag: DW_TAG_pointer_type, baseType: !77, size: 64)
!77 = !DISubroutineType(types: !78)
!78 = !{null, !79}
!79 = !DIDerivedType(tag: DW_TAG_pointer_type, baseType: !56, size: 64)
!80 = !DIDerivedType(tag: DW_TAG_rvalue_reference_type, baseType: !79, size: 64)
!81 = !{!82, !83}
!82 = !DITemplateTypeParameter(name: "_Callable", type: !76)
!83 = !DITemplateValueParameter(tag: DW_TAG_GNU_template_parameter_pack, name: "_Args", value: !84)
!84 = !{!85}
!85 = !DITemplateTypeParameter(type: !79)
!86 = distinct !DICompositeType(tag: DW_TAG_class_type, name: "id", scope: !88, file: !87, line: 77, size: 64, flags: DIFlagPublic | DIFlagTypePassByValue | DIFlagNonTrivial, elements: !476, identifier: "_ZTSNSt6thread2idE")
!87 = !DIFile(filename: "/usr/lib/gcc/x86_64-linux-gnu/9/../../../../include/c++/9/thread", directory: "")
!88 = distinct !DICompositeType(tag: DW_TAG_class_type, name: "thread", scope: !2, file: !87, line: 62, size: 64, flags: DIFlagTypePassByReference | DIFlagNonTrivial, elements: !89, identifier: "_ZTSSt6thread")
!89 = !{!90, !91, !95, !96, !101, !105, !109, !112, !115, !120, !121, !122, !125, !134, !137}
!90 = !DIDerivedType(tag: DW_TAG_member, name: "_M_id", scope: !88, file: !87, line: 103, baseType: !86, size: 64)
!91 = !DISubprogram(name: "thread", scope: !88, file: !87, line: 112, type: !92, scopeLine: 112, flags: DIFlagPublic | DIFlagPrototyped, spFlags: 0)
!92 = !DISubroutineType(types: !93)
!93 = !{null, !94}
!94 = !DIDerivedType(tag: DW_TAG_pointer_type, baseType: !88, size: 64, flags: DIFlagArtificial | DIFlagObjectPointer)
!95 = !DISubprogram(name: "~thread", scope: !88, file: !87, line: 136, type: !92, scopeLine: 136, flags: DIFlagPublic | DIFlagPrototyped, spFlags: 0)
!96 = !DISubprogram(name: "thread", scope: !88, file: !87, line: 142, type: !97, scopeLine: 142, flags: DIFlagPublic | DIFlagPrototyped, spFlags: DISPFlagDeleted)
!97 = !DISubroutineType(types: !98)
!98 = !{null, !94, !99}
!99 = !DIDerivedType(tag: DW_TAG_reference_type, baseType: !100, size: 64)
!100 = !DIDerivedType(tag: DW_TAG_const_type, baseType: !88)
!101 = !DISubprogram(name: "thread", scope: !88, file: !87, line: 144, type: !102, scopeLine: 144, flags: DIFlagPublic | DIFlagPrototyped, spFlags: 0)
!102 = !DISubroutineType(types: !103)
!103 = !{null, !94, !104}
!104 = !DIDerivedType(tag: DW_TAG_rvalue_reference_type, baseType: !88, size: 64)
!105 = !DISubprogram(name: "operator=", linkageName: "_ZNSt6threadaSERKS_", scope: !88, file: !87, line: 147, type: !106, scopeLine: 147, flags: DIFlagPublic | DIFlagPrototyped, spFlags: DISPFlagDeleted)
!106 = !DISubroutineType(types: !107)
!107 = !{!108, !94, !99}
!108 = !DIDerivedType(tag: DW_TAG_reference_type, baseType: !88, size: 64)
!109 = !DISubprogram(name: "operator=", linkageName: "_ZNSt6threadaSEOS_", scope: !88, file: !87, line: 149, type: !110, scopeLine: 149, flags: DIFlagPublic | DIFlagPrototyped, spFlags: 0)
!110 = !DISubroutineType(types: !111)
!111 = !{!108, !94, !104}
!112 = !DISubprogram(name: "swap", linkageName: "_ZNSt6thread4swapERS_", scope: !88, file: !87, line: 158, type: !113, scopeLine: 158, flags: DIFlagPublic | DIFlagPrototyped, spFlags: 0)
!113 = !DISubroutineType(types: !114)
!114 = !{null, !94, !108}
!115 = !DISubprogram(name: "joinable", linkageName: "_ZNKSt6thread8joinableEv", scope: !88, file: !87, line: 162, type: !116, scopeLine: 162, flags: DIFlagPublic | DIFlagPrototyped, spFlags: 0)
!116 = !DISubroutineType(types: !117)
!117 = !{!118, !119}
!118 = !DIBasicType(name: "bool", size: 8, encoding: DW_ATE_boolean)
!119 = !DIDerivedType(tag: DW_TAG_pointer_type, baseType: !100, size: 64, flags: DIFlagArtificial | DIFlagObjectPointer)
!120 = !DISubprogram(name: "join", linkageName: "_ZNSt6thread4joinEv", scope: !88, file: !87, line: 166, type: !92, scopeLine: 166, flags: DIFlagPublic | DIFlagPrototyped, spFlags: 0)
!121 = !DISubprogram(name: "detach", linkageName: "_ZNSt6thread6detachEv", scope: !88, file: !87, line: 169, type: !92, scopeLine: 169, flags: DIFlagPublic | DIFlagPrototyped, spFlags: 0)
!122 = !DISubprogram(name: "get_id", linkageName: "_ZNKSt6thread6get_idEv", scope: !88, file: !87, line: 172, type: !123, scopeLine: 172, flags: DIFlagPublic | DIFlagPrototyped, spFlags: 0)
!123 = !DISubroutineType(types: !124)
!124 = !{!86, !119}
!125 = !DISubprogram(name: "native_handle", linkageName: "_ZNSt6thread13native_handleEv", scope: !88, file: !87, line: 178, type: !126, scopeLine: 178, flags: DIFlagPublic | DIFlagPrototyped, spFlags: 0)
!126 = !DISubroutineType(types: !127)
!127 = !{!128, !94}
!128 = !DIDerivedType(tag: DW_TAG_typedef, name: "native_handle_type", scope: !88, file: !87, line: 74, baseType: !129, flags: DIFlagPublic)
!129 = !DIDerivedType(tag: DW_TAG_typedef, name: "__gthread_t", file: !130, line: 47, baseType: !131)
!130 = !DIFile(filename: "/usr/lib/gcc/x86_64-linux-gnu/9/../../../../include/x86_64-linux-gnu/c++/9/bits/gthr-default.h", directory: "", checksumkind: CSK_MD5, checksum: "253e44fcd2f3f0e77bbc192d0d6a84c4")
!131 = !DIDerivedType(tag: DW_TAG_typedef, name: "pthread_t", file: !132, line: 27, baseType: !133)
!132 = !DIFile(filename: "/usr/include/x86_64-linux-gnu/bits/pthreadtypes.h", directory: "", checksumkind: CSK_MD5, checksum: "2d764266ce95ab26d4a4767c2ec78176")
!133 = !DIBasicType(name: "unsigned long", size: 64, encoding: DW_ATE_unsigned)
!134 = !DISubprogram(name: "hardware_concurrency", linkageName: "_ZNSt6thread20hardware_concurrencyEv", scope: !88, file: !87, line: 183, type: !135, scopeLine: 183, flags: DIFlagPublic | DIFlagPrototyped | DIFlagStaticMember, spFlags: 0)
!135 = !DISubroutineType(types: !136)
!136 = !{!32}
!137 = !DISubprogram(name: "_M_start_thread", linkageName: "_ZNSt6thread15_M_start_threadESt10unique_ptrINS_6_StateESt14default_deleteIS1_EEPFvvE", scope: !88, file: !87, line: 199, type: !138, scopeLine: 199, flags: DIFlagPrototyped, spFlags: 0)
!138 = !DISubroutineType(types: !139)
!139 = !{null, !94, !140, !38}
!140 = !DIDerivedType(tag: DW_TAG_typedef, name: "_State_ptr", scope: !88, file: !87, line: 72, baseType: !141, flags: DIFlagPublic)
!141 = distinct !DICompositeType(tag: DW_TAG_class_type, name: "unique_ptr<std::thread::_State, std::default_delete<std::thread::_State> >", scope: !2, file: !142, line: 172, size: 64, flags: DIFlagTypePassByReference | DIFlagNonTrivial, elements: !143, templateParams: !474, identifier: "_ZTSSt10unique_ptrINSt6thread6_StateESt14default_deleteIS1_EE")
!142 = !DIFile(filename: "/usr/lib/gcc/x86_64-linux-gnu/9/../../../../include/c++/9/bits/unique_ptr.h", directory: "", checksumkind: CSK_MD5, checksum: "72e397db6755d8096e32ba700f5c5576")
!143 = !{!144, !413, !418, !421, !425, !431, !440, !444, !445, !450, !455, !458, !461, !464, !467, !471}
!144 = !DIDerivedType(tag: DW_TAG_member, name: "_M_t", scope: !141, file: !142, line: 178, baseType: !145, size: 64)
!145 = distinct !DICompositeType(tag: DW_TAG_class_type, name: "__uniq_ptr_impl<std::thread::_State, std::default_delete<std::thread::_State> >", scope: !2, file: !142, line: 120, size: 64, flags: DIFlagTypePassByReference | DIFlagNonTrivial, elements: !146, templateParams: !411, identifier: "_ZTSSt15__uniq_ptr_implINSt6thread6_StateESt14default_deleteIS1_EE")
!146 = !{!147, !378, !382, !392, !396, !401, !404, !407}
!147 = !DIDerivedType(tag: DW_TAG_member, name: "_M_t", scope: !145, file: !142, line: 167, baseType: !148, size: 64)
!148 = distinct !DICompositeType(tag: DW_TAG_class_type, name: "tuple<std::thread::_State *, std::default_delete<std::thread::_State> >", scope: !2, file: !149, line: 893, size: 64, flags: DIFlagTypePassByReference | DIFlagNonTrivial, elements: !150, templateParams: !377, identifier: "_ZTSSt5tupleIJPNSt6thread6_StateESt14default_deleteIS1_EEE")
!149 = !DIFile(filename: "/usr/lib/gcc/x86_64-linux-gnu/9/../../../../include/c++/9/tuple", directory: "")
!150 = !{!151, !341, !347, !351, !365, !374}
!151 = !DIDerivedType(tag: DW_TAG_inheritance, scope: !148, baseType: !152, flags: DIFlagPublic, extraData: i32 0)
!152 = distinct !DICompositeType(tag: DW_TAG_structure_type, name: "_Tuple_impl<0UL, std::thread::_State *, std::default_delete<std::thread::_State> >", scope: !2, file: !149, line: 185, size: 64, flags: DIFlagTypePassByReference | DIFlagNonTrivial, elements: !153, templateParams: !337, identifier: "_ZTSSt11_Tuple_implILm0EJPNSt6thread6_StateESt14default_deleteIS1_EEE")
!153 = !{!154, !261, !298, !302, !307, !312, !317, !321, !324, !327, !330, !334}
!154 = !DIDerivedType(tag: DW_TAG_inheritance, scope: !152, baseType: !155, extraData: i32 0)
!155 = distinct !DICompositeType(tag: DW_TAG_structure_type, name: "_Tuple_impl<1UL, std::default_delete<std::thread::_State> >", scope: !2, file: !149, line: 326, size: 8, flags: DIFlagTypePassByReference | DIFlagNonTrivial, elements: !156, templateParams: !257, identifier: "_ZTSSt11_Tuple_implILm1EJSt14default_deleteINSt6thread6_StateEEEE")
!156 = !{!157, !228, !232, !237, !241, !244, !247, !250, !254}
!157 = !DIDerivedType(tag: DW_TAG_inheritance, scope: !155, baseType: !158, flags: DIFlagPrivate, extraData: i32 0)
!158 = distinct !DICompositeType(tag: DW_TAG_structure_type, name: "_Head_base<1UL, std::default_delete<std::thread::_State>, true>", scope: !2, file: !149, line: 73, size: 8, flags: DIFlagTypePassByValue | DIFlagNonTrivial, elements: !159, templateParams: !224, identifier: "_ZTSSt10_Head_baseILm1ESt14default_deleteINSt6thread6_StateEELb1EE")
!159 = !{!160, !176, !180, !184, !189, !193, !216, !221}
!160 = !DIDerivedType(tag: DW_TAG_inheritance, scope: !158, baseType: !161, extraData: i32 0)
!161 = distinct !DICompositeType(tag: DW_TAG_structure_type, name: "default_delete<std::thread::_State>", scope: !2, file: !142, line: 59, size: 8, flags: DIFlagTypePassByValue, elements: !162, templateParams: !174, identifier: "_ZTSSt14default_deleteINSt6thread6_StateEE")
!162 = !{!163, !167}
!163 = !DISubprogram(name: "default_delete", scope: !161, file: !142, line: 62, type: !164, scopeLine: 62, flags: DIFlagPrototyped, spFlags: 0)
!164 = !DISubroutineType(types: !165)
!165 = !{null, !166}
!166 = !DIDerivedType(tag: DW_TAG_pointer_type, baseType: !161, size: 64, flags: DIFlagArtificial | DIFlagObjectPointer)
!167 = !DISubprogram(name: "operator()", linkageName: "_ZNKSt14default_deleteINSt6thread6_StateEEclEPS1_", scope: !161, file: !142, line: 75, type: !168, scopeLine: 75, flags: DIFlagPrototyped, spFlags: 0)
!168 = !DISubroutineType(types: !169)
!169 = !{null, !170, !172}
!170 = !DIDerivedType(tag: DW_TAG_pointer_type, baseType: !171, size: 64, flags: DIFlagArtificial | DIFlagObjectPointer)
!171 = !DIDerivedType(tag: DW_TAG_const_type, baseType: !161)
!172 = !DIDerivedType(tag: DW_TAG_pointer_type, baseType: !173, size: 64)
!173 = !DICompositeType(tag: DW_TAG_structure_type, name: "_State", scope: !88, file: !87, line: 67, size: 64, flags: DIFlagFwdDecl | DIFlagNonTrivial)
!174 = !{!175}
!175 = !DITemplateTypeParameter(name: "_Tp", type: !173)
!176 = !DISubprogram(name: "_Head_base", scope: !158, file: !149, line: 76, type: !177, scopeLine: 76, flags: DIFlagPrototyped, spFlags: 0)
!177 = !DISubroutineType(types: !178)
!178 = !{null, !179}
!179 = !DIDerivedType(tag: DW_TAG_pointer_type, baseType: !158, size: 64, flags: DIFlagArtificial | DIFlagObjectPointer)
!180 = !DISubprogram(name: "_Head_base", scope: !158, file: !149, line: 79, type: !181, scopeLine: 79, flags: DIFlagPrototyped, spFlags: 0)
!181 = !DISubroutineType(types: !182)
!182 = !{null, !179, !183}
!183 = !DIDerivedType(tag: DW_TAG_reference_type, baseType: !171, size: 64)
!184 = !DISubprogram(name: "_Head_base", scope: !158, file: !149, line: 82, type: !185, scopeLine: 82, flags: DIFlagPrototyped, spFlags: 0)
!185 = !DISubroutineType(types: !186)
!186 = !{null, !179, !187}
!187 = !DIDerivedType(tag: DW_TAG_reference_type, baseType: !188, size: 64)
!188 = !DIDerivedType(tag: DW_TAG_const_type, baseType: !158)
!189 = !DISubprogram(name: "_Head_base", scope: !158, file: !149, line: 83, type: !190, scopeLine: 83, flags: DIFlagPrototyped, spFlags: 0)
!190 = !DISubroutineType(types: !191)
!191 = !{null, !179, !192}
!192 = !DIDerivedType(tag: DW_TAG_rvalue_reference_type, baseType: !158, size: 64)
!193 = !DISubprogram(name: "_Head_base", scope: !158, file: !149, line: 89, type: !194, scopeLine: 89, flags: DIFlagPrototyped, spFlags: 0)
!194 = !DISubroutineType(types: !195)
!195 = !{null, !179, !196, !203}
!196 = distinct !DICompositeType(tag: DW_TAG_structure_type, name: "allocator_arg_t", scope: !2, file: !197, line: 50, size: 8, flags: DIFlagTypePassByValue, elements: !198, identifier: "_ZTSSt15allocator_arg_t")
!197 = !DIFile(filename: "/usr/lib/gcc/x86_64-linux-gnu/9/../../../../include/c++/9/bits/uses_allocator.h", directory: "", checksumkind: CSK_MD5, checksum: "1053e71b8fd4aced4cd00e8f7c0e6347")
!198 = !{!199}
!199 = !DISubprogram(name: "allocator_arg_t", scope: !196, file: !197, line: 50, type: !200, scopeLine: 50, flags: DIFlagExplicit | DIFlagPrototyped, spFlags: 0)
!200 = !DISubroutineType(types: !201)
!201 = !{null, !202}
!202 = !DIDerivedType(tag: DW_TAG_pointer_type, baseType: !196, size: 64, flags: DIFlagArtificial | DIFlagObjectPointer)
!203 = distinct !DICompositeType(tag: DW_TAG_structure_type, name: "__uses_alloc0", scope: !2, file: !197, line: 73, size: 8, flags: DIFlagTypePassByValue, elements: !204, identifier: "_ZTSSt13__uses_alloc0")
!204 = !{!205, !207}
!205 = !DIDerivedType(tag: DW_TAG_inheritance, scope: !203, baseType: !206, extraData: i32 0)
!206 = distinct !DICompositeType(tag: DW_TAG_structure_type, name: "__uses_alloc_base", scope: !2, file: !197, line: 71, size: 8, flags: DIFlagTypePassByValue, elements: !49, identifier: "_ZTSSt17__uses_alloc_base")
!207 = !DIDerivedType(tag: DW_TAG_member, name: "_M_a", scope: !203, file: !197, line: 75, baseType: !208, size: 8)
!208 = distinct !DICompositeType(tag: DW_TAG_structure_type, name: "_Sink", scope: !203, file: !197, line: 75, size: 8, flags: DIFlagTypePassByValue, elements: !209, identifier: "_ZTSNSt13__uses_alloc05_SinkE")
!209 = !{!210}
!210 = !DISubprogram(name: "operator=", linkageName: "_ZNSt13__uses_alloc05_SinkaSEPKv", scope: !208, file: !197, line: 75, type: !211, scopeLine: 75, flags: DIFlagPrototyped, spFlags: 0)
!211 = !DISubroutineType(types: !212)
!212 = !{null, !213, !214}
!213 = !DIDerivedType(tag: DW_TAG_pointer_type, baseType: !208, size: 64, flags: DIFlagArtificial | DIFlagObjectPointer)
!214 = !DIDerivedType(tag: DW_TAG_pointer_type, baseType: !215, size: 64)
!215 = !DIDerivedType(tag: DW_TAG_const_type, baseType: null)
!216 = !DISubprogram(name: "_M_head", linkageName: "_ZNSt10_Head_baseILm1ESt14default_deleteINSt6thread6_StateEELb1EE7_M_headERS4_", scope: !158, file: !149, line: 113, type: !217, scopeLine: 113, flags: DIFlagPrototyped | DIFlagStaticMember, spFlags: 0)
!217 = !DISubroutineType(types: !218)
!218 = !{!219, !220}
!219 = !DIDerivedType(tag: DW_TAG_reference_type, baseType: !161, size: 64)
!220 = !DIDerivedType(tag: DW_TAG_reference_type, baseType: !158, size: 64)
!221 = !DISubprogram(name: "_M_head", linkageName: "_ZNSt10_Head_baseILm1ESt14default_deleteINSt6thread6_StateEELb1EE7_M_headERKS4_", scope: !158, file: !149, line: 116, type: !222, scopeLine: 116, flags: DIFlagPrototyped | DIFlagStaticMember, spFlags: 0)
!222 = !DISubroutineType(types: !223)
!223 = !{!183, !187}
!224 = !{!225, !226, !227}
!225 = !DITemplateValueParameter(name: "_Idx", type: !133, value: i64 1)
!226 = !DITemplateTypeParameter(name: "_Head", type: !161)
!227 = !DITemplateValueParameter(type: !118, defaulted: true, value: i1 true)
!228 = !DISubprogram(name: "_M_head", linkageName: "_ZNSt11_Tuple_implILm1EJSt14default_deleteINSt6thread6_StateEEEE7_M_headERS4_", scope: !155, file: !149, line: 334, type: !229, scopeLine: 334, flags: DIFlagPrototyped | DIFlagStaticMember, spFlags: 0)
!229 = !DISubroutineType(types: !230)
!230 = !{!219, !231}
!231 = !DIDerivedType(tag: DW_TAG_reference_type, baseType: !155, size: 64)
!232 = !DISubprogram(name: "_M_head", linkageName: "_ZNSt11_Tuple_implILm1EJSt14default_deleteINSt6thread6_StateEEEE7_M_headERKS4_", scope: !155, file: !149, line: 337, type: !233, scopeLine: 337, flags: DIFlagPrototyped | DIFlagStaticMember, spFlags: 0)
!233 = !DISubroutineType(types: !234)
!234 = !{!183, !235}
!235 = !DIDerivedType(tag: DW_TAG_reference_type, baseType: !236, size: 64)
!236 = !DIDerivedType(tag: DW_TAG_const_type, baseType: !155)
!237 = !DISubprogram(name: "_Tuple_impl", scope: !155, file: !149, line: 339, type: !238, scopeLine: 339, flags: DIFlagPrototyped, spFlags: 0)
!238 = !DISubroutineType(types: !239)
!239 = !{null, !240}
!240 = !DIDerivedType(tag: DW_TAG_pointer_type, baseType: !155, size: 64, flags: DIFlagArtificial | DIFlagObjectPointer)
!241 = !DISubprogram(name: "_Tuple_impl", scope: !155, file: !149, line: 343, type: !242, scopeLine: 343, flags: DIFlagExplicit | DIFlagPrototyped, spFlags: 0)
!242 = !DISubroutineType(types: !243)
!243 = !{null, !240, !183}
!244 = !DISubprogram(name: "_Tuple_impl", scope: !155, file: !149, line: 351, type: !245, scopeLine: 351, flags: DIFlagPrototyped, spFlags: 0)
!245 = !DISubroutineType(types: !246)
!246 = !{null, !240, !235}
!247 = !DISubprogram(name: "operator=", linkageName: "_ZNSt11_Tuple_implILm1EJSt14default_deleteINSt6thread6_StateEEEEaSERKS4_", scope: !155, file: !149, line: 355, type: !248, scopeLine: 355, flags: DIFlagPrototyped, spFlags: DISPFlagDeleted)
!248 = !DISubroutineType(types: !249)
!249 = !{!231, !240, !235}
!250 = !DISubprogram(name: "_Tuple_impl", scope: !155, file: !149, line: 358, type: !251, scopeLine: 358, flags: DIFlagPrototyped, spFlags: 0)
!251 = !DISubroutineType(types: !252)
!252 = !{null, !240, !253}
!253 = !DIDerivedType(tag: DW_TAG_rvalue_reference_type, baseType: !155, size: 64)
!254 = !DISubprogram(name: "_M_swap", linkageName: "_ZNSt11_Tuple_implILm1EJSt14default_deleteINSt6thread6_StateEEEE7_M_swapERS4_", scope: !155, file: !149, line: 427, type: !255, scopeLine: 427, flags: DIFlagProtected | DIFlagPrototyped, spFlags: 0)
!255 = !DISubroutineType(types: !256)
!256 = !{null, !240, !231}
!257 = !{!225, !258}
!258 = !DITemplateValueParameter(tag: DW_TAG_GNU_template_parameter_pack, name: "_Elements", value: !259)
!259 = !{!260}
!260 = !DITemplateTypeParameter(type: !161)
!261 = !DIDerivedType(tag: DW_TAG_inheritance, scope: !152, baseType: !262, flags: DIFlagPrivate, extraData: i32 0)
!262 = distinct !DICompositeType(tag: DW_TAG_structure_type, name: "_Head_base<0UL, std::thread::_State *, false>", scope: !2, file: !149, line: 120, size: 64, flags: DIFlagTypePassByValue | DIFlagNonTrivial, elements: !263, templateParams: !294, identifier: "_ZTSSt10_Head_baseILm0EPNSt6thread6_StateELb0EE")
!263 = !{!264, !265, !269, !274, !279, !283, !286, !291}
!264 = !DIDerivedType(tag: DW_TAG_member, name: "_M_head_impl", scope: !262, file: !149, line: 165, baseType: !172, size: 64)
!265 = !DISubprogram(name: "_Head_base", scope: !262, file: !149, line: 122, type: !266, scopeLine: 122, flags: DIFlagPrototyped, spFlags: 0)
!266 = !DISubroutineType(types: !267)
!267 = !{null, !268}
!268 = !DIDerivedType(tag: DW_TAG_pointer_type, baseType: !262, size: 64, flags: DIFlagArtificial | DIFlagObjectPointer)
!269 = !DISubprogram(name: "_Head_base", scope: !262, file: !149, line: 125, type: !270, scopeLine: 125, flags: DIFlagPrototyped, spFlags: 0)
!270 = !DISubroutineType(types: !271)
!271 = !{null, !268, !272}
!272 = !DIDerivedType(tag: DW_TAG_reference_type, baseType: !273, size: 64)
!273 = !DIDerivedType(tag: DW_TAG_const_type, baseType: !172)
!274 = !DISubprogram(name: "_Head_base", scope: !262, file: !149, line: 128, type: !275, scopeLine: 128, flags: DIFlagPrototyped, spFlags: 0)
!275 = !DISubroutineType(types: !276)
!276 = !{null, !268, !277}
!277 = !DIDerivedType(tag: DW_TAG_reference_type, baseType: !278, size: 64)
!278 = !DIDerivedType(tag: DW_TAG_const_type, baseType: !262)
!279 = !DISubprogram(name: "_Head_base", scope: !262, file: !149, line: 129, type: !280, scopeLine: 129, flags: DIFlagPrototyped, spFlags: 0)
!280 = !DISubroutineType(types: !281)
!281 = !{null, !268, !282}
!282 = !DIDerivedType(tag: DW_TAG_rvalue_reference_type, baseType: !262, size: 64)
!283 = !DISubprogram(name: "_Head_base", scope: !262, file: !149, line: 135, type: !284, scopeLine: 135, flags: DIFlagPrototyped, spFlags: 0)
!284 = !DISubroutineType(types: !285)
!285 = !{null, !268, !196, !203}
!286 = !DISubprogram(name: "_M_head", linkageName: "_ZNSt10_Head_baseILm0EPNSt6thread6_StateELb0EE7_M_headERS3_", scope: !262, file: !149, line: 160, type: !287, scopeLine: 160, flags: DIFlagPrototyped | DIFlagStaticMember, spFlags: 0)
!287 = !DISubroutineType(types: !288)
!288 = !{!289, !290}
!289 = !DIDerivedType(tag: DW_TAG_reference_type, baseType: !172, size: 64)
!290 = !DIDerivedType(tag: DW_TAG_reference_type, baseType: !262, size: 64)
!291 = !DISubprogram(name: "_M_head", linkageName: "_ZNSt10_Head_baseILm0EPNSt6thread6_StateELb0EE7_M_headERKS3_", scope: !262, file: !149, line: 163, type: !292, scopeLine: 163, flags: DIFlagPrototyped | DIFlagStaticMember, spFlags: 0)
!292 = !DISubroutineType(types: !293)
!293 = !{!272, !277}
!294 = !{!295, !296, !297}
!295 = !DITemplateValueParameter(name: "_Idx", type: !133, value: i64 0)
!296 = !DITemplateTypeParameter(name: "_Head", type: !172)
!297 = !DITemplateValueParameter(type: !118, defaulted: true, value: i1 false)
!298 = !DISubprogram(name: "_M_head", linkageName: "_ZNSt11_Tuple_implILm0EJPNSt6thread6_StateESt14default_deleteIS1_EEE7_M_headERS5_", scope: !152, file: !149, line: 195, type: !299, scopeLine: 195, flags: DIFlagPrototyped | DIFlagStaticMember, spFlags: 0)
!299 = !DISubroutineType(types: !300)
!300 = !{!289, !301}
!301 = !DIDerivedType(tag: DW_TAG_reference_type, baseType: !152, size: 64)
!302 = !DISubprogram(name: "_M_head", linkageName: "_ZNSt11_Tuple_implILm0EJPNSt6thread6_StateESt14default_deleteIS1_EEE7_M_headERKS5_", scope: !152, file: !149, line: 198, type: !303, scopeLine: 198, flags: DIFlagPrototyped | DIFlagStaticMember, spFlags: 0)
!303 = !DISubroutineType(types: !304)
!304 = !{!272, !305}
!305 = !DIDerivedType(tag: DW_TAG_reference_type, baseType: !306, size: 64)
!306 = !DIDerivedType(tag: DW_TAG_const_type, baseType: !152)
!307 = !DISubprogram(name: "_M_tail", linkageName: "_ZNSt11_Tuple_implILm0EJPNSt6thread6_StateESt14default_deleteIS1_EEE7_M_tailERS5_", scope: !152, file: !149, line: 201, type: !308, scopeLine: 201, flags: DIFlagPrototyped | DIFlagStaticMember, spFlags: 0)
!308 = !DISubroutineType(types: !309)
!309 = !{!310, !301}
!310 = !DIDerivedType(tag: DW_TAG_reference_type, baseType: !311, size: 64)
!311 = !DIDerivedType(tag: DW_TAG_typedef, name: "_Inherited", scope: !152, file: !149, line: 191, baseType: !155)
!312 = !DISubprogram(name: "_M_tail", linkageName: "_ZNSt11_Tuple_implILm0EJPNSt6thread6_StateESt14default_deleteIS1_EEE7_M_tailERKS5_", scope: !152, file: !149, line: 204, type: !313, scopeLine: 204, flags: DIFlagPrototyped | DIFlagStaticMember, spFlags: 0)
!313 = !DISubroutineType(types: !314)
!314 = !{!315, !305}
!315 = !DIDerivedType(tag: DW_TAG_reference_type, baseType: !316, size: 64)
!316 = !DIDerivedType(tag: DW_TAG_const_type, baseType: !311)
!317 = !DISubprogram(name: "_Tuple_impl", scope: !152, file: !149, line: 206, type: !318, scopeLine: 206, flags: DIFlagPrototyped, spFlags: 0)
!318 = !DISubroutineType(types: !319)
!319 = !{null, !320}
!320 = !DIDerivedType(tag: DW_TAG_pointer_type, baseType: !152, size: 64, flags: DIFlagArtificial | DIFlagObjectPointer)
!321 = !DISubprogram(name: "_Tuple_impl", scope: !152, file: !149, line: 210, type: !322, scopeLine: 210, flags: DIFlagExplicit | DIFlagPrototyped, spFlags: 0)
!322 = !DISubroutineType(types: !323)
!323 = !{null, !320, !272, !183}
!324 = !DISubprogram(name: "_Tuple_impl", scope: !152, file: !149, line: 220, type: !325, scopeLine: 220, flags: DIFlagPrototyped, spFlags: 0)
!325 = !DISubroutineType(types: !326)
!326 = !{null, !320, !305}
!327 = !DISubprogram(name: "operator=", linkageName: "_ZNSt11_Tuple_implILm0EJPNSt6thread6_StateESt14default_deleteIS1_EEEaSERKS5_", scope: !152, file: !149, line: 224, type: !328, scopeLine: 224, flags: DIFlagPrototyped, spFlags: DISPFlagDeleted)
!328 = !DISubroutineType(types: !329)
!329 = !{!301, !320, !305}
!330 = !DISubprogram(name: "_Tuple_impl", scope: !152, file: !149, line: 227, type: !331, scopeLine: 227, flags: DIFlagPrototyped, spFlags: 0)
!331 = !DISubroutineType(types: !332)
!332 = !{null, !320, !333}
!333 = !DIDerivedType(tag: DW_TAG_rvalue_reference_type, baseType: !152, size: 64)
!334 = !DISubprogram(name: "_M_swap", linkageName: "_ZNSt11_Tuple_implILm0EJPNSt6thread6_StateESt14default_deleteIS1_EEE7_M_swapERS5_", scope: !152, file: !149, line: 316, type: !335, scopeLine: 316, flags: DIFlagProtected | DIFlagPrototyped, spFlags: 0)
!335 = !DISubroutineType(types: !336)
!336 = !{null, !320, !301}
!337 = !{!295, !338}
!338 = !DITemplateValueParameter(tag: DW_TAG_GNU_template_parameter_pack, name: "_Elements", value: !339)
!339 = !{!340, !260}
!340 = !DITemplateTypeParameter(type: !172)
!341 = !DISubprogram(name: "tuple", scope: !148, file: !149, line: 981, type: !342, scopeLine: 981, flags: DIFlagPublic | DIFlagPrototyped, spFlags: 0)
!342 = !DISubroutineType(types: !343)
!343 = !{null, !344, !345}
!344 = !DIDerivedType(tag: DW_TAG_pointer_type, baseType: !148, size: 64, flags: DIFlagArtificial | DIFlagObjectPointer)
!345 = !DIDerivedType(tag: DW_TAG_reference_type, baseType: !346, size: 64)
!346 = !DIDerivedType(tag: DW_TAG_const_type, baseType: !148)
!347 = !DISubprogram(name: "tuple", scope: !148, file: !149, line: 983, type: !348, scopeLine: 983, flags: DIFlagPublic | DIFlagPrototyped, spFlags: 0)
!348 = !DISubroutineType(types: !349)
!349 = !{null, !344, !350}
!350 = !DIDerivedType(tag: DW_TAG_rvalue_reference_type, baseType: !148, size: 64)
!351 = !DISubprogram(name: "operator=", linkageName: "_ZNSt5tupleIJPNSt6thread6_StateESt14default_deleteIS1_EEEaSERKS5_", scope: !148, file: !149, line: 1205, type: !352, scopeLine: 1205, flags: DIFlagPublic | DIFlagPrototyped, spFlags: 0)
!352 = !DISubroutineType(types: !353)
!353 = !{!354, !344, !355}
!354 = !DIDerivedType(tag: DW_TAG_reference_type, baseType: !148, size: 64)
!355 = !DIDerivedType(tag: DW_TAG_typedef, name: "type", scope: !356, file: !47, line: 2054, baseType: !345)
!356 = distinct !DICompositeType(tag: DW_TAG_structure_type, name: "conditional<true, const std::tuple<std::thread::_State *, std::default_delete<std::thread::_State> > &, const std::__nonesuch_no_braces &>", scope: !2, file: !47, line: 2053, size: 8, flags: DIFlagTypePassByValue, elements: !49, templateParams: !357, identifier: "_ZTSSt11conditionalILb1ERKSt5tupleIJPNSt6thread6_StateESt14default_deleteIS2_EEERKSt20__nonesuch_no_bracesE")
!357 = !{!358, !359, !360}
!358 = !DITemplateValueParameter(name: "_Cond", type: !118, value: i1 true)
!359 = !DITemplateTypeParameter(name: "_Iftrue", type: !345)
!360 = !DITemplateTypeParameter(name: "_Iffalse", type: !361)
!361 = !DIDerivedType(tag: DW_TAG_reference_type, baseType: !362, size: 64)
!362 = !DIDerivedType(tag: DW_TAG_const_type, baseType: !363)
!363 = distinct !DICompositeType(tag: DW_TAG_structure_type, name: "__nonesuch_no_braces", scope: !2, file: !364, line: 185, size: 8, flags: DIFlagFwdDecl | DIFlagNonTrivial, identifier: "_ZTSSt20__nonesuch_no_braces")
!364 = !DIFile(filename: "/usr/lib/gcc/x86_64-linux-gnu/9/../../../../include/c++/9/bits/stl_pair.h", directory: "", checksumkind: CSK_MD5, checksum: "17e15386fd23a497aa1e369bdbc2175b")
!365 = !DISubprogram(name: "operator=", linkageName: "_ZNSt5tupleIJPNSt6thread6_StateESt14default_deleteIS1_EEEaSEOS5_", scope: !148, file: !149, line: 1215, type: !366, scopeLine: 1215, flags: DIFlagPublic | DIFlagPrototyped, spFlags: 0)
!366 = !DISubroutineType(types: !367)
!367 = !{!354, !344, !368}
!368 = !DIDerivedType(tag: DW_TAG_typedef, name: "type", scope: !369, file: !47, line: 2054, baseType: !350)
!369 = distinct !DICompositeType(tag: DW_TAG_structure_type, name: "conditional<true, std::tuple<std::thread::_State *, std::default_delete<std::thread::_State> > &&, std::__nonesuch_no_braces &&>", scope: !2, file: !47, line: 2053, size: 8, flags: DIFlagTypePassByValue, elements: !49, templateParams: !370, identifier: "_ZTSSt11conditionalILb1EOSt5tupleIJPNSt6thread6_StateESt14default_deleteIS2_EEEOSt20__nonesuch_no_bracesE")
!370 = !{!358, !371, !372}
!371 = !DITemplateTypeParameter(name: "_Iftrue", type: !350)
!372 = !DITemplateTypeParameter(name: "_Iffalse", type: !373)
!373 = !DIDerivedType(tag: DW_TAG_rvalue_reference_type, baseType: !363, size: 64)
!374 = !DISubprogram(name: "swap", linkageName: "_ZNSt5tupleIJPNSt6thread6_StateESt14default_deleteIS1_EEE4swapERS5_", scope: !148, file: !149, line: 1263, type: !375, scopeLine: 1263, flags: DIFlagPublic | DIFlagPrototyped, spFlags: 0)
!375 = !DISubroutineType(types: !376)
!376 = !{null, !344, !354}
!377 = !{!338}
!378 = !DISubprogram(name: "__uniq_ptr_impl", scope: !145, file: !142, line: 146, type: !379, scopeLine: 146, flags: DIFlagPublic | DIFlagPrototyped, spFlags: 0)
!379 = !DISubroutineType(types: !380)
!380 = !{null, !381}
!381 = !DIDerivedType(tag: DW_TAG_pointer_type, baseType: !145, size: 64, flags: DIFlagArtificial | DIFlagObjectPointer)
!382 = !DISubprogram(name: "__uniq_ptr_impl", scope: !145, file: !142, line: 147, type: !383, scopeLine: 147, flags: DIFlagPublic | DIFlagPrototyped, spFlags: 0)
!383 = !DISubroutineType(types: !384)
!384 = !{null, !381, !385}
!385 = !DIDerivedType(tag: DW_TAG_typedef, name: "pointer", scope: !145, file: !142, line: 140, baseType: !386, flags: DIFlagPublic)
!386 = !DIDerivedType(tag: DW_TAG_typedef, name: "type", scope: !387, file: !142, line: 125, baseType: !172)
!387 = distinct !DICompositeType(tag: DW_TAG_structure_type, name: "_Ptr<std::thread::_State, std::default_delete<std::thread::_State>, void>", scope: !145, file: !142, line: 123, size: 8, flags: DIFlagTypePassByValue, elements: !49, templateParams: !388, identifier: "_ZTSNSt15__uniq_ptr_implINSt6thread6_StateESt14default_deleteIS1_EE4_PtrIS1_S3_vEE")
!388 = !{!389, !390, !391}
!389 = !DITemplateTypeParameter(name: "_Up", type: !173)
!390 = !DITemplateTypeParameter(name: "_Ep", type: !161)
!391 = !DITemplateTypeParameter(type: null, defaulted: true)
!392 = !DISubprogram(name: "_M_ptr", linkageName: "_ZNSt15__uniq_ptr_implINSt6thread6_StateESt14default_deleteIS1_EE6_M_ptrEv", scope: !145, file: !142, line: 153, type: !393, scopeLine: 153, flags: DIFlagPublic | DIFlagPrototyped, spFlags: 0)
!393 = !DISubroutineType(types: !394)
!394 = !{!395, !381}
!395 = !DIDerivedType(tag: DW_TAG_reference_type, baseType: !385, size: 64)
!396 = !DISubprogram(name: "_M_ptr", linkageName: "_ZNKSt15__uniq_ptr_implINSt6thread6_StateESt14default_deleteIS1_EE6_M_ptrEv", scope: !145, file: !142, line: 154, type: !397, scopeLine: 154, flags: DIFlagPublic | DIFlagPrototyped, spFlags: 0)
!397 = !DISubroutineType(types: !398)
!398 = !{!385, !399}
!399 = !DIDerivedType(tag: DW_TAG_pointer_type, baseType: !400, size: 64, flags: DIFlagArtificial | DIFlagObjectPointer)
!400 = !DIDerivedType(tag: DW_TAG_const_type, baseType: !145)
!401 = !DISubprogram(name: "_M_deleter", linkageName: "_ZNSt15__uniq_ptr_implINSt6thread6_StateESt14default_deleteIS1_EE10_M_deleterEv", scope: !145, file: !142, line: 155, type: !402, scopeLine: 155, flags: DIFlagPublic | DIFlagPrototyped, spFlags: 0)
!402 = !DISubroutineType(types: !403)
!403 = !{!219, !381}
!404 = !DISubprogram(name: "_M_deleter", linkageName: "_ZNKSt15__uniq_ptr_implINSt6thread6_StateESt14default_deleteIS1_EE10_M_deleterEv", scope: !145, file: !142, line: 156, type: !405, scopeLine: 156, flags: DIFlagPublic | DIFlagPrototyped, spFlags: 0)
!405 = !DISubroutineType(types: !406)
!406 = !{!183, !399}
!407 = !DISubprogram(name: "swap", linkageName: "_ZNSt15__uniq_ptr_implINSt6thread6_StateESt14default_deleteIS1_EE4swapERS4_", scope: !145, file: !142, line: 159, type: !408, scopeLine: 159, flags: DIFlagPublic | DIFlagPrototyped, spFlags: 0)
!408 = !DISubroutineType(types: !409)
!409 = !{null, !381, !410}
!410 = !DIDerivedType(tag: DW_TAG_reference_type, baseType: !145, size: 64)
!411 = !{!175, !412}
!412 = !DITemplateTypeParameter(name: "_Dp", type: !161)
!413 = !DISubprogram(name: "unique_ptr", scope: !141, file: !142, line: 257, type: !414, scopeLine: 257, flags: DIFlagPublic | DIFlagPrototyped, spFlags: 0)
!414 = !DISubroutineType(types: !415)
!415 = !{null, !416, !417}
!416 = !DIDerivedType(tag: DW_TAG_pointer_type, baseType: !141, size: 64, flags: DIFlagArtificial | DIFlagObjectPointer)
!417 = !DIDerivedType(tag: DW_TAG_rvalue_reference_type, baseType: !141, size: 64)
!418 = !DISubprogram(name: "~unique_ptr", scope: !141, file: !142, line: 286, type: !419, scopeLine: 286, flags: DIFlagPublic | DIFlagPrototyped, spFlags: 0)
!419 = !DISubroutineType(types: !420)
!420 = !{null, !416}
!421 = !DISubprogram(name: "operator=", linkageName: "_ZNSt10unique_ptrINSt6thread6_StateESt14default_deleteIS1_EEaSEOS4_", scope: !141, file: !142, line: 305, type: !422, scopeLine: 305, flags: DIFlagPublic | DIFlagPrototyped, spFlags: 0)
!422 = !DISubroutineType(types: !423)
!423 = !{!424, !416, !417}
!424 = !DIDerivedType(tag: DW_TAG_reference_type, baseType: !141, size: 64)
!425 = !DISubprogram(name: "operator=", linkageName: "_ZNSt10unique_ptrINSt6thread6_StateESt14default_deleteIS1_EEaSEDn", scope: !141, file: !142, line: 334, type: !426, scopeLine: 334, flags: DIFlagPublic | DIFlagPrototyped, spFlags: 0)
!426 = !DISubroutineType(types: !427)
!427 = !{!424, !416, !428}
!428 = !DIDerivedType(tag: DW_TAG_typedef, name: "nullptr_t", scope: !2, file: !429, line: 262, baseType: !430)
!429 = !DIFile(filename: "/usr/lib/gcc/x86_64-linux-gnu/9/../../../../include/x86_64-linux-gnu/c++/9/bits/c++config.h", directory: "", checksumkind: CSK_MD5, checksum: "f271377c6e7185560bbbc0bac2bc77fa")
!430 = !DIBasicType(tag: DW_TAG_unspecified_type, name: "decltype(nullptr)")
!431 = !DISubprogram(name: "operator*", linkageName: "_ZNKSt10unique_ptrINSt6thread6_StateESt14default_deleteIS1_EEdeEv", scope: !141, file: !142, line: 344, type: !432, scopeLine: 344, flags: DIFlagPublic | DIFlagPrototyped, spFlags: 0)
!432 = !DISubroutineType(types: !433)
!433 = !{!434, !438}
!434 = !DIDerivedType(tag: DW_TAG_typedef, name: "type", scope: !435, file: !47, line: 1467, baseType: !437)
!435 = distinct !DICompositeType(tag: DW_TAG_structure_type, name: "__add_lvalue_reference_helper<std::thread::_State, true>", scope: !2, file: !47, line: 1466, size: 8, flags: DIFlagTypePassByValue, elements: !49, templateParams: !436, identifier: "_ZTSSt29__add_lvalue_reference_helperINSt6thread6_StateELb1EE")
!436 = !{!175, !227}
!437 = !DIDerivedType(tag: DW_TAG_reference_type, baseType: !173, size: 64)
!438 = !DIDerivedType(tag: DW_TAG_pointer_type, baseType: !439, size: 64, flags: DIFlagArtificial | DIFlagObjectPointer)
!439 = !DIDerivedType(tag: DW_TAG_const_type, baseType: !141)
!440 = !DISubprogram(name: "operator->", linkageName: "_ZNKSt10unique_ptrINSt6thread6_StateESt14default_deleteIS1_EEptEv", scope: !141, file: !142, line: 352, type: !441, scopeLine: 352, flags: DIFlagPublic | DIFlagPrototyped, spFlags: 0)
!441 = !DISubroutineType(types: !442)
!442 = !{!443, !438}
!443 = !DIDerivedType(tag: DW_TAG_typedef, name: "pointer", scope: !141, file: !142, line: 181, baseType: !385, flags: DIFlagPublic)
!444 = !DISubprogram(name: "get", linkageName: "_ZNKSt10unique_ptrINSt6thread6_StateESt14default_deleteIS1_EE3getEv", scope: !141, file: !142, line: 360, type: !441, scopeLine: 360, flags: DIFlagPublic | DIFlagPrototyped, spFlags: 0)
!445 = !DISubprogram(name: "get_deleter", linkageName: "_ZNSt10unique_ptrINSt6thread6_StateESt14default_deleteIS1_EE11get_deleterEv", scope: !141, file: !142, line: 365, type: !446, scopeLine: 365, flags: DIFlagPublic | DIFlagPrototyped, spFlags: 0)
!446 = !DISubroutineType(types: !447)
!447 = !{!448, !416}
!448 = !DIDerivedType(tag: DW_TAG_reference_type, baseType: !449, size: 64)
!449 = !DIDerivedType(tag: DW_TAG_typedef, name: "deleter_type", scope: !141, file: !142, line: 183, baseType: !161, flags: DIFlagPublic)
!450 = !DISubprogram(name: "get_deleter", linkageName: "_ZNKSt10unique_ptrINSt6thread6_StateESt14default_deleteIS1_EE11get_deleterEv", scope: !141, file: !142, line: 370, type: !451, scopeLine: 370, flags: DIFlagPublic | DIFlagPrototyped, spFlags: 0)
!451 = !DISubroutineType(types: !452)
!452 = !{!453, !438}
!453 = !DIDerivedType(tag: DW_TAG_reference_type, baseType: !454, size: 64)
!454 = !DIDerivedType(tag: DW_TAG_const_type, baseType: !449)
!455 = !DISubprogram(name: "operator bool", linkageName: "_ZNKSt10unique_ptrINSt6thread6_StateESt14default_deleteIS1_EEcvbEv", scope: !141, file: !142, line: 374, type: !456, scopeLine: 374, flags: DIFlagPublic | DIFlagExplicit | DIFlagPrototyped, spFlags: 0)
!456 = !DISubroutineType(types: !457)
!457 = !{!118, !438}
!458 = !DISubprogram(name: "release", linkageName: "_ZNSt10unique_ptrINSt6thread6_StateESt14default_deleteIS1_EE7releaseEv", scope: !141, file: !142, line: 381, type: !459, scopeLine: 381, flags: DIFlagPublic | DIFlagPrototyped, spFlags: 0)
!459 = !DISubroutineType(types: !460)
!460 = !{!443, !416}
!461 = !DISubprogram(name: "reset", linkageName: "_ZNSt10unique_ptrINSt6thread6_StateESt14default_deleteIS1_EE5resetEPS1_", scope: !141, file: !142, line: 395, type: !462, scopeLine: 395, flags: DIFlagPublic | DIFlagPrototyped, spFlags: 0)
!462 = !DISubroutineType(types: !463)
!463 = !{null, !416, !443}
!464 = !DISubprogram(name: "swap", linkageName: "_ZNSt10unique_ptrINSt6thread6_StateESt14default_deleteIS1_EE4swapERS4_", scope: !141, file: !142, line: 407, type: !465, scopeLine: 407, flags: DIFlagPublic | DIFlagPrototyped, spFlags: 0)
!465 = !DISubroutineType(types: !466)
!466 = !{null, !416, !424}
!467 = !DISubprogram(name: "unique_ptr", scope: !141, file: !142, line: 414, type: !468, scopeLine: 414, flags: DIFlagPublic | DIFlagPrototyped, spFlags: DISPFlagDeleted)
!468 = !DISubroutineType(types: !469)
!469 = !{null, !416, !470}
!470 = !DIDerivedType(tag: DW_TAG_reference_type, baseType: !439, size: 64)
!471 = !DISubprogram(name: "operator=", linkageName: "_ZNSt10unique_ptrINSt6thread6_StateESt14default_deleteIS1_EEaSERKS4_", scope: !141, file: !142, line: 415, type: !472, scopeLine: 415, flags: DIFlagPublic | DIFlagPrototyped, spFlags: DISPFlagDeleted)
!472 = !DISubroutineType(types: !473)
!473 = !{!424, !416, !470}
!474 = !{!175, !475}
!475 = !DITemplateTypeParameter(name: "_Dp", type: !161, defaulted: true)
!476 = !{!477, !478, !482}
!477 = !DIDerivedType(tag: DW_TAG_member, name: "_M_thread", scope: !86, file: !87, line: 79, baseType: !128, size: 64)
!478 = !DISubprogram(name: "id", scope: !86, file: !87, line: 82, type: !479, scopeLine: 82, flags: DIFlagPublic | DIFlagPrototyped, spFlags: 0)
!479 = !DISubroutineType(types: !480)
!480 = !{null, !481}
!481 = !DIDerivedType(tag: DW_TAG_pointer_type, baseType: !86, size: 64, flags: DIFlagArtificial | DIFlagObjectPointer)
!482 = !DISubprogram(name: "id", scope: !86, file: !87, line: 85, type: !483, scopeLine: 85, flags: DIFlagPublic | DIFlagExplicit | DIFlagPrototyped, spFlags: 0)
!483 = !DISubroutineType(types: !484)
!484 = !{null, !481, !128}
!485 = distinct !DICompositeType(tag: DW_TAG_structure_type, name: "_Head_base<1UL, int *, false>", scope: !2, file: !149, line: 120, size: 64, flags: DIFlagTypePassByValue | DIFlagNonTrivial, elements: !486, templateParams: !517, identifier: "_ZTSSt10_Head_baseILm1EPiLb0EE")
!486 = !{!487, !488, !492, !497, !502, !506, !509, !514}
!487 = !DIDerivedType(tag: DW_TAG_member, name: "_M_head_impl", scope: !485, file: !149, line: 165, baseType: !56, size: 64)
!488 = !DISubprogram(name: "_Head_base", scope: !485, file: !149, line: 122, type: !489, scopeLine: 122, flags: DIFlagPrototyped, spFlags: 0)
!489 = !DISubroutineType(types: !490)
!490 = !{null, !491}
!491 = !DIDerivedType(tag: DW_TAG_pointer_type, baseType: !485, size: 64, flags: DIFlagArtificial | DIFlagObjectPointer)
!492 = !DISubprogram(name: "_Head_base", scope: !485, file: !149, line: 125, type: !493, scopeLine: 125, flags: DIFlagPrototyped, spFlags: 0)
!493 = !DISubroutineType(types: !494)
!494 = !{null, !491, !495}
!495 = !DIDerivedType(tag: DW_TAG_reference_type, baseType: !496, size: 64)
!496 = !DIDerivedType(tag: DW_TAG_const_type, baseType: !56)
!497 = !DISubprogram(name: "_Head_base", scope: !485, file: !149, line: 128, type: !498, scopeLine: 128, flags: DIFlagPrototyped, spFlags: 0)
!498 = !DISubroutineType(types: !499)
!499 = !{null, !491, !500}
!500 = !DIDerivedType(tag: DW_TAG_reference_type, baseType: !501, size: 64)
!501 = !DIDerivedType(tag: DW_TAG_const_type, baseType: !485)
!502 = !DISubprogram(name: "_Head_base", scope: !485, file: !149, line: 129, type: !503, scopeLine: 129, flags: DIFlagPrototyped, spFlags: 0)
!503 = !DISubroutineType(types: !504)
!504 = !{null, !491, !505}
!505 = !DIDerivedType(tag: DW_TAG_rvalue_reference_type, baseType: !485, size: 64)
!506 = !DISubprogram(name: "_Head_base", scope: !485, file: !149, line: 135, type: !507, scopeLine: 135, flags: DIFlagPrototyped, spFlags: 0)
!507 = !DISubroutineType(types: !508)
!508 = !{null, !491, !196, !203}
!509 = !DISubprogram(name: "_M_head", linkageName: "_ZNSt10_Head_baseILm1EPiLb0EE7_M_headERS1_", scope: !485, file: !149, line: 160, type: !510, scopeLine: 160, flags: DIFlagPrototyped | DIFlagStaticMember, spFlags: 0)
!510 = !DISubroutineType(types: !511)
!511 = !{!512, !513}
!512 = !DIDerivedType(tag: DW_TAG_reference_type, baseType: !56, size: 64)
!513 = !DIDerivedType(tag: DW_TAG_reference_type, baseType: !485, size: 64)
!514 = !DISubprogram(name: "_M_head", linkageName: "_ZNSt10_Head_baseILm1EPiLb0EE7_M_headERKS1_", scope: !485, file: !149, line: 163, type: !515, scopeLine: 163, flags: DIFlagPrototyped | DIFlagStaticMember, spFlags: 0)
!515 = !DISubroutineType(types: !516)
!516 = !{!495, !500}
!517 = !{!225, !518, !297}
!518 = !DITemplateTypeParameter(name: "_Head", type: !56)
!519 = distinct !DICompositeType(tag: DW_TAG_structure_type, name: "_Tuple_impl<1UL, int *>", scope: !2, file: !149, line: 326, size: 64, flags: DIFlagTypePassByReference | DIFlagNonTrivial, elements: !520, templateParams: !551, identifier: "_ZTSSt11_Tuple_implILm1EJPiEE")
!520 = !{!521, !522, !526, !531, !535, !538, !541, !544, !548}
!521 = !DIDerivedType(tag: DW_TAG_inheritance, scope: !519, baseType: !485, flags: DIFlagPrivate, extraData: i32 0)
!522 = !DISubprogram(name: "_M_head", linkageName: "_ZNSt11_Tuple_implILm1EJPiEE7_M_headERS1_", scope: !519, file: !149, line: 334, type: !523, scopeLine: 334, flags: DIFlagPrototyped | DIFlagStaticMember, spFlags: 0)
!523 = !DISubroutineType(types: !524)
!524 = !{!512, !525}
!525 = !DIDerivedType(tag: DW_TAG_reference_type, baseType: !519, size: 64)
!526 = !DISubprogram(name: "_M_head", linkageName: "_ZNSt11_Tuple_implILm1EJPiEE7_M_headERKS1_", scope: !519, file: !149, line: 337, type: !527, scopeLine: 337, flags: DIFlagPrototyped | DIFlagStaticMember, spFlags: 0)
!527 = !DISubroutineType(types: !528)
!528 = !{!495, !529}
!529 = !DIDerivedType(tag: DW_TAG_reference_type, baseType: !530, size: 64)
!530 = !DIDerivedType(tag: DW_TAG_const_type, baseType: !519)
!531 = !DISubprogram(name: "_Tuple_impl", scope: !519, file: !149, line: 339, type: !532, scopeLine: 339, flags: DIFlagPrototyped, spFlags: 0)
!532 = !DISubroutineType(types: !533)
!533 = !{null, !534}
!534 = !DIDerivedType(tag: DW_TAG_pointer_type, baseType: !519, size: 64, flags: DIFlagArtificial | DIFlagObjectPointer)
!535 = !DISubprogram(name: "_Tuple_impl", scope: !519, file: !149, line: 343, type: !536, scopeLine: 343, flags: DIFlagExplicit | DIFlagPrototyped, spFlags: 0)
!536 = !DISubroutineType(types: !537)
!537 = !{null, !534, !495}
!538 = !DISubprogram(name: "_Tuple_impl", scope: !519, file: !149, line: 351, type: !539, scopeLine: 351, flags: DIFlagPrototyped, spFlags: 0)
!539 = !DISubroutineType(types: !540)
!540 = !{null, !534, !529}
!541 = !DISubprogram(name: "operator=", linkageName: "_ZNSt11_Tuple_implILm1EJPiEEaSERKS1_", scope: !519, file: !149, line: 355, type: !542, scopeLine: 355, flags: DIFlagPrototyped, spFlags: DISPFlagDeleted)
!542 = !DISubroutineType(types: !543)
!543 = !{!525, !534, !529}
!544 = !DISubprogram(name: "_Tuple_impl", scope: !519, file: !149, line: 358, type: !545, scopeLine: 358, flags: DIFlagPrototyped, spFlags: 0)
!545 = !DISubroutineType(types: !546)
!546 = !{null, !534, !547}
!547 = !DIDerivedType(tag: DW_TAG_rvalue_reference_type, baseType: !519, size: 64)
!548 = !DISubprogram(name: "_M_swap", linkageName: "_ZNSt11_Tuple_implILm1EJPiEE7_M_swapERS1_", scope: !519, file: !149, line: 427, type: !549, scopeLine: 427, flags: DIFlagProtected | DIFlagPrototyped, spFlags: 0)
!549 = !DISubroutineType(types: !550)
!550 = !{null, !534, !525}
!551 = !{!225, !552}
!552 = !DITemplateValueParameter(tag: DW_TAG_GNU_template_parameter_pack, name: "_Elements", value: !62)
!553 = distinct !DICompositeType(tag: DW_TAG_structure_type, name: "_Head_base<0UL, void (*)(int *), false>", scope: !2, file: !149, line: 120, size: 64, flags: DIFlagTypePassByValue | DIFlagNonTrivial, elements: !554, templateParams: !585, identifier: "_ZTSSt10_Head_baseILm0EPFvPiELb0EE")
!554 = !{!555, !556, !560, !565, !570, !574, !577, !582}
!555 = !DIDerivedType(tag: DW_TAG_member, name: "_M_head_impl", scope: !553, file: !149, line: 165, baseType: !53, size: 64)
!556 = !DISubprogram(name: "_Head_base", scope: !553, file: !149, line: 122, type: !557, scopeLine: 122, flags: DIFlagPrototyped, spFlags: 0)
!557 = !DISubroutineType(types: !558)
!558 = !{null, !559}
!559 = !DIDerivedType(tag: DW_TAG_pointer_type, baseType: !553, size: 64, flags: DIFlagArtificial | DIFlagObjectPointer)
!560 = !DISubprogram(name: "_Head_base", scope: !553, file: !149, line: 125, type: !561, scopeLine: 125, flags: DIFlagPrototyped, spFlags: 0)
!561 = !DISubroutineType(types: !562)
!562 = !{null, !559, !563}
!563 = !DIDerivedType(tag: DW_TAG_reference_type, baseType: !564, size: 64)
!564 = !DIDerivedType(tag: DW_TAG_const_type, baseType: !53)
!565 = !DISubprogram(name: "_Head_base", scope: !553, file: !149, line: 128, type: !566, scopeLine: 128, flags: DIFlagPrototyped, spFlags: 0)
!566 = !DISubroutineType(types: !567)
!567 = !{null, !559, !568}
!568 = !DIDerivedType(tag: DW_TAG_reference_type, baseType: !569, size: 64)
!569 = !DIDerivedType(tag: DW_TAG_const_type, baseType: !553)
!570 = !DISubprogram(name: "_Head_base", scope: !553, file: !149, line: 129, type: !571, scopeLine: 129, flags: DIFlagPrototyped, spFlags: 0)
!571 = !DISubroutineType(types: !572)
!572 = !{null, !559, !573}
!573 = !DIDerivedType(tag: DW_TAG_rvalue_reference_type, baseType: !553, size: 64)
!574 = !DISubprogram(name: "_Head_base", scope: !553, file: !149, line: 135, type: !575, scopeLine: 135, flags: DIFlagPrototyped, spFlags: 0)
!575 = !DISubroutineType(types: !576)
!576 = !{null, !559, !196, !203}
!577 = !DISubprogram(name: "_M_head", linkageName: "_ZNSt10_Head_baseILm0EPFvPiELb0EE7_M_headERS3_", scope: !553, file: !149, line: 160, type: !578, scopeLine: 160, flags: DIFlagPrototyped | DIFlagStaticMember, spFlags: 0)
!578 = !DISubroutineType(types: !579)
!579 = !{!580, !581}
!580 = !DIDerivedType(tag: DW_TAG_reference_type, baseType: !53, size: 64)
!581 = !DIDerivedType(tag: DW_TAG_reference_type, baseType: !553, size: 64)
!582 = !DISubprogram(name: "_M_head", linkageName: "_ZNSt10_Head_baseILm0EPFvPiELb0EE7_M_headERKS3_", scope: !553, file: !149, line: 163, type: !583, scopeLine: 163, flags: DIFlagPrototyped | DIFlagStaticMember, spFlags: 0)
!583 = !DISubroutineType(types: !584)
!584 = !{!563, !568}
!585 = !{!295, !586, !297}
!586 = !DITemplateTypeParameter(name: "_Head", type: !53)
!587 = distinct !DICompositeType(tag: DW_TAG_structure_type, name: "_Tuple_impl<0UL, void (*)(int *), int *>", scope: !2, file: !149, line: 185, size: 128, flags: DIFlagTypePassByReference | DIFlagNonTrivial, elements: !588, templateParams: !630, identifier: "_ZTSSt11_Tuple_implILm0EJPFvPiES0_EE")
!588 = !{!589, !590, !591, !595, !600, !605, !610, !614, !617, !620, !623, !627}
!589 = !DIDerivedType(tag: DW_TAG_inheritance, scope: !587, baseType: !519, extraData: i32 0)
!590 = !DIDerivedType(tag: DW_TAG_inheritance, scope: !587, baseType: !553, offset: 64, flags: DIFlagPrivate, extraData: i32 0)
!591 = !DISubprogram(name: "_M_head", linkageName: "_ZNSt11_Tuple_implILm0EJPFvPiES0_EE7_M_headERS3_", scope: !587, file: !149, line: 195, type: !592, scopeLine: 195, flags: DIFlagPrototyped | DIFlagStaticMember, spFlags: 0)
!592 = !DISubroutineType(types: !593)
!593 = !{!580, !594}
!594 = !DIDerivedType(tag: DW_TAG_reference_type, baseType: !587, size: 64)
!595 = !DISubprogram(name: "_M_head", linkageName: "_ZNSt11_Tuple_implILm0EJPFvPiES0_EE7_M_headERKS3_", scope: !587, file: !149, line: 198, type: !596, scopeLine: 198, flags: DIFlagPrototyped | DIFlagStaticMember, spFlags: 0)
!596 = !DISubroutineType(types: !597)
!597 = !{!563, !598}
!598 = !DIDerivedType(tag: DW_TAG_reference_type, baseType: !599, size: 64)
!599 = !DIDerivedType(tag: DW_TAG_const_type, baseType: !587)
!600 = !DISubprogram(name: "_M_tail", linkageName: "_ZNSt11_Tuple_implILm0EJPFvPiES0_EE7_M_tailERS3_", scope: !587, file: !149, line: 201, type: !601, scopeLine: 201, flags: DIFlagPrototyped | DIFlagStaticMember, spFlags: 0)
!601 = !DISubroutineType(types: !602)
!602 = !{!603, !594}
!603 = !DIDerivedType(tag: DW_TAG_reference_type, baseType: !604, size: 64)
!604 = !DIDerivedType(tag: DW_TAG_typedef, name: "_Inherited", scope: !587, file: !149, line: 191, baseType: !519)
!605 = !DISubprogram(name: "_M_tail", linkageName: "_ZNSt11_Tuple_implILm0EJPFvPiES0_EE7_M_tailERKS3_", scope: !587, file: !149, line: 204, type: !606, scopeLine: 204, flags: DIFlagPrototyped | DIFlagStaticMember, spFlags: 0)
!606 = !DISubroutineType(types: !607)
!607 = !{!608, !598}
!608 = !DIDerivedType(tag: DW_TAG_reference_type, baseType: !609, size: 64)
!609 = !DIDerivedType(tag: DW_TAG_const_type, baseType: !604)
!610 = !DISubprogram(name: "_Tuple_impl", scope: !587, file: !149, line: 206, type: !611, scopeLine: 206, flags: DIFlagPrototyped, spFlags: 0)
!611 = !DISubroutineType(types: !612)
!612 = !{null, !613}
!613 = !DIDerivedType(tag: DW_TAG_pointer_type, baseType: !587, size: 64, flags: DIFlagArtificial | DIFlagObjectPointer)
!614 = !DISubprogram(name: "_Tuple_impl", scope: !587, file: !149, line: 210, type: !615, scopeLine: 210, flags: DIFlagExplicit | DIFlagPrototyped, spFlags: 0)
!615 = !DISubroutineType(types: !616)
!616 = !{null, !613, !563, !495}
!617 = !DISubprogram(name: "_Tuple_impl", scope: !587, file: !149, line: 220, type: !618, scopeLine: 220, flags: DIFlagPrototyped, spFlags: 0)
!618 = !DISubroutineType(types: !619)
!619 = !{null, !613, !598}
!620 = !DISubprogram(name: "operator=", linkageName: "_ZNSt11_Tuple_implILm0EJPFvPiES0_EEaSERKS3_", scope: !587, file: !149, line: 224, type: !621, scopeLine: 224, flags: DIFlagPrototyped, spFlags: DISPFlagDeleted)
!621 = !DISubroutineType(types: !622)
!622 = !{!594, !613, !598}
!623 = !DISubprogram(name: "_Tuple_impl", scope: !587, file: !149, line: 227, type: !624, scopeLine: 227, flags: DIFlagPrototyped, spFlags: 0)
!624 = !DISubroutineType(types: !625)
!625 = !{null, !613, !626}
!626 = !DIDerivedType(tag: DW_TAG_rvalue_reference_type, baseType: !587, size: 64)
!627 = !DISubprogram(name: "_M_swap", linkageName: "_ZNSt11_Tuple_implILm0EJPFvPiES0_EE7_M_swapERS3_", scope: !587, file: !149, line: 316, type: !628, scopeLine: 316, flags: DIFlagProtected | DIFlagPrototyped, spFlags: 0)
!628 = !DISubroutineType(types: !629)
!629 = !{null, !613, !594}
!630 = !{!295, !631}
!631 = !DITemplateValueParameter(tag: DW_TAG_GNU_template_parameter_pack, name: "_Elements", value: !632)
!632 = !{!633, !63}
!633 = !DITemplateTypeParameter(type: !53)
!634 = distinct !DICompositeType(tag: DW_TAG_class_type, name: "tuple<void (*)(int *), int *>", scope: !2, file: !149, line: 893, size: 128, flags: DIFlagTypePassByReference | DIFlagNonTrivial, elements: !635, templateParams: !665, identifier: "_ZTSSt5tupleIJPFvPiES0_EE")
!635 = !{!636, !637, !643, !647, !655, !662}
!636 = !DIDerivedType(tag: DW_TAG_inheritance, scope: !634, baseType: !587, flags: DIFlagPublic, extraData: i32 0)
!637 = !DISubprogram(name: "tuple", scope: !634, file: !149, line: 981, type: !638, scopeLine: 981, flags: DIFlagPublic | DIFlagPrototyped, spFlags: 0)
!638 = !DISubroutineType(types: !639)
!639 = !{null, !640, !641}
!640 = !DIDerivedType(tag: DW_TAG_pointer_type, baseType: !634, size: 64, flags: DIFlagArtificial | DIFlagObjectPointer)
!641 = !DIDerivedType(tag: DW_TAG_reference_type, baseType: !642, size: 64)
!642 = !DIDerivedType(tag: DW_TAG_const_type, baseType: !634)
!643 = !DISubprogram(name: "tuple", scope: !634, file: !149, line: 983, type: !644, scopeLine: 983, flags: DIFlagPublic | DIFlagPrototyped, spFlags: 0)
!644 = !DISubroutineType(types: !645)
!645 = !{null, !640, !646}
!646 = !DIDerivedType(tag: DW_TAG_rvalue_reference_type, baseType: !634, size: 64)
!647 = !DISubprogram(name: "operator=", linkageName: "_ZNSt5tupleIJPFvPiES0_EEaSERKS3_", scope: !634, file: !149, line: 1205, type: !648, scopeLine: 1205, flags: DIFlagPublic | DIFlagPrototyped, spFlags: 0)
!648 = !DISubroutineType(types: !649)
!649 = !{!650, !640, !651}
!650 = !DIDerivedType(tag: DW_TAG_reference_type, baseType: !634, size: 64)
!651 = !DIDerivedType(tag: DW_TAG_typedef, name: "type", scope: !652, file: !47, line: 2054, baseType: !641)
!652 = distinct !DICompositeType(tag: DW_TAG_structure_type, name: "conditional<true, const std::tuple<void (*)(int *), int *> &, const std::__nonesuch_no_braces &>", scope: !2, file: !47, line: 2053, size: 8, flags: DIFlagTypePassByValue, elements: !49, templateParams: !653, identifier: "_ZTSSt11conditionalILb1ERKSt5tupleIJPFvPiES1_EERKSt20__nonesuch_no_bracesE")
!653 = !{!358, !654, !360}
!654 = !DITemplateTypeParameter(name: "_Iftrue", type: !641)
!655 = !DISubprogram(name: "operator=", linkageName: "_ZNSt5tupleIJPFvPiES0_EEaSEOS3_", scope: !634, file: !149, line: 1215, type: !656, scopeLine: 1215, flags: DIFlagPublic | DIFlagPrototyped, spFlags: 0)
!656 = !DISubroutineType(types: !657)
!657 = !{!650, !640, !658}
!658 = !DIDerivedType(tag: DW_TAG_typedef, name: "type", scope: !659, file: !47, line: 2054, baseType: !646)
!659 = distinct !DICompositeType(tag: DW_TAG_structure_type, name: "conditional<true, std::tuple<void (*)(int *), int *> &&, std::__nonesuch_no_braces &&>", scope: !2, file: !47, line: 2053, size: 8, flags: DIFlagTypePassByValue, elements: !49, templateParams: !660, identifier: "_ZTSSt11conditionalILb1EOSt5tupleIJPFvPiES1_EEOSt20__nonesuch_no_bracesE")
!660 = !{!358, !661, !372}
!661 = !DITemplateTypeParameter(name: "_Iftrue", type: !646)
!662 = !DISubprogram(name: "swap", linkageName: "_ZNSt5tupleIJPFvPiES0_EE4swapERS3_", scope: !634, file: !149, line: 1263, type: !663, scopeLine: 1263, flags: DIFlagPublic | DIFlagPrototyped, spFlags: 0)
!663 = !DISubroutineType(types: !664)
!664 = !{null, !640, !650}
!665 = !{!631}
!666 = distinct !DICompositeType(tag: DW_TAG_structure_type, name: "_Invoker<std::tuple<void (*)(int *), int *> >", scope: !88, file: !87, line: 230, size: 128, flags: DIFlagTypePassByReference | DIFlagNonTrivial, elements: !667, templateParams: !673, identifier: "_ZTSNSt6thread8_InvokerISt5tupleIJPFvPiES2_EEEE")
!667 = !{!668, !669}
!668 = !DIDerivedType(tag: DW_TAG_member, name: "_M_t", scope: !666, file: !87, line: 232, baseType: !634, size: 128)
!669 = !DISubprogram(name: "operator()", linkageName: "_ZNSt6thread8_InvokerISt5tupleIJPFvPiES2_EEEclEv", scope: !666, file: !87, line: 247, type: !670, scopeLine: 247, flags: DIFlagPrototyped, spFlags: 0)
!670 = !DISubroutineType(types: !671)
!671 = !{!46, !672}
!672 = !DIDerivedType(tag: DW_TAG_pointer_type, baseType: !666, size: 64, flags: DIFlagArtificial | DIFlagObjectPointer)
!673 = !{!674}
!674 = !DITemplateTypeParameter(name: "_Tuple", type: !634)
!675 = distinct !DICompositeType(tag: DW_TAG_structure_type, name: "_Head_base<1UL, int **, false>", scope: !2, file: !149, line: 120, size: 64, flags: DIFlagTypePassByValue | DIFlagNonTrivial, elements: !676, templateParams: !707, identifier: "_ZTSSt10_Head_baseILm1EPPiLb0EE")
!676 = !{!677, !678, !682, !687, !692, !696, !699, !704}
!677 = !DIDerivedType(tag: DW_TAG_member, name: "_M_head_impl", scope: !675, file: !149, line: 165, baseType: !79, size: 64)
!678 = !DISubprogram(name: "_Head_base", scope: !675, file: !149, line: 122, type: !679, scopeLine: 122, flags: DIFlagPrototyped, spFlags: 0)
!679 = !DISubroutineType(types: !680)
!680 = !{null, !681}
!681 = !DIDerivedType(tag: DW_TAG_pointer_type, baseType: !675, size: 64, flags: DIFlagArtificial | DIFlagObjectPointer)
!682 = !DISubprogram(name: "_Head_base", scope: !675, file: !149, line: 125, type: !683, scopeLine: 125, flags: DIFlagPrototyped, spFlags: 0)
!683 = !DISubroutineType(types: !684)
!684 = !{null, !681, !685}
!685 = !DIDerivedType(tag: DW_TAG_reference_type, baseType: !686, size: 64)
!686 = !DIDerivedType(tag: DW_TAG_const_type, baseType: !79)
!687 = !DISubprogram(name: "_Head_base", scope: !675, file: !149, line: 128, type: !688, scopeLine: 128, flags: DIFlagPrototyped, spFlags: 0)
!688 = !DISubroutineType(types: !689)
!689 = !{null, !681, !690}
!690 = !DIDerivedType(tag: DW_TAG_reference_type, baseType: !691, size: 64)
!691 = !DIDerivedType(tag: DW_TAG_const_type, baseType: !675)
!692 = !DISubprogram(name: "_Head_base", scope: !675, file: !149, line: 129, type: !693, scopeLine: 129, flags: DIFlagPrototyped, spFlags: 0)
!693 = !DISubroutineType(types: !694)
!694 = !{null, !681, !695}
!695 = !DIDerivedType(tag: DW_TAG_rvalue_reference_type, baseType: !675, size: 64)
!696 = !DISubprogram(name: "_Head_base", scope: !675, file: !149, line: 135, type: !697, scopeLine: 135, flags: DIFlagPrototyped, spFlags: 0)
!697 = !DISubroutineType(types: !698)
!698 = !{null, !681, !196, !203}
!699 = !DISubprogram(name: "_M_head", linkageName: "_ZNSt10_Head_baseILm1EPPiLb0EE7_M_headERS2_", scope: !675, file: !149, line: 160, type: !700, scopeLine: 160, flags: DIFlagPrototyped | DIFlagStaticMember, spFlags: 0)
!700 = !DISubroutineType(types: !701)
!701 = !{!702, !703}
!702 = !DIDerivedType(tag: DW_TAG_reference_type, baseType: !79, size: 64)
!703 = !DIDerivedType(tag: DW_TAG_reference_type, baseType: !675, size: 64)
!704 = !DISubprogram(name: "_M_head", linkageName: "_ZNSt10_Head_baseILm1EPPiLb0EE7_M_headERKS2_", scope: !675, file: !149, line: 163, type: !705, scopeLine: 163, flags: DIFlagPrototyped | DIFlagStaticMember, spFlags: 0)
!705 = !DISubroutineType(types: !706)
!706 = !{!685, !690}
!707 = !{!225, !708, !297}
!708 = !DITemplateTypeParameter(name: "_Head", type: !79)
!709 = distinct !DICompositeType(tag: DW_TAG_structure_type, name: "_Tuple_impl<1UL, int **>", scope: !2, file: !149, line: 326, size: 64, flags: DIFlagTypePassByReference | DIFlagNonTrivial, elements: !710, templateParams: !741, identifier: "_ZTSSt11_Tuple_implILm1EJPPiEE")
!710 = !{!711, !712, !716, !721, !725, !728, !731, !734, !738}
!711 = !DIDerivedType(tag: DW_TAG_inheritance, scope: !709, baseType: !675, flags: DIFlagPrivate, extraData: i32 0)
!712 = !DISubprogram(name: "_M_head", linkageName: "_ZNSt11_Tuple_implILm1EJPPiEE7_M_headERS2_", scope: !709, file: !149, line: 334, type: !713, scopeLine: 334, flags: DIFlagPrototyped | DIFlagStaticMember, spFlags: 0)
!713 = !DISubroutineType(types: !714)
!714 = !{!702, !715}
!715 = !DIDerivedType(tag: DW_TAG_reference_type, baseType: !709, size: 64)
!716 = !DISubprogram(name: "_M_head", linkageName: "_ZNSt11_Tuple_implILm1EJPPiEE7_M_headERKS2_", scope: !709, file: !149, line: 337, type: !717, scopeLine: 337, flags: DIFlagPrototyped | DIFlagStaticMember, spFlags: 0)
!717 = !DISubroutineType(types: !718)
!718 = !{!685, !719}
!719 = !DIDerivedType(tag: DW_TAG_reference_type, baseType: !720, size: 64)
!720 = !DIDerivedType(tag: DW_TAG_const_type, baseType: !709)
!721 = !DISubprogram(name: "_Tuple_impl", scope: !709, file: !149, line: 339, type: !722, scopeLine: 339, flags: DIFlagPrototyped, spFlags: 0)
!722 = !DISubroutineType(types: !723)
!723 = !{null, !724}
!724 = !DIDerivedType(tag: DW_TAG_pointer_type, baseType: !709, size: 64, flags: DIFlagArtificial | DIFlagObjectPointer)
!725 = !DISubprogram(name: "_Tuple_impl", scope: !709, file: !149, line: 343, type: !726, scopeLine: 343, flags: DIFlagExplicit | DIFlagPrototyped, spFlags: 0)
!726 = !DISubroutineType(types: !727)
!727 = !{null, !724, !685}
!728 = !DISubprogram(name: "_Tuple_impl", scope: !709, file: !149, line: 351, type: !729, scopeLine: 351, flags: DIFlagPrototyped, spFlags: 0)
!729 = !DISubroutineType(types: !730)
!730 = !{null, !724, !719}
!731 = !DISubprogram(name: "operator=", linkageName: "_ZNSt11_Tuple_implILm1EJPPiEEaSERKS2_", scope: !709, file: !149, line: 355, type: !732, scopeLine: 355, flags: DIFlagPrototyped, spFlags: DISPFlagDeleted)
!732 = !DISubroutineType(types: !733)
!733 = !{!715, !724, !719}
!734 = !DISubprogram(name: "_Tuple_impl", scope: !709, file: !149, line: 358, type: !735, scopeLine: 358, flags: DIFlagPrototyped, spFlags: 0)
!735 = !DISubroutineType(types: !736)
!736 = !{null, !724, !737}
!737 = !DIDerivedType(tag: DW_TAG_rvalue_reference_type, baseType: !709, size: 64)
!738 = !DISubprogram(name: "_M_swap", linkageName: "_ZNSt11_Tuple_implILm1EJPPiEE7_M_swapERS2_", scope: !709, file: !149, line: 427, type: !739, scopeLine: 427, flags: DIFlagProtected | DIFlagPrototyped, spFlags: 0)
!739 = !DISubroutineType(types: !740)
!740 = !{null, !724, !715}
!741 = !{!225, !742}
!742 = !DITemplateValueParameter(tag: DW_TAG_GNU_template_parameter_pack, name: "_Elements", value: !84)
!743 = distinct !DICompositeType(tag: DW_TAG_structure_type, name: "_Head_base<0UL, void (*)(int **), false>", scope: !2, file: !149, line: 120, size: 64, flags: DIFlagTypePassByValue | DIFlagNonTrivial, elements: !744, templateParams: !775, identifier: "_ZTSSt10_Head_baseILm0EPFvPPiELb0EE")
!744 = !{!745, !746, !750, !755, !760, !764, !767, !772}
!745 = !DIDerivedType(tag: DW_TAG_member, name: "_M_head_impl", scope: !743, file: !149, line: 165, baseType: !76, size: 64)
!746 = !DISubprogram(name: "_Head_base", scope: !743, file: !149, line: 122, type: !747, scopeLine: 122, flags: DIFlagPrototyped, spFlags: 0)
!747 = !DISubroutineType(types: !748)
!748 = !{null, !749}
!749 = !DIDerivedType(tag: DW_TAG_pointer_type, baseType: !743, size: 64, flags: DIFlagArtificial | DIFlagObjectPointer)
!750 = !DISubprogram(name: "_Head_base", scope: !743, file: !149, line: 125, type: !751, scopeLine: 125, flags: DIFlagPrototyped, spFlags: 0)
!751 = !DISubroutineType(types: !752)
!752 = !{null, !749, !753}
!753 = !DIDerivedType(tag: DW_TAG_reference_type, baseType: !754, size: 64)
!754 = !DIDerivedType(tag: DW_TAG_const_type, baseType: !76)
!755 = !DISubprogram(name: "_Head_base", scope: !743, file: !149, line: 128, type: !756, scopeLine: 128, flags: DIFlagPrototyped, spFlags: 0)
!756 = !DISubroutineType(types: !757)
!757 = !{null, !749, !758}
!758 = !DIDerivedType(tag: DW_TAG_reference_type, baseType: !759, size: 64)
!759 = !DIDerivedType(tag: DW_TAG_const_type, baseType: !743)
!760 = !DISubprogram(name: "_Head_base", scope: !743, file: !149, line: 129, type: !761, scopeLine: 129, flags: DIFlagPrototyped, spFlags: 0)
!761 = !DISubroutineType(types: !762)
!762 = !{null, !749, !763}
!763 = !DIDerivedType(tag: DW_TAG_rvalue_reference_type, baseType: !743, size: 64)
!764 = !DISubprogram(name: "_Head_base", scope: !743, file: !149, line: 135, type: !765, scopeLine: 135, flags: DIFlagPrototyped, spFlags: 0)
!765 = !DISubroutineType(types: !766)
!766 = !{null, !749, !196, !203}
!767 = !DISubprogram(name: "_M_head", linkageName: "_ZNSt10_Head_baseILm0EPFvPPiELb0EE7_M_headERS4_", scope: !743, file: !149, line: 160, type: !768, scopeLine: 160, flags: DIFlagPrototyped | DIFlagStaticMember, spFlags: 0)
!768 = !DISubroutineType(types: !769)
!769 = !{!770, !771}
!770 = !DIDerivedType(tag: DW_TAG_reference_type, baseType: !76, size: 64)
!771 = !DIDerivedType(tag: DW_TAG_reference_type, baseType: !743, size: 64)
!772 = !DISubprogram(name: "_M_head", linkageName: "_ZNSt10_Head_baseILm0EPFvPPiELb0EE7_M_headERKS4_", scope: !743, file: !149, line: 163, type: !773, scopeLine: 163, flags: DIFlagPrototyped | DIFlagStaticMember, spFlags: 0)
!773 = !DISubroutineType(types: !774)
!774 = !{!753, !758}
!775 = !{!295, !776, !297}
!776 = !DITemplateTypeParameter(name: "_Head", type: !76)
!777 = distinct !DICompositeType(tag: DW_TAG_structure_type, name: "_Tuple_impl<0UL, void (*)(int **), int **>", scope: !2, file: !149, line: 185, size: 128, flags: DIFlagTypePassByReference | DIFlagNonTrivial, elements: !778, templateParams: !820, identifier: "_ZTSSt11_Tuple_implILm0EJPFvPPiES1_EE")
!778 = !{!779, !780, !781, !785, !790, !795, !800, !804, !807, !810, !813, !817}
!779 = !DIDerivedType(tag: DW_TAG_inheritance, scope: !777, baseType: !709, extraData: i32 0)
!780 = !DIDerivedType(tag: DW_TAG_inheritance, scope: !777, baseType: !743, offset: 64, flags: DIFlagPrivate, extraData: i32 0)
!781 = !DISubprogram(name: "_M_head", linkageName: "_ZNSt11_Tuple_implILm0EJPFvPPiES1_EE7_M_headERS4_", scope: !777, file: !149, line: 195, type: !782, scopeLine: 195, flags: DIFlagPrototyped | DIFlagStaticMember, spFlags: 0)
!782 = !DISubroutineType(types: !783)
!783 = !{!770, !784}
!784 = !DIDerivedType(tag: DW_TAG_reference_type, baseType: !777, size: 64)
!785 = !DISubprogram(name: "_M_head", linkageName: "_ZNSt11_Tuple_implILm0EJPFvPPiES1_EE7_M_headERKS4_", scope: !777, file: !149, line: 198, type: !786, scopeLine: 198, flags: DIFlagPrototyped | DIFlagStaticMember, spFlags: 0)
!786 = !DISubroutineType(types: !787)
!787 = !{!753, !788}
!788 = !DIDerivedType(tag: DW_TAG_reference_type, baseType: !789, size: 64)
!789 = !DIDerivedType(tag: DW_TAG_const_type, baseType: !777)
!790 = !DISubprogram(name: "_M_tail", linkageName: "_ZNSt11_Tuple_implILm0EJPFvPPiES1_EE7_M_tailERS4_", scope: !777, file: !149, line: 201, type: !791, scopeLine: 201, flags: DIFlagPrototyped | DIFlagStaticMember, spFlags: 0)
!791 = !DISubroutineType(types: !792)
!792 = !{!793, !784}
!793 = !DIDerivedType(tag: DW_TAG_reference_type, baseType: !794, size: 64)
!794 = !DIDerivedType(tag: DW_TAG_typedef, name: "_Inherited", scope: !777, file: !149, line: 191, baseType: !709)
!795 = !DISubprogram(name: "_M_tail", linkageName: "_ZNSt11_Tuple_implILm0EJPFvPPiES1_EE7_M_tailERKS4_", scope: !777, file: !149, line: 204, type: !796, scopeLine: 204, flags: DIFlagPrototyped | DIFlagStaticMember, spFlags: 0)
!796 = !DISubroutineType(types: !797)
!797 = !{!798, !788}
!798 = !DIDerivedType(tag: DW_TAG_reference_type, baseType: !799, size: 64)
!799 = !DIDerivedType(tag: DW_TAG_const_type, baseType: !794)
!800 = !DISubprogram(name: "_Tuple_impl", scope: !777, file: !149, line: 206, type: !801, scopeLine: 206, flags: DIFlagPrototyped, spFlags: 0)
!801 = !DISubroutineType(types: !802)
!802 = !{null, !803}
!803 = !DIDerivedType(tag: DW_TAG_pointer_type, baseType: !777, size: 64, flags: DIFlagArtificial | DIFlagObjectPointer)
!804 = !DISubprogram(name: "_Tuple_impl", scope: !777, file: !149, line: 210, type: !805, scopeLine: 210, flags: DIFlagExplicit | DIFlagPrototyped, spFlags: 0)
!805 = !DISubroutineType(types: !806)
!806 = !{null, !803, !753, !685}
!807 = !DISubprogram(name: "_Tuple_impl", scope: !777, file: !149, line: 220, type: !808, scopeLine: 220, flags: DIFlagPrototyped, spFlags: 0)
!808 = !DISubroutineType(types: !809)
!809 = !{null, !803, !788}
!810 = !DISubprogram(name: "operator=", linkageName: "_ZNSt11_Tuple_implILm0EJPFvPPiES1_EEaSERKS4_", scope: !777, file: !149, line: 224, type: !811, scopeLine: 224, flags: DIFlagPrototyped, spFlags: DISPFlagDeleted)
!811 = !DISubroutineType(types: !812)
!812 = !{!784, !803, !788}
!813 = !DISubprogram(name: "_Tuple_impl", scope: !777, file: !149, line: 227, type: !814, scopeLine: 227, flags: DIFlagPrototyped, spFlags: 0)
!814 = !DISubroutineType(types: !815)
!815 = !{null, !803, !816}
!816 = !DIDerivedType(tag: DW_TAG_rvalue_reference_type, baseType: !777, size: 64)
!817 = !DISubprogram(name: "_M_swap", linkageName: "_ZNSt11_Tuple_implILm0EJPFvPPiES1_EE7_M_swapERS4_", scope: !777, file: !149, line: 316, type: !818, scopeLine: 316, flags: DIFlagProtected | DIFlagPrototyped, spFlags: 0)
!818 = !DISubroutineType(types: !819)
!819 = !{null, !803, !784}
!820 = !{!295, !821}
!821 = !DITemplateValueParameter(tag: DW_TAG_GNU_template_parameter_pack, name: "_Elements", value: !822)
!822 = !{!823, !85}
!823 = !DITemplateTypeParameter(type: !76)
!824 = distinct !DICompositeType(tag: DW_TAG_class_type, name: "tuple<void (*)(int **), int **>", scope: !2, file: !149, line: 893, size: 128, flags: DIFlagTypePassByReference | DIFlagNonTrivial, elements: !825, templateParams: !855, identifier: "_ZTSSt5tupleIJPFvPPiES1_EE")
!825 = !{!826, !827, !833, !837, !845, !852}
!826 = !DIDerivedType(tag: DW_TAG_inheritance, scope: !824, baseType: !777, flags: DIFlagPublic, extraData: i32 0)
!827 = !DISubprogram(name: "tuple", scope: !824, file: !149, line: 981, type: !828, scopeLine: 981, flags: DIFlagPublic | DIFlagPrototyped, spFlags: 0)
!828 = !DISubroutineType(types: !829)
!829 = !{null, !830, !831}
!830 = !DIDerivedType(tag: DW_TAG_pointer_type, baseType: !824, size: 64, flags: DIFlagArtificial | DIFlagObjectPointer)
!831 = !DIDerivedType(tag: DW_TAG_reference_type, baseType: !832, size: 64)
!832 = !DIDerivedType(tag: DW_TAG_const_type, baseType: !824)
!833 = !DISubprogram(name: "tuple", scope: !824, file: !149, line: 983, type: !834, scopeLine: 983, flags: DIFlagPublic | DIFlagPrototyped, spFlags: 0)
!834 = !DISubroutineType(types: !835)
!835 = !{null, !830, !836}
!836 = !DIDerivedType(tag: DW_TAG_rvalue_reference_type, baseType: !824, size: 64)
!837 = !DISubprogram(name: "operator=", linkageName: "_ZNSt5tupleIJPFvPPiES1_EEaSERKS4_", scope: !824, file: !149, line: 1205, type: !838, scopeLine: 1205, flags: DIFlagPublic | DIFlagPrototyped, spFlags: 0)
!838 = !DISubroutineType(types: !839)
!839 = !{!840, !830, !841}
!840 = !DIDerivedType(tag: DW_TAG_reference_type, baseType: !824, size: 64)
!841 = !DIDerivedType(tag: DW_TAG_typedef, name: "type", scope: !842, file: !47, line: 2054, baseType: !831)
!842 = distinct !DICompositeType(tag: DW_TAG_structure_type, name: "conditional<true, const std::tuple<void (*)(int **), int **> &, const std::__nonesuch_no_braces &>", scope: !2, file: !47, line: 2053, size: 8, flags: DIFlagTypePassByValue, elements: !49, templateParams: !843, identifier: "_ZTSSt11conditionalILb1ERKSt5tupleIJPFvPPiES2_EERKSt20__nonesuch_no_bracesE")
!843 = !{!358, !844, !360}
!844 = !DITemplateTypeParameter(name: "_Iftrue", type: !831)
!845 = !DISubprogram(name: "operator=", linkageName: "_ZNSt5tupleIJPFvPPiES1_EEaSEOS4_", scope: !824, file: !149, line: 1215, type: !846, scopeLine: 1215, flags: DIFlagPublic | DIFlagPrototyped, spFlags: 0)
!846 = !DISubroutineType(types: !847)
!847 = !{!840, !830, !848}
!848 = !DIDerivedType(tag: DW_TAG_typedef, name: "type", scope: !849, file: !47, line: 2054, baseType: !836)
!849 = distinct !DICompositeType(tag: DW_TAG_structure_type, name: "conditional<true, std::tuple<void (*)(int **), int **> &&, std::__nonesuch_no_braces &&>", scope: !2, file: !47, line: 2053, size: 8, flags: DIFlagTypePassByValue, elements: !49, templateParams: !850, identifier: "_ZTSSt11conditionalILb1EOSt5tupleIJPFvPPiES2_EEOSt20__nonesuch_no_bracesE")
!850 = !{!358, !851, !372}
!851 = !DITemplateTypeParameter(name: "_Iftrue", type: !836)
!852 = !DISubprogram(name: "swap", linkageName: "_ZNSt5tupleIJPFvPPiES1_EE4swapERS4_", scope: !824, file: !149, line: 1263, type: !853, scopeLine: 1263, flags: DIFlagPublic | DIFlagPrototyped, spFlags: 0)
!853 = !DISubroutineType(types: !854)
!854 = !{null, !830, !840}
!855 = !{!821}
!856 = distinct !DICompositeType(tag: DW_TAG_structure_type, name: "_Invoker<std::tuple<void (*)(int **), int **> >", scope: !88, file: !87, line: 230, size: 128, flags: DIFlagTypePassByReference | DIFlagNonTrivial, elements: !857, templateParams: !863, identifier: "_ZTSNSt6thread8_InvokerISt5tupleIJPFvPPiES3_EEEE")
!857 = !{!858, !859}
!858 = !DIDerivedType(tag: DW_TAG_member, name: "_M_t", scope: !856, file: !87, line: 232, baseType: !824, size: 128)
!859 = !DISubprogram(name: "operator()", linkageName: "_ZNSt6thread8_InvokerISt5tupleIJPFvPPiES3_EEEclEv", scope: !856, file: !87, line: 247, type: !860, scopeLine: 247, flags: DIFlagPrototyped, spFlags: 0)
!860 = !DISubroutineType(types: !861)
!861 = !{!46, !862}
!862 = !DIDerivedType(tag: DW_TAG_pointer_type, baseType: !856, size: 64, flags: DIFlagArtificial | DIFlagObjectPointer)
!863 = !{!864}
!864 = !DITemplateTypeParameter(name: "_Tuple", type: !824)
!865 = !{!0, !7, !15, !17, !19, !21}
!866 = !{!867, !884, !887, !892, !900, !908, !912, !919, !923, !927, !929, !931, !935, !945, !949, !955, !961, !963, !967, !971, !975, !979, !991, !993, !997, !1001, !1005, !1007, !1013, !1017, !1021, !1023, !1025, !1029, !1037, !1041, !1045, !1049, !1051, !1057, !1059, !1066, !1071, !1075, !1080, !1084, !1088, !1092, !1094, !1096, !1100, !1104, !1108, !1110, !1114, !1118, !1120, !1122, !1126, !1131, !1136, !1141, !1142, !1143, !1144, !1145, !1146, !1147, !1148, !1149, !1150, !1151, !1155, !1159, !1163, !1170, !1174, !1177, !1180, !1183, !1185, !1187, !1189, !1192, !1195, !1198, !1201, !1204, !1206, !1211, !1215, !1218, !1221, !1223, !1225, !1227, !1229, !1232, !1235, !1238, !1241, !1244, !1246, !1250, !1254, !1259, !1265, !1267, !1269, !1271, !1273, !1275, !1277, !1279, !1281, !1283, !1285, !1287, !1289, !1291, !1294, !1296, !1300, !1304, !1310, !1312, !1316, !1320, !1322, !1326, !1330, !1334, !1342, !1344, !1348, !1352, !1356, !1360, !1364, !1368, !1372, !1376, !1380, !1384, !1388, !1390, !1394, !1398, !1402, !1408, !1412, !1416, !1418, !1422, !1426, !1432, !1434, !1438, !1442, !1446, !1450, !1454, !1458, !1462, !1463, !1464, !1465, !1467, !1468, !1469, !1470, !1471, !1472, !1473, !1477, !1483, !1488, !1492, !1494, !1496, !1498, !1500, !1507, !1511, !1515, !1519, !1523, !1527, !1532, !1536, !1538, !1542, !1548, !1552, !1557, !1559, !1561, !1565, !1569, !1571, !1573, !1575, !1577, !1581, !1583, !1585, !1589, !1593, !1597, !1601, !1605, !1609, !1611, !1615, !1619, !1623, !1627, !1629, !1631, !1635, !1639, !1640, !1641, !1642, !1643, !1644, !1650, !1653, !1654, !1656, !1658, !1660, !1662, !1666, !1668, !1670, !1672, !1674, !1676, !1678, !1680, !1682, !1686, !1690, !1692, !1696, !1700, !1705, !1709, !1710, !1715, !1719, !1724, !1729, !1733, !1739, !1743, !1745, !1749, !1756, !1761, !1766, !1768}
!867 = !DIImportedEntity(tag: DW_TAG_imported_declaration, scope: !2, entity: !868, file: !883, line: 64)
!868 = !DIDerivedType(tag: DW_TAG_typedef, name: "mbstate_t", file: !869, line: 6, baseType: !870)
!869 = !DIFile(filename: "/usr/include/x86_64-linux-gnu/bits/types/mbstate_t.h", directory: "", checksumkind: CSK_MD5, checksum: "ba8742313715e20e434cf6ccb2db98e3")
!870 = !DIDerivedType(tag: DW_TAG_typedef, name: "__mbstate_t", file: !871, line: 21, baseType: !872)
!871 = !DIFile(filename: "/usr/include/x86_64-linux-gnu/bits/types/__mbstate_t.h", directory: "", checksumkind: CSK_MD5, checksum: "82911a3e689448e3691ded3e0b471a55")
!872 = distinct !DICompositeType(tag: DW_TAG_structure_type, file: !871, line: 13, size: 64, flags: DIFlagTypePassByValue, elements: !873, identifier: "_ZTS11__mbstate_t")
!873 = !{!874, !875}
!874 = !DIDerivedType(tag: DW_TAG_member, name: "__count", scope: !872, file: !871, line: 15, baseType: !57, size: 32)
!875 = !DIDerivedType(tag: DW_TAG_member, name: "__value", scope: !872, file: !871, line: 20, baseType: !876, size: 32, offset: 32)
!876 = distinct !DICompositeType(tag: DW_TAG_union_type, scope: !872, file: !871, line: 16, size: 32, flags: DIFlagTypePassByValue, elements: !877, identifier: "_ZTSN11__mbstate_tUt_E")
!877 = !{!878, !879}
!878 = !DIDerivedType(tag: DW_TAG_member, name: "__wch", scope: !876, file: !871, line: 18, baseType: !32, size: 32)
!879 = !DIDerivedType(tag: DW_TAG_member, name: "__wchb", scope: !876, file: !871, line: 19, baseType: !880, size: 32)
!880 = !DICompositeType(tag: DW_TAG_array_type, baseType: !12, size: 32, elements: !881)
!881 = !{!882}
!882 = !DISubrange(count: 4)
!883 = !DIFile(filename: "/usr/lib/gcc/x86_64-linux-gnu/9/../../../../include/c++/9/cwchar", directory: "")
!884 = !DIImportedEntity(tag: DW_TAG_imported_declaration, scope: !2, entity: !885, file: !883, line: 141)
!885 = !DIDerivedType(tag: DW_TAG_typedef, name: "wint_t", file: !886, line: 20, baseType: !32)
!886 = !DIFile(filename: "/usr/include/x86_64-linux-gnu/bits/types/wint_t.h", directory: "", checksumkind: CSK_MD5, checksum: "aa31b53ef28dc23152ceb41e2763ded3")
!887 = !DIImportedEntity(tag: DW_TAG_imported_declaration, scope: !2, entity: !888, file: !883, line: 143)
!888 = !DISubprogram(name: "btowc", scope: !889, file: !889, line: 284, type: !890, flags: DIFlagPrototyped, spFlags: 0)
!889 = !DIFile(filename: "/usr/include/wchar.h", directory: "", checksumkind: CSK_MD5, checksum: "8900d9ecbbe40d052c41becfbc5b5531")
!890 = !DISubroutineType(types: !891)
!891 = !{!885, !57}
!892 = !DIImportedEntity(tag: DW_TAG_imported_declaration, scope: !2, entity: !893, file: !883, line: 144)
!893 = !DISubprogram(name: "fgetwc", scope: !889, file: !889, line: 726, type: !894, flags: DIFlagPrototyped, spFlags: 0)
!894 = !DISubroutineType(types: !895)
!895 = !{!885, !896}
!896 = !DIDerivedType(tag: DW_TAG_pointer_type, baseType: !897, size: 64)
!897 = !DIDerivedType(tag: DW_TAG_typedef, name: "__FILE", file: !898, line: 5, baseType: !899)
!898 = !DIFile(filename: "/usr/include/x86_64-linux-gnu/bits/types/__FILE.h", directory: "", checksumkind: CSK_MD5, checksum: "72a8fe90981f484acae7c6f3dfc5c2b7")
!899 = distinct !DICompositeType(tag: DW_TAG_structure_type, name: "_IO_FILE", file: !898, line: 4, flags: DIFlagFwdDecl | DIFlagNonTrivial, identifier: "_ZTS8_IO_FILE")
!900 = !DIImportedEntity(tag: DW_TAG_imported_declaration, scope: !2, entity: !901, file: !883, line: 145)
!901 = !DISubprogram(name: "fgetws", scope: !889, file: !889, line: 755, type: !902, flags: DIFlagPrototyped, spFlags: 0)
!902 = !DISubroutineType(types: !903)
!903 = !{!904, !906, !57, !907}
!904 = !DIDerivedType(tag: DW_TAG_pointer_type, baseType: !905, size: 64)
!905 = !DIBasicType(name: "wchar_t", size: 32, encoding: DW_ATE_signed)
!906 = !DIDerivedType(tag: DW_TAG_restrict_type, baseType: !904)
!907 = !DIDerivedType(tag: DW_TAG_restrict_type, baseType: !896)
!908 = !DIImportedEntity(tag: DW_TAG_imported_declaration, scope: !2, entity: !909, file: !883, line: 146)
!909 = !DISubprogram(name: "fputwc", scope: !889, file: !889, line: 740, type: !910, flags: DIFlagPrototyped, spFlags: 0)
!910 = !DISubroutineType(types: !911)
!911 = !{!885, !905, !896}
!912 = !DIImportedEntity(tag: DW_TAG_imported_declaration, scope: !2, entity: !913, file: !883, line: 147)
!913 = !DISubprogram(name: "fputws", scope: !889, file: !889, line: 762, type: !914, flags: DIFlagPrototyped, spFlags: 0)
!914 = !DISubroutineType(types: !915)
!915 = !{!57, !916, !907}
!916 = !DIDerivedType(tag: DW_TAG_restrict_type, baseType: !917)
!917 = !DIDerivedType(tag: DW_TAG_pointer_type, baseType: !918, size: 64)
!918 = !DIDerivedType(tag: DW_TAG_const_type, baseType: !905)
!919 = !DIImportedEntity(tag: DW_TAG_imported_declaration, scope: !2, entity: !920, file: !883, line: 148)
!920 = !DISubprogram(name: "fwide", scope: !889, file: !889, line: 573, type: !921, flags: DIFlagPrototyped, spFlags: 0)
!921 = !DISubroutineType(types: !922)
!922 = !{!57, !896, !57}
!923 = !DIImportedEntity(tag: DW_TAG_imported_declaration, scope: !2, entity: !924, file: !883, line: 149)
!924 = !DISubprogram(name: "fwprintf", scope: !889, file: !889, line: 580, type: !925, flags: DIFlagPrototyped, spFlags: 0)
!925 = !DISubroutineType(types: !926)
!926 = !{!57, !907, !916, null}
!927 = !DIImportedEntity(tag: DW_TAG_imported_declaration, scope: !2, entity: !928, file: !883, line: 150)
!928 = !DISubprogram(name: "fwscanf", linkageName: "__isoc99_fwscanf", scope: !889, file: !889, line: 640, type: !925, flags: DIFlagPrototyped, spFlags: 0)
!929 = !DIImportedEntity(tag: DW_TAG_imported_declaration, scope: !2, entity: !930, file: !883, line: 151)
!930 = !DISubprogram(name: "getwc", scope: !889, file: !889, line: 727, type: !894, flags: DIFlagPrototyped, spFlags: 0)
!931 = !DIImportedEntity(tag: DW_TAG_imported_declaration, scope: !2, entity: !932, file: !883, line: 152)
!932 = !DISubprogram(name: "getwchar", scope: !889, file: !889, line: 733, type: !933, flags: DIFlagPrototyped, spFlags: 0)
!933 = !DISubroutineType(types: !934)
!934 = !{!885}
!935 = !DIImportedEntity(tag: DW_TAG_imported_declaration, scope: !2, entity: !936, file: !883, line: 153)
!936 = !DISubprogram(name: "mbrlen", scope: !889, file: !889, line: 307, type: !937, flags: DIFlagPrototyped, spFlags: 0)
!937 = !DISubroutineType(types: !938)
!938 = !{!939, !941, !939, !943}
!939 = !DIDerivedType(tag: DW_TAG_typedef, name: "size_t", file: !940, line: 46, baseType: !133)
!940 = !DIFile(filename: "lib/clang/17/include/stddef.h", directory: "/home/cs23mtech12010/CCM/CCMutator/llvm-project/build", checksumkind: CSK_MD5, checksum: "d1776268f398bd1ca997c840ad581432")
!941 = !DIDerivedType(tag: DW_TAG_restrict_type, baseType: !942)
!942 = !DIDerivedType(tag: DW_TAG_pointer_type, baseType: !11, size: 64)
!943 = !DIDerivedType(tag: DW_TAG_restrict_type, baseType: !944)
!944 = !DIDerivedType(tag: DW_TAG_pointer_type, baseType: !868, size: 64)
!945 = !DIImportedEntity(tag: DW_TAG_imported_declaration, scope: !2, entity: !946, file: !883, line: 154)
!946 = !DISubprogram(name: "mbrtowc", scope: !889, file: !889, line: 296, type: !947, flags: DIFlagPrototyped, spFlags: 0)
!947 = !DISubroutineType(types: !948)
!948 = !{!939, !906, !941, !939, !943}
!949 = !DIImportedEntity(tag: DW_TAG_imported_declaration, scope: !2, entity: !950, file: !883, line: 155)
!950 = !DISubprogram(name: "mbsinit", scope: !889, file: !889, line: 292, type: !951, flags: DIFlagPrototyped, spFlags: 0)
!951 = !DISubroutineType(types: !952)
!952 = !{!57, !953}
!953 = !DIDerivedType(tag: DW_TAG_pointer_type, baseType: !954, size: 64)
!954 = !DIDerivedType(tag: DW_TAG_const_type, baseType: !868)
!955 = !DIImportedEntity(tag: DW_TAG_imported_declaration, scope: !2, entity: !956, file: !883, line: 156)
!956 = !DISubprogram(name: "mbsrtowcs", scope: !889, file: !889, line: 337, type: !957, flags: DIFlagPrototyped, spFlags: 0)
!957 = !DISubroutineType(types: !958)
!958 = !{!939, !906, !959, !939, !943}
!959 = !DIDerivedType(tag: DW_TAG_restrict_type, baseType: !960)
!960 = !DIDerivedType(tag: DW_TAG_pointer_type, baseType: !942, size: 64)
!961 = !DIImportedEntity(tag: DW_TAG_imported_declaration, scope: !2, entity: !962, file: !883, line: 157)
!962 = !DISubprogram(name: "putwc", scope: !889, file: !889, line: 741, type: !910, flags: DIFlagPrototyped, spFlags: 0)
!963 = !DIImportedEntity(tag: DW_TAG_imported_declaration, scope: !2, entity: !964, file: !883, line: 158)
!964 = !DISubprogram(name: "putwchar", scope: !889, file: !889, line: 747, type: !965, flags: DIFlagPrototyped, spFlags: 0)
!965 = !DISubroutineType(types: !966)
!966 = !{!885, !905}
!967 = !DIImportedEntity(tag: DW_TAG_imported_declaration, scope: !2, entity: !968, file: !883, line: 160)
!968 = !DISubprogram(name: "swprintf", scope: !889, file: !889, line: 590, type: !969, flags: DIFlagPrototyped, spFlags: 0)
!969 = !DISubroutineType(types: !970)
!970 = !{!57, !906, !939, !916, null}
!971 = !DIImportedEntity(tag: DW_TAG_imported_declaration, scope: !2, entity: !972, file: !883, line: 162)
!972 = !DISubprogram(name: "swscanf", linkageName: "__isoc99_swscanf", scope: !889, file: !889, line: 647, type: !973, flags: DIFlagPrototyped, spFlags: 0)
!973 = !DISubroutineType(types: !974)
!974 = !{!57, !916, !916, null}
!975 = !DIImportedEntity(tag: DW_TAG_imported_declaration, scope: !2, entity: !976, file: !883, line: 163)
!976 = !DISubprogram(name: "ungetwc", scope: !889, file: !889, line: 770, type: !977, flags: DIFlagPrototyped, spFlags: 0)
!977 = !DISubroutineType(types: !978)
!978 = !{!885, !885, !896}
!979 = !DIImportedEntity(tag: DW_TAG_imported_declaration, scope: !2, entity: !980, file: !883, line: 164)
!980 = !DISubprogram(name: "vfwprintf", scope: !889, file: !889, line: 598, type: !981, flags: DIFlagPrototyped, spFlags: 0)
!981 = !DISubroutineType(types: !982)
!982 = !{!57, !907, !916, !983}
!983 = !DIDerivedType(tag: DW_TAG_pointer_type, baseType: !984, size: 64)
!984 = distinct !DICompositeType(tag: DW_TAG_structure_type, name: "__va_list_tag", size: 192, flags: DIFlagTypePassByValue, elements: !985, identifier: "_ZTS13__va_list_tag")
!985 = !{!986, !987, !988, !990}
!986 = !DIDerivedType(tag: DW_TAG_member, name: "gp_offset", scope: !984, file: !9, baseType: !32, size: 32)
!987 = !DIDerivedType(tag: DW_TAG_member, name: "fp_offset", scope: !984, file: !9, baseType: !32, size: 32, offset: 32)
!988 = !DIDerivedType(tag: DW_TAG_member, name: "overflow_arg_area", scope: !984, file: !9, baseType: !989, size: 64, offset: 64)
!989 = !DIDerivedType(tag: DW_TAG_pointer_type, baseType: null, size: 64)
!990 = !DIDerivedType(tag: DW_TAG_member, name: "reg_save_area", scope: !984, file: !9, baseType: !989, size: 64, offset: 128)
!991 = !DIImportedEntity(tag: DW_TAG_imported_declaration, scope: !2, entity: !992, file: !883, line: 166)
!992 = !DISubprogram(name: "vfwscanf", linkageName: "__isoc99_vfwscanf", scope: !889, file: !889, line: 693, type: !981, flags: DIFlagPrototyped, spFlags: 0)
!993 = !DIImportedEntity(tag: DW_TAG_imported_declaration, scope: !2, entity: !994, file: !883, line: 169)
!994 = !DISubprogram(name: "vswprintf", scope: !889, file: !889, line: 611, type: !995, flags: DIFlagPrototyped, spFlags: 0)
!995 = !DISubroutineType(types: !996)
!996 = !{!57, !906, !939, !916, !983}
!997 = !DIImportedEntity(tag: DW_TAG_imported_declaration, scope: !2, entity: !998, file: !883, line: 172)
!998 = !DISubprogram(name: "vswscanf", linkageName: "__isoc99_vswscanf", scope: !889, file: !889, line: 700, type: !999, flags: DIFlagPrototyped, spFlags: 0)
!999 = !DISubroutineType(types: !1000)
!1000 = !{!57, !916, !916, !983}
!1001 = !DIImportedEntity(tag: DW_TAG_imported_declaration, scope: !2, entity: !1002, file: !883, line: 174)
!1002 = !DISubprogram(name: "vwprintf", scope: !889, file: !889, line: 606, type: !1003, flags: DIFlagPrototyped, spFlags: 0)
!1003 = !DISubroutineType(types: !1004)
!1004 = !{!57, !916, !983}
!1005 = !DIImportedEntity(tag: DW_TAG_imported_declaration, scope: !2, entity: !1006, file: !883, line: 176)
!1006 = !DISubprogram(name: "vwscanf", linkageName: "__isoc99_vwscanf", scope: !889, file: !889, line: 697, type: !1003, flags: DIFlagPrototyped, spFlags: 0)
!1007 = !DIImportedEntity(tag: DW_TAG_imported_declaration, scope: !2, entity: !1008, file: !883, line: 178)
!1008 = !DISubprogram(name: "wcrtomb", scope: !889, file: !889, line: 301, type: !1009, flags: DIFlagPrototyped, spFlags: 0)
!1009 = !DISubroutineType(types: !1010)
!1010 = !{!939, !1011, !905, !943}
!1011 = !DIDerivedType(tag: DW_TAG_restrict_type, baseType: !1012)
!1012 = !DIDerivedType(tag: DW_TAG_pointer_type, baseType: !12, size: 64)
!1013 = !DIImportedEntity(tag: DW_TAG_imported_declaration, scope: !2, entity: !1014, file: !883, line: 179)
!1014 = !DISubprogram(name: "wcscat", scope: !889, file: !889, line: 97, type: !1015, flags: DIFlagPrototyped, spFlags: 0)
!1015 = !DISubroutineType(types: !1016)
!1016 = !{!904, !906, !916}
!1017 = !DIImportedEntity(tag: DW_TAG_imported_declaration, scope: !2, entity: !1018, file: !883, line: 180)
!1018 = !DISubprogram(name: "wcscmp", scope: !889, file: !889, line: 106, type: !1019, flags: DIFlagPrototyped, spFlags: 0)
!1019 = !DISubroutineType(types: !1020)
!1020 = !{!57, !917, !917}
!1021 = !DIImportedEntity(tag: DW_TAG_imported_declaration, scope: !2, entity: !1022, file: !883, line: 181)
!1022 = !DISubprogram(name: "wcscoll", scope: !889, file: !889, line: 131, type: !1019, flags: DIFlagPrototyped, spFlags: 0)
!1023 = !DIImportedEntity(tag: DW_TAG_imported_declaration, scope: !2, entity: !1024, file: !883, line: 182)
!1024 = !DISubprogram(name: "wcscpy", scope: !889, file: !889, line: 87, type: !1015, flags: DIFlagPrototyped, spFlags: 0)
!1025 = !DIImportedEntity(tag: DW_TAG_imported_declaration, scope: !2, entity: !1026, file: !883, line: 183)
!1026 = !DISubprogram(name: "wcscspn", scope: !889, file: !889, line: 187, type: !1027, flags: DIFlagPrototyped, spFlags: 0)
!1027 = !DISubroutineType(types: !1028)
!1028 = !{!939, !917, !917}
!1029 = !DIImportedEntity(tag: DW_TAG_imported_declaration, scope: !2, entity: !1030, file: !883, line: 184)
!1030 = !DISubprogram(name: "wcsftime", scope: !889, file: !889, line: 834, type: !1031, flags: DIFlagPrototyped, spFlags: 0)
!1031 = !DISubroutineType(types: !1032)
!1032 = !{!939, !906, !939, !916, !1033}
!1033 = !DIDerivedType(tag: DW_TAG_restrict_type, baseType: !1034)
!1034 = !DIDerivedType(tag: DW_TAG_pointer_type, baseType: !1035, size: 64)
!1035 = !DIDerivedType(tag: DW_TAG_const_type, baseType: !1036)
!1036 = distinct !DICompositeType(tag: DW_TAG_structure_type, name: "tm", file: !889, line: 83, flags: DIFlagFwdDecl | DIFlagNonTrivial, identifier: "_ZTS2tm")
!1037 = !DIImportedEntity(tag: DW_TAG_imported_declaration, scope: !2, entity: !1038, file: !883, line: 185)
!1038 = !DISubprogram(name: "wcslen", scope: !889, file: !889, line: 222, type: !1039, flags: DIFlagPrototyped, spFlags: 0)
!1039 = !DISubroutineType(types: !1040)
!1040 = !{!939, !917}
!1041 = !DIImportedEntity(tag: DW_TAG_imported_declaration, scope: !2, entity: !1042, file: !883, line: 186)
!1042 = !DISubprogram(name: "wcsncat", scope: !889, file: !889, line: 101, type: !1043, flags: DIFlagPrototyped, spFlags: 0)
!1043 = !DISubroutineType(types: !1044)
!1044 = !{!904, !906, !916, !939}
!1045 = !DIImportedEntity(tag: DW_TAG_imported_declaration, scope: !2, entity: !1046, file: !883, line: 187)
!1046 = !DISubprogram(name: "wcsncmp", scope: !889, file: !889, line: 109, type: !1047, flags: DIFlagPrototyped, spFlags: 0)
!1047 = !DISubroutineType(types: !1048)
!1048 = !{!57, !917, !917, !939}
!1049 = !DIImportedEntity(tag: DW_TAG_imported_declaration, scope: !2, entity: !1050, file: !883, line: 188)
!1050 = !DISubprogram(name: "wcsncpy", scope: !889, file: !889, line: 92, type: !1043, flags: DIFlagPrototyped, spFlags: 0)
!1051 = !DIImportedEntity(tag: DW_TAG_imported_declaration, scope: !2, entity: !1052, file: !883, line: 189)
!1052 = !DISubprogram(name: "wcsrtombs", scope: !889, file: !889, line: 343, type: !1053, flags: DIFlagPrototyped, spFlags: 0)
!1053 = !DISubroutineType(types: !1054)
!1054 = !{!939, !1011, !1055, !939, !943}
!1055 = !DIDerivedType(tag: DW_TAG_restrict_type, baseType: !1056)
!1056 = !DIDerivedType(tag: DW_TAG_pointer_type, baseType: !917, size: 64)
!1057 = !DIImportedEntity(tag: DW_TAG_imported_declaration, scope: !2, entity: !1058, file: !883, line: 190)
!1058 = !DISubprogram(name: "wcsspn", scope: !889, file: !889, line: 191, type: !1027, flags: DIFlagPrototyped, spFlags: 0)
!1059 = !DIImportedEntity(tag: DW_TAG_imported_declaration, scope: !2, entity: !1060, file: !883, line: 191)
!1060 = !DISubprogram(name: "wcstod", scope: !889, file: !889, line: 377, type: !1061, flags: DIFlagPrototyped, spFlags: 0)
!1061 = !DISubroutineType(types: !1062)
!1062 = !{!1063, !916, !1064}
!1063 = !DIBasicType(name: "double", size: 64, encoding: DW_ATE_float)
!1064 = !DIDerivedType(tag: DW_TAG_restrict_type, baseType: !1065)
!1065 = !DIDerivedType(tag: DW_TAG_pointer_type, baseType: !904, size: 64)
!1066 = !DIImportedEntity(tag: DW_TAG_imported_declaration, scope: !2, entity: !1067, file: !883, line: 193)
!1067 = !DISubprogram(name: "wcstof", scope: !889, file: !889, line: 382, type: !1068, flags: DIFlagPrototyped, spFlags: 0)
!1068 = !DISubroutineType(types: !1069)
!1069 = !{!1070, !916, !1064}
!1070 = !DIBasicType(name: "float", size: 32, encoding: DW_ATE_float)
!1071 = !DIImportedEntity(tag: DW_TAG_imported_declaration, scope: !2, entity: !1072, file: !883, line: 195)
!1072 = !DISubprogram(name: "wcstok", scope: !889, file: !889, line: 217, type: !1073, flags: DIFlagPrototyped, spFlags: 0)
!1073 = !DISubroutineType(types: !1074)
!1074 = !{!904, !906, !916, !1064}
!1075 = !DIImportedEntity(tag: DW_TAG_imported_declaration, scope: !2, entity: !1076, file: !883, line: 196)
!1076 = !DISubprogram(name: "wcstol", scope: !889, file: !889, line: 428, type: !1077, flags: DIFlagPrototyped, spFlags: 0)
!1077 = !DISubroutineType(types: !1078)
!1078 = !{!1079, !916, !1064, !57}
!1079 = !DIBasicType(name: "long", size: 64, encoding: DW_ATE_signed)
!1080 = !DIImportedEntity(tag: DW_TAG_imported_declaration, scope: !2, entity: !1081, file: !883, line: 197)
!1081 = !DISubprogram(name: "wcstoul", scope: !889, file: !889, line: 433, type: !1082, flags: DIFlagPrototyped, spFlags: 0)
!1082 = !DISubroutineType(types: !1083)
!1083 = !{!133, !916, !1064, !57}
!1084 = !DIImportedEntity(tag: DW_TAG_imported_declaration, scope: !2, entity: !1085, file: !883, line: 198)
!1085 = !DISubprogram(name: "wcsxfrm", scope: !889, file: !889, line: 135, type: !1086, flags: DIFlagPrototyped, spFlags: 0)
!1086 = !DISubroutineType(types: !1087)
!1087 = !{!939, !906, !916, !939}
!1088 = !DIImportedEntity(tag: DW_TAG_imported_declaration, scope: !2, entity: !1089, file: !883, line: 199)
!1089 = !DISubprogram(name: "wctob", scope: !889, file: !889, line: 288, type: !1090, flags: DIFlagPrototyped, spFlags: 0)
!1090 = !DISubroutineType(types: !1091)
!1091 = !{!57, !885}
!1092 = !DIImportedEntity(tag: DW_TAG_imported_declaration, scope: !2, entity: !1093, file: !883, line: 200)
!1093 = !DISubprogram(name: "wmemcmp", scope: !889, file: !889, line: 258, type: !1047, flags: DIFlagPrototyped, spFlags: 0)
!1094 = !DIImportedEntity(tag: DW_TAG_imported_declaration, scope: !2, entity: !1095, file: !883, line: 201)
!1095 = !DISubprogram(name: "wmemcpy", scope: !889, file: !889, line: 262, type: !1043, flags: DIFlagPrototyped, spFlags: 0)
!1096 = !DIImportedEntity(tag: DW_TAG_imported_declaration, scope: !2, entity: !1097, file: !883, line: 202)
!1097 = !DISubprogram(name: "wmemmove", scope: !889, file: !889, line: 267, type: !1098, flags: DIFlagPrototyped, spFlags: 0)
!1098 = !DISubroutineType(types: !1099)
!1099 = !{!904, !904, !917, !939}
!1100 = !DIImportedEntity(tag: DW_TAG_imported_declaration, scope: !2, entity: !1101, file: !883, line: 203)
!1101 = !DISubprogram(name: "wmemset", scope: !889, file: !889, line: 271, type: !1102, flags: DIFlagPrototyped, spFlags: 0)
!1102 = !DISubroutineType(types: !1103)
!1103 = !{!904, !904, !905, !939}
!1104 = !DIImportedEntity(tag: DW_TAG_imported_declaration, scope: !2, entity: !1105, file: !883, line: 204)
!1105 = !DISubprogram(name: "wprintf", scope: !889, file: !889, line: 587, type: !1106, flags: DIFlagPrototyped, spFlags: 0)
!1106 = !DISubroutineType(types: !1107)
!1107 = !{!57, !916, null}
!1108 = !DIImportedEntity(tag: DW_TAG_imported_declaration, scope: !2, entity: !1109, file: !883, line: 205)
!1109 = !DISubprogram(name: "wscanf", linkageName: "__isoc99_wscanf", scope: !889, file: !889, line: 644, type: !1106, flags: DIFlagPrototyped, spFlags: 0)
!1110 = !DIImportedEntity(tag: DW_TAG_imported_declaration, scope: !2, entity: !1111, file: !883, line: 206)
!1111 = !DISubprogram(name: "wcschr", scope: !889, file: !889, line: 164, type: !1112, flags: DIFlagPrototyped, spFlags: 0)
!1112 = !DISubroutineType(types: !1113)
!1113 = !{!904, !917, !905}
!1114 = !DIImportedEntity(tag: DW_TAG_imported_declaration, scope: !2, entity: !1115, file: !883, line: 207)
!1115 = !DISubprogram(name: "wcspbrk", scope: !889, file: !889, line: 201, type: !1116, flags: DIFlagPrototyped, spFlags: 0)
!1116 = !DISubroutineType(types: !1117)
!1117 = !{!904, !917, !917}
!1118 = !DIImportedEntity(tag: DW_TAG_imported_declaration, scope: !2, entity: !1119, file: !883, line: 208)
!1119 = !DISubprogram(name: "wcsrchr", scope: !889, file: !889, line: 174, type: !1112, flags: DIFlagPrototyped, spFlags: 0)
!1120 = !DIImportedEntity(tag: DW_TAG_imported_declaration, scope: !2, entity: !1121, file: !883, line: 209)
!1121 = !DISubprogram(name: "wcsstr", scope: !889, file: !889, line: 212, type: !1116, flags: DIFlagPrototyped, spFlags: 0)
!1122 = !DIImportedEntity(tag: DW_TAG_imported_declaration, scope: !2, entity: !1123, file: !883, line: 210)
!1123 = !DISubprogram(name: "wmemchr", scope: !889, file: !889, line: 253, type: !1124, flags: DIFlagPrototyped, spFlags: 0)
!1124 = !DISubroutineType(types: !1125)
!1125 = !{!904, !917, !905, !939}
!1126 = !DIImportedEntity(tag: DW_TAG_imported_declaration, scope: !31, entity: !1127, file: !883, line: 251)
!1127 = !DISubprogram(name: "wcstold", scope: !889, file: !889, line: 384, type: !1128, flags: DIFlagPrototyped, spFlags: 0)
!1128 = !DISubroutineType(types: !1129)
!1129 = !{!1130, !916, !1064}
!1130 = !DIBasicType(name: "long double", size: 128, encoding: DW_ATE_float)
!1131 = !DIImportedEntity(tag: DW_TAG_imported_declaration, scope: !31, entity: !1132, file: !883, line: 260)
!1132 = !DISubprogram(name: "wcstoll", scope: !889, file: !889, line: 441, type: !1133, flags: DIFlagPrototyped, spFlags: 0)
!1133 = !DISubroutineType(types: !1134)
!1134 = !{!1135, !916, !1064, !57}
!1135 = !DIBasicType(name: "long long", size: 64, encoding: DW_ATE_signed)
!1136 = !DIImportedEntity(tag: DW_TAG_imported_declaration, scope: !31, entity: !1137, file: !883, line: 261)
!1137 = !DISubprogram(name: "wcstoull", scope: !889, file: !889, line: 448, type: !1138, flags: DIFlagPrototyped, spFlags: 0)
!1138 = !DISubroutineType(types: !1139)
!1139 = !{!1140, !916, !1064, !57}
!1140 = !DIBasicType(name: "unsigned long long", size: 64, encoding: DW_ATE_unsigned)
!1141 = !DIImportedEntity(tag: DW_TAG_imported_declaration, scope: !2, entity: !1127, file: !883, line: 267)
!1142 = !DIImportedEntity(tag: DW_TAG_imported_declaration, scope: !2, entity: !1132, file: !883, line: 268)
!1143 = !DIImportedEntity(tag: DW_TAG_imported_declaration, scope: !2, entity: !1137, file: !883, line: 269)
!1144 = !DIImportedEntity(tag: DW_TAG_imported_declaration, scope: !2, entity: !1067, file: !883, line: 283)
!1145 = !DIImportedEntity(tag: DW_TAG_imported_declaration, scope: !2, entity: !992, file: !883, line: 286)
!1146 = !DIImportedEntity(tag: DW_TAG_imported_declaration, scope: !2, entity: !998, file: !883, line: 289)
!1147 = !DIImportedEntity(tag: DW_TAG_imported_declaration, scope: !2, entity: !1006, file: !883, line: 292)
!1148 = !DIImportedEntity(tag: DW_TAG_imported_declaration, scope: !2, entity: !1127, file: !883, line: 296)
!1149 = !DIImportedEntity(tag: DW_TAG_imported_declaration, scope: !2, entity: !1132, file: !883, line: 297)
!1150 = !DIImportedEntity(tag: DW_TAG_imported_declaration, scope: !2, entity: !1137, file: !883, line: 298)
!1151 = !DIImportedEntity(tag: DW_TAG_imported_declaration, scope: !2, entity: !1152, file: !1153, line: 57)
!1152 = distinct !DICompositeType(tag: DW_TAG_class_type, name: "exception_ptr", scope: !1154, file: !1153, line: 79, size: 64, flags: DIFlagFwdDecl | DIFlagNonTrivial, identifier: "_ZTSNSt15__exception_ptr13exception_ptrE")
!1153 = !DIFile(filename: "/usr/lib/gcc/x86_64-linux-gnu/9/../../../../include/c++/9/bits/exception_ptr.h", directory: "", checksumkind: CSK_MD5, checksum: "ad32556413cf4ca6a852273de62d0a18")
!1154 = !DINamespace(name: "__exception_ptr", scope: !2)
!1155 = !DIImportedEntity(tag: DW_TAG_imported_declaration, scope: !1154, entity: !1156, file: !1153, line: 73)
!1156 = !DISubprogram(name: "rethrow_exception", linkageName: "_ZSt17rethrow_exceptionNSt15__exception_ptr13exception_ptrE", scope: !2, file: !1153, line: 69, type: !1157, flags: DIFlagPrototyped | DIFlagNoReturn, spFlags: 0)
!1157 = !DISubroutineType(types: !1158)
!1158 = !{null, !1152}
!1159 = !DIImportedEntity(tag: DW_TAG_imported_module, scope: !1160, entity: !1161, file: !1162, line: 58)
!1160 = !DINamespace(name: "__gnu_debug", scope: null)
!1161 = !DINamespace(name: "__debug", scope: !2)
!1162 = !DIFile(filename: "/usr/lib/gcc/x86_64-linux-gnu/9/../../../../include/c++/9/debug/debug.h", directory: "", checksumkind: CSK_MD5, checksum: "1e1a444391d862db9c9b259fde858dd4")
!1163 = !DIImportedEntity(tag: DW_TAG_imported_declaration, scope: !2, entity: !1164, file: !1169, line: 47)
!1164 = !DIDerivedType(tag: DW_TAG_typedef, name: "int8_t", file: !1165, line: 24, baseType: !1166)
!1165 = !DIFile(filename: "/usr/include/x86_64-linux-gnu/bits/stdint-intn.h", directory: "", checksumkind: CSK_MD5, checksum: "081edea97425b3437dded4a7fe223193")
!1166 = !DIDerivedType(tag: DW_TAG_typedef, name: "__int8_t", file: !1167, line: 37, baseType: !1168)
!1167 = !DIFile(filename: "/usr/include/x86_64-linux-gnu/bits/types.h", directory: "", checksumkind: CSK_MD5, checksum: "f6304b1a6dcfc6bee76e9a51043b5090")
!1168 = !DIBasicType(name: "signed char", size: 8, encoding: DW_ATE_signed_char)
!1169 = !DIFile(filename: "/usr/lib/gcc/x86_64-linux-gnu/9/../../../../include/c++/9/cstdint", directory: "")
!1170 = !DIImportedEntity(tag: DW_TAG_imported_declaration, scope: !2, entity: !1171, file: !1169, line: 48)
!1171 = !DIDerivedType(tag: DW_TAG_typedef, name: "int16_t", file: !1165, line: 25, baseType: !1172)
!1172 = !DIDerivedType(tag: DW_TAG_typedef, name: "__int16_t", file: !1167, line: 39, baseType: !1173)
!1173 = !DIBasicType(name: "short", size: 16, encoding: DW_ATE_signed)
!1174 = !DIImportedEntity(tag: DW_TAG_imported_declaration, scope: !2, entity: !1175, file: !1169, line: 49)
!1175 = !DIDerivedType(tag: DW_TAG_typedef, name: "int32_t", file: !1165, line: 26, baseType: !1176)
!1176 = !DIDerivedType(tag: DW_TAG_typedef, name: "__int32_t", file: !1167, line: 41, baseType: !57)
!1177 = !DIImportedEntity(tag: DW_TAG_imported_declaration, scope: !2, entity: !1178, file: !1169, line: 50)
!1178 = !DIDerivedType(tag: DW_TAG_typedef, name: "int64_t", file: !1165, line: 27, baseType: !1179)
!1179 = !DIDerivedType(tag: DW_TAG_typedef, name: "__int64_t", file: !1167, line: 44, baseType: !1079)
!1180 = !DIImportedEntity(tag: DW_TAG_imported_declaration, scope: !2, entity: !1181, file: !1169, line: 52)
!1181 = !DIDerivedType(tag: DW_TAG_typedef, name: "int_fast8_t", file: !1182, line: 58, baseType: !1168)
!1182 = !DIFile(filename: "/usr/include/stdint.h", directory: "", checksumkind: CSK_MD5, checksum: "24103e292ae21916e87130b926c8d2f8")
!1183 = !DIImportedEntity(tag: DW_TAG_imported_declaration, scope: !2, entity: !1184, file: !1169, line: 53)
!1184 = !DIDerivedType(tag: DW_TAG_typedef, name: "int_fast16_t", file: !1182, line: 60, baseType: !1079)
!1185 = !DIImportedEntity(tag: DW_TAG_imported_declaration, scope: !2, entity: !1186, file: !1169, line: 54)
!1186 = !DIDerivedType(tag: DW_TAG_typedef, name: "int_fast32_t", file: !1182, line: 61, baseType: !1079)
!1187 = !DIImportedEntity(tag: DW_TAG_imported_declaration, scope: !2, entity: !1188, file: !1169, line: 55)
!1188 = !DIDerivedType(tag: DW_TAG_typedef, name: "int_fast64_t", file: !1182, line: 62, baseType: !1079)
!1189 = !DIImportedEntity(tag: DW_TAG_imported_declaration, scope: !2, entity: !1190, file: !1169, line: 57)
!1190 = !DIDerivedType(tag: DW_TAG_typedef, name: "int_least8_t", file: !1182, line: 43, baseType: !1191)
!1191 = !DIDerivedType(tag: DW_TAG_typedef, name: "__int_least8_t", file: !1167, line: 52, baseType: !1166)
!1192 = !DIImportedEntity(tag: DW_TAG_imported_declaration, scope: !2, entity: !1193, file: !1169, line: 58)
!1193 = !DIDerivedType(tag: DW_TAG_typedef, name: "int_least16_t", file: !1182, line: 44, baseType: !1194)
!1194 = !DIDerivedType(tag: DW_TAG_typedef, name: "__int_least16_t", file: !1167, line: 54, baseType: !1172)
!1195 = !DIImportedEntity(tag: DW_TAG_imported_declaration, scope: !2, entity: !1196, file: !1169, line: 59)
!1196 = !DIDerivedType(tag: DW_TAG_typedef, name: "int_least32_t", file: !1182, line: 45, baseType: !1197)
!1197 = !DIDerivedType(tag: DW_TAG_typedef, name: "__int_least32_t", file: !1167, line: 56, baseType: !1176)
!1198 = !DIImportedEntity(tag: DW_TAG_imported_declaration, scope: !2, entity: !1199, file: !1169, line: 60)
!1199 = !DIDerivedType(tag: DW_TAG_typedef, name: "int_least64_t", file: !1182, line: 46, baseType: !1200)
!1200 = !DIDerivedType(tag: DW_TAG_typedef, name: "__int_least64_t", file: !1167, line: 58, baseType: !1179)
!1201 = !DIImportedEntity(tag: DW_TAG_imported_declaration, scope: !2, entity: !1202, file: !1169, line: 62)
!1202 = !DIDerivedType(tag: DW_TAG_typedef, name: "intmax_t", file: !1182, line: 101, baseType: !1203)
!1203 = !DIDerivedType(tag: DW_TAG_typedef, name: "__intmax_t", file: !1167, line: 72, baseType: !1079)
!1204 = !DIImportedEntity(tag: DW_TAG_imported_declaration, scope: !2, entity: !1205, file: !1169, line: 63)
!1205 = !DIDerivedType(tag: DW_TAG_typedef, name: "intptr_t", file: !1182, line: 87, baseType: !1079)
!1206 = !DIImportedEntity(tag: DW_TAG_imported_declaration, scope: !2, entity: !1207, file: !1169, line: 65)
!1207 = !DIDerivedType(tag: DW_TAG_typedef, name: "uint8_t", file: !1208, line: 24, baseType: !1209)
!1208 = !DIFile(filename: "/usr/include/x86_64-linux-gnu/bits/stdint-uintn.h", directory: "", checksumkind: CSK_MD5, checksum: "d3ea318a915682aaf6645ec16ac9f991")
!1209 = !DIDerivedType(tag: DW_TAG_typedef, name: "__uint8_t", file: !1167, line: 38, baseType: !1210)
!1210 = !DIBasicType(name: "unsigned char", size: 8, encoding: DW_ATE_unsigned_char)
!1211 = !DIImportedEntity(tag: DW_TAG_imported_declaration, scope: !2, entity: !1212, file: !1169, line: 66)
!1212 = !DIDerivedType(tag: DW_TAG_typedef, name: "uint16_t", file: !1208, line: 25, baseType: !1213)
!1213 = !DIDerivedType(tag: DW_TAG_typedef, name: "__uint16_t", file: !1167, line: 40, baseType: !1214)
!1214 = !DIBasicType(name: "unsigned short", size: 16, encoding: DW_ATE_unsigned)
!1215 = !DIImportedEntity(tag: DW_TAG_imported_declaration, scope: !2, entity: !1216, file: !1169, line: 67)
!1216 = !DIDerivedType(tag: DW_TAG_typedef, name: "uint32_t", file: !1208, line: 26, baseType: !1217)
!1217 = !DIDerivedType(tag: DW_TAG_typedef, name: "__uint32_t", file: !1167, line: 42, baseType: !32)
!1218 = !DIImportedEntity(tag: DW_TAG_imported_declaration, scope: !2, entity: !1219, file: !1169, line: 68)
!1219 = !DIDerivedType(tag: DW_TAG_typedef, name: "uint64_t", file: !1208, line: 27, baseType: !1220)
!1220 = !DIDerivedType(tag: DW_TAG_typedef, name: "__uint64_t", file: !1167, line: 45, baseType: !133)
!1221 = !DIImportedEntity(tag: DW_TAG_imported_declaration, scope: !2, entity: !1222, file: !1169, line: 70)
!1222 = !DIDerivedType(tag: DW_TAG_typedef, name: "uint_fast8_t", file: !1182, line: 71, baseType: !1210)
!1223 = !DIImportedEntity(tag: DW_TAG_imported_declaration, scope: !2, entity: !1224, file: !1169, line: 71)
!1224 = !DIDerivedType(tag: DW_TAG_typedef, name: "uint_fast16_t", file: !1182, line: 73, baseType: !133)
!1225 = !DIImportedEntity(tag: DW_TAG_imported_declaration, scope: !2, entity: !1226, file: !1169, line: 72)
!1226 = !DIDerivedType(tag: DW_TAG_typedef, name: "uint_fast32_t", file: !1182, line: 74, baseType: !133)
!1227 = !DIImportedEntity(tag: DW_TAG_imported_declaration, scope: !2, entity: !1228, file: !1169, line: 73)
!1228 = !DIDerivedType(tag: DW_TAG_typedef, name: "uint_fast64_t", file: !1182, line: 75, baseType: !133)
!1229 = !DIImportedEntity(tag: DW_TAG_imported_declaration, scope: !2, entity: !1230, file: !1169, line: 75)
!1230 = !DIDerivedType(tag: DW_TAG_typedef, name: "uint_least8_t", file: !1182, line: 49, baseType: !1231)
!1231 = !DIDerivedType(tag: DW_TAG_typedef, name: "__uint_least8_t", file: !1167, line: 53, baseType: !1209)
!1232 = !DIImportedEntity(tag: DW_TAG_imported_declaration, scope: !2, entity: !1233, file: !1169, line: 76)
!1233 = !DIDerivedType(tag: DW_TAG_typedef, name: "uint_least16_t", file: !1182, line: 50, baseType: !1234)
!1234 = !DIDerivedType(tag: DW_TAG_typedef, name: "__uint_least16_t", file: !1167, line: 55, baseType: !1213)
!1235 = !DIImportedEntity(tag: DW_TAG_imported_declaration, scope: !2, entity: !1236, file: !1169, line: 77)
!1236 = !DIDerivedType(tag: DW_TAG_typedef, name: "uint_least32_t", file: !1182, line: 51, baseType: !1237)
!1237 = !DIDerivedType(tag: DW_TAG_typedef, name: "__uint_least32_t", file: !1167, line: 57, baseType: !1217)
!1238 = !DIImportedEntity(tag: DW_TAG_imported_declaration, scope: !2, entity: !1239, file: !1169, line: 78)
!1239 = !DIDerivedType(tag: DW_TAG_typedef, name: "uint_least64_t", file: !1182, line: 52, baseType: !1240)
!1240 = !DIDerivedType(tag: DW_TAG_typedef, name: "__uint_least64_t", file: !1167, line: 59, baseType: !1220)
!1241 = !DIImportedEntity(tag: DW_TAG_imported_declaration, scope: !2, entity: !1242, file: !1169, line: 80)
!1242 = !DIDerivedType(tag: DW_TAG_typedef, name: "uintmax_t", file: !1182, line: 102, baseType: !1243)
!1243 = !DIDerivedType(tag: DW_TAG_typedef, name: "__uintmax_t", file: !1167, line: 73, baseType: !133)
!1244 = !DIImportedEntity(tag: DW_TAG_imported_declaration, scope: !2, entity: !1245, file: !1169, line: 81)
!1245 = !DIDerivedType(tag: DW_TAG_typedef, name: "uintptr_t", file: !1182, line: 90, baseType: !133)
!1246 = !DIImportedEntity(tag: DW_TAG_imported_declaration, scope: !2, entity: !1247, file: !1249, line: 53)
!1247 = distinct !DICompositeType(tag: DW_TAG_structure_type, name: "lconv", file: !1248, line: 51, size: 768, flags: DIFlagFwdDecl, identifier: "_ZTS5lconv")
!1248 = !DIFile(filename: "/usr/include/locale.h", directory: "", checksumkind: CSK_MD5, checksum: "0cf373fc44eed8073800bdb9da87b72f")
!1249 = !DIFile(filename: "/usr/lib/gcc/x86_64-linux-gnu/9/../../../../include/c++/9/clocale", directory: "")
!1250 = !DIImportedEntity(tag: DW_TAG_imported_declaration, scope: !2, entity: !1251, file: !1249, line: 54)
!1251 = !DISubprogram(name: "setlocale", scope: !1248, file: !1248, line: 122, type: !1252, flags: DIFlagPrototyped, spFlags: 0)
!1252 = !DISubroutineType(types: !1253)
!1253 = !{!1012, !57, !942}
!1254 = !DIImportedEntity(tag: DW_TAG_imported_declaration, scope: !2, entity: !1255, file: !1249, line: 55)
!1255 = !DISubprogram(name: "localeconv", scope: !1248, file: !1248, line: 125, type: !1256, flags: DIFlagPrototyped, spFlags: 0)
!1256 = !DISubroutineType(types: !1257)
!1257 = !{!1258}
!1258 = !DIDerivedType(tag: DW_TAG_pointer_type, baseType: !1247, size: 64)
!1259 = !DIImportedEntity(tag: DW_TAG_imported_declaration, scope: !2, entity: !1260, file: !1264, line: 64)
!1260 = !DISubprogram(name: "isalnum", scope: !1261, file: !1261, line: 108, type: !1262, flags: DIFlagPrototyped, spFlags: 0)
!1261 = !DIFile(filename: "/usr/include/ctype.h", directory: "", checksumkind: CSK_MD5, checksum: "36575f934ef4fe7e9d50a3cb17bd5c66")
!1262 = !DISubroutineType(types: !1263)
!1263 = !{!57, !57}
!1264 = !DIFile(filename: "/usr/lib/gcc/x86_64-linux-gnu/9/../../../../include/c++/9/cctype", directory: "")
!1265 = !DIImportedEntity(tag: DW_TAG_imported_declaration, scope: !2, entity: !1266, file: !1264, line: 65)
!1266 = !DISubprogram(name: "isalpha", scope: !1261, file: !1261, line: 109, type: !1262, flags: DIFlagPrototyped, spFlags: 0)
!1267 = !DIImportedEntity(tag: DW_TAG_imported_declaration, scope: !2, entity: !1268, file: !1264, line: 66)
!1268 = !DISubprogram(name: "iscntrl", scope: !1261, file: !1261, line: 110, type: !1262, flags: DIFlagPrototyped, spFlags: 0)
!1269 = !DIImportedEntity(tag: DW_TAG_imported_declaration, scope: !2, entity: !1270, file: !1264, line: 67)
!1270 = !DISubprogram(name: "isdigit", scope: !1261, file: !1261, line: 111, type: !1262, flags: DIFlagPrototyped, spFlags: 0)
!1271 = !DIImportedEntity(tag: DW_TAG_imported_declaration, scope: !2, entity: !1272, file: !1264, line: 68)
!1272 = !DISubprogram(name: "isgraph", scope: !1261, file: !1261, line: 113, type: !1262, flags: DIFlagPrototyped, spFlags: 0)
!1273 = !DIImportedEntity(tag: DW_TAG_imported_declaration, scope: !2, entity: !1274, file: !1264, line: 69)
!1274 = !DISubprogram(name: "islower", scope: !1261, file: !1261, line: 112, type: !1262, flags: DIFlagPrototyped, spFlags: 0)
!1275 = !DIImportedEntity(tag: DW_TAG_imported_declaration, scope: !2, entity: !1276, file: !1264, line: 70)
!1276 = !DISubprogram(name: "isprint", scope: !1261, file: !1261, line: 114, type: !1262, flags: DIFlagPrototyped, spFlags: 0)
!1277 = !DIImportedEntity(tag: DW_TAG_imported_declaration, scope: !2, entity: !1278, file: !1264, line: 71)
!1278 = !DISubprogram(name: "ispunct", scope: !1261, file: !1261, line: 115, type: !1262, flags: DIFlagPrototyped, spFlags: 0)
!1279 = !DIImportedEntity(tag: DW_TAG_imported_declaration, scope: !2, entity: !1280, file: !1264, line: 72)
!1280 = !DISubprogram(name: "isspace", scope: !1261, file: !1261, line: 116, type: !1262, flags: DIFlagPrototyped, spFlags: 0)
!1281 = !DIImportedEntity(tag: DW_TAG_imported_declaration, scope: !2, entity: !1282, file: !1264, line: 73)
!1282 = !DISubprogram(name: "isupper", scope: !1261, file: !1261, line: 117, type: !1262, flags: DIFlagPrototyped, spFlags: 0)
!1283 = !DIImportedEntity(tag: DW_TAG_imported_declaration, scope: !2, entity: !1284, file: !1264, line: 74)
!1284 = !DISubprogram(name: "isxdigit", scope: !1261, file: !1261, line: 118, type: !1262, flags: DIFlagPrototyped, spFlags: 0)
!1285 = !DIImportedEntity(tag: DW_TAG_imported_declaration, scope: !2, entity: !1286, file: !1264, line: 75)
!1286 = !DISubprogram(name: "tolower", scope: !1261, file: !1261, line: 122, type: !1262, flags: DIFlagPrototyped, spFlags: 0)
!1287 = !DIImportedEntity(tag: DW_TAG_imported_declaration, scope: !2, entity: !1288, file: !1264, line: 76)
!1288 = !DISubprogram(name: "toupper", scope: !1261, file: !1261, line: 125, type: !1262, flags: DIFlagPrototyped, spFlags: 0)
!1289 = !DIImportedEntity(tag: DW_TAG_imported_declaration, scope: !2, entity: !1290, file: !1264, line: 87)
!1290 = !DISubprogram(name: "isblank", scope: !1261, file: !1261, line: 130, type: !1262, flags: DIFlagPrototyped, spFlags: 0)
!1291 = !DIImportedEntity(tag: DW_TAG_imported_declaration, scope: !31, entity: !1292, file: !1293, line: 44)
!1292 = !DIDerivedType(tag: DW_TAG_typedef, name: "size_t", scope: !2, file: !429, line: 258, baseType: !133)
!1293 = !DIFile(filename: "/usr/lib/gcc/x86_64-linux-gnu/9/../../../../include/c++/9/ext/new_allocator.h", directory: "", checksumkind: CSK_MD5, checksum: "d815d3ddb625b8849e2bd401d0f6b354")
!1294 = !DIImportedEntity(tag: DW_TAG_imported_declaration, scope: !31, entity: !1295, file: !1293, line: 45)
!1295 = !DIDerivedType(tag: DW_TAG_typedef, name: "ptrdiff_t", scope: !2, file: !429, line: 259, baseType: !1079)
!1296 = !DIImportedEntity(tag: DW_TAG_imported_declaration, scope: !2, entity: !1297, file: !1299, line: 52)
!1297 = !DISubprogram(name: "abs", scope: !1298, file: !1298, line: 840, type: !1262, flags: DIFlagPrototyped, spFlags: 0)
!1298 = !DIFile(filename: "/usr/include/stdlib.h", directory: "", checksumkind: CSK_MD5, checksum: "f0db66726d35051e5af2525f5b33bd81")
!1299 = !DIFile(filename: "/usr/lib/gcc/x86_64-linux-gnu/9/../../../../include/c++/9/bits/std_abs.h", directory: "")
!1300 = !DIImportedEntity(tag: DW_TAG_imported_declaration, scope: !2, entity: !1301, file: !1303, line: 127)
!1301 = !DIDerivedType(tag: DW_TAG_typedef, name: "div_t", file: !1298, line: 62, baseType: !1302)
!1302 = distinct !DICompositeType(tag: DW_TAG_structure_type, file: !1298, line: 58, size: 64, flags: DIFlagFwdDecl, identifier: "_ZTS5div_t")
!1303 = !DIFile(filename: "/usr/lib/gcc/x86_64-linux-gnu/9/../../../../include/c++/9/cstdlib", directory: "")
!1304 = !DIImportedEntity(tag: DW_TAG_imported_declaration, scope: !2, entity: !1305, file: !1303, line: 128)
!1305 = !DIDerivedType(tag: DW_TAG_typedef, name: "ldiv_t", file: !1298, line: 70, baseType: !1306)
!1306 = distinct !DICompositeType(tag: DW_TAG_structure_type, file: !1298, line: 66, size: 128, flags: DIFlagTypePassByValue, elements: !1307, identifier: "_ZTS6ldiv_t")
!1307 = !{!1308, !1309}
!1308 = !DIDerivedType(tag: DW_TAG_member, name: "quot", scope: !1306, file: !1298, line: 68, baseType: !1079, size: 64)
!1309 = !DIDerivedType(tag: DW_TAG_member, name: "rem", scope: !1306, file: !1298, line: 69, baseType: !1079, size: 64, offset: 64)
!1310 = !DIImportedEntity(tag: DW_TAG_imported_declaration, scope: !2, entity: !1311, file: !1303, line: 130)
!1311 = !DISubprogram(name: "abort", scope: !1298, file: !1298, line: 591, type: !39, flags: DIFlagPrototyped | DIFlagNoReturn, spFlags: 0)
!1312 = !DIImportedEntity(tag: DW_TAG_imported_declaration, scope: !2, entity: !1313, file: !1303, line: 132)
!1313 = !DISubprogram(name: "aligned_alloc", scope: !1298, file: !1298, line: 586, type: !1314, flags: DIFlagPrototyped, spFlags: 0)
!1314 = !DISubroutineType(types: !1315)
!1315 = !{!989, !939, !939}
!1316 = !DIImportedEntity(tag: DW_TAG_imported_declaration, scope: !2, entity: !1317, file: !1303, line: 134)
!1317 = !DISubprogram(name: "atexit", scope: !1298, file: !1298, line: 595, type: !1318, flags: DIFlagPrototyped, spFlags: 0)
!1318 = !DISubroutineType(types: !1319)
!1319 = !{!57, !38}
!1320 = !DIImportedEntity(tag: DW_TAG_imported_declaration, scope: !2, entity: !1321, file: !1303, line: 137)
!1321 = !DISubprogram(name: "at_quick_exit", scope: !1298, file: !1298, line: 600, type: !1318, flags: DIFlagPrototyped, spFlags: 0)
!1322 = !DIImportedEntity(tag: DW_TAG_imported_declaration, scope: !2, entity: !1323, file: !1303, line: 140)
!1323 = !DISubprogram(name: "atof", scope: !1298, file: !1298, line: 101, type: !1324, flags: DIFlagPrototyped, spFlags: 0)
!1324 = !DISubroutineType(types: !1325)
!1325 = !{!1063, !942}
!1326 = !DIImportedEntity(tag: DW_TAG_imported_declaration, scope: !2, entity: !1327, file: !1303, line: 141)
!1327 = !DISubprogram(name: "atoi", scope: !1298, file: !1298, line: 104, type: !1328, flags: DIFlagPrototyped, spFlags: 0)
!1328 = !DISubroutineType(types: !1329)
!1329 = !{!57, !942}
!1330 = !DIImportedEntity(tag: DW_TAG_imported_declaration, scope: !2, entity: !1331, file: !1303, line: 142)
